   1              		.file	"MyName.c"
   2              		.text
   3              	.Ltext0:
   4              		.cfi_sections	.debug_frame
   5              		.file 0 "/home/kokipc/Bootloader-Operativos/Simple_UEFI_Bootloader" "src/MyName.c"
   6              		.globl	WaitKey
   8              	WaitKey:
   9              	.LVL0:
  10              	.LFB1:
  11              		.file 1 "src/MyName.c"
   1:src/MyName.c  **** #include "Bootloader.h"
   2:src/MyName.c  **** 
   3:src/MyName.c  **** //
   4:src/MyName.c  **** // Cambia estos nombres por los de ustedes
   5:src/MyName.c  **** //
   6:src/MyName.c  **** STATIC CONST CHAR8 NAME_1[] = "CHRISTIAN";
   7:src/MyName.c  **** STATIC CONST CHAR8 NAME_2[] = "JORGE";
   8:src/MyName.c  **** 
   9:src/MyName.c  **** #define BG_R  10
  10:src/MyName.c  **** #define BG_G  10
  11:src/MyName.c  **** #define BG_B  30
  12:src/MyName.c  **** 
  13:src/MyName.c  **** #define FG_R  255
  14:src/MyName.c  **** #define FG_G  255
  15:src/MyName.c  **** #define FG_B  255
  16:src/MyName.c  **** 
  17:src/MyName.c  **** #define INFO_R  120
  18:src/MyName.c  **** #define INFO_G  200
  19:src/MyName.c  **** #define INFO_B  255
  20:src/MyName.c  **** 
  21:src/MyName.c  **** #define LETTER_SCALE   6
  22:src/MyName.c  **** #define LETTER_SPACING 2
  23:src/MyName.c  **** #define WORD_SPACING   8
  24:src/MyName.c  **** #define NAME_GAP       18
  25:src/MyName.c  **** #define SCREEN_MARGIN  16
  26:src/MyName.c  **** 
  27:src/MyName.c  **** typedef enum
  28:src/MyName.c  **** {
  29:src/MyName.c  ****   TRANSFORM_NORMAL = 0,
  30:src/MyName.c  ****   TRANSFORM_ROT_LEFT_90,
  31:src/MyName.c  ****   TRANSFORM_ROT_RIGHT_90,
  32:src/MyName.c  ****   TRANSFORM_FLIP_VERTICAL,
  33:src/MyName.c  ****   TRANSFORM_ROT_180
  34:src/MyName.c  **** } MYNAME_TRANSFORM;
  35:src/MyName.c  **** 
  36:src/MyName.c  **** typedef struct
  37:src/MyName.c  **** {
  38:src/MyName.c  ****   UINT32 Width;
  39:src/MyName.c  ****   UINT32 Height;
  40:src/MyName.c  ****   UINT32 PixelsPerScanLine;
  41:src/MyName.c  ****   EFI_GRAPHICS_PIXEL_FORMAT PixelFormat;
  42:src/MyName.c  ****   EFI_PIXEL_BITMASK PixelInfo;
  43:src/MyName.c  ****   UINT32 *FrameBuffer;
  44:src/MyName.c  **** } DRAW_CONTEXT;
  45:src/MyName.c  **** 
  46:src/MyName.c  **** typedef struct
  47:src/MyName.c  **** {
  48:src/MyName.c  ****   UINTN Width;
  49:src/MyName.c  ****   UINTN Height;
  50:src/MyName.c  **** } TEXT_EXTENTS;
  51:src/MyName.c  **** 
  52:src/MyName.c  **** typedef struct
  53:src/MyName.c  **** {
  54:src/MyName.c  ****   CHAR8 c;
  55:src/MyName.c  ****   UINT8 rows[7];
  56:src/MyName.c  **** } FONT5X7;
  57:src/MyName.c  **** 
  58:src/MyName.c  **** STATIC EFI_STATUS WaitKey(EFI_INPUT_KEY *Key);
  59:src/MyName.c  **** STATIC VOID ClearScreenColor(const DRAW_CONTEXT *Ctx, UINT8 R, UINT8 G, UINT8 B);
  60:src/MyName.c  **** STATIC VOID PutPixel(const DRAW_CONTEXT *Ctx, INTN X, INTN Y, UINT8 R, UINT8 G, UINT8 B);
  61:src/MyName.c  **** STATIC VOID FillRect(const DRAW_CONTEXT *Ctx, INTN X, INTN Y, UINTN W, UINTN H, UINT8 R, UINT8 G, U
  62:src/MyName.c  **** STATIC VOID DrawGlyph5x7(const DRAW_CONTEXT *Ctx, CHAR8 Ch, INTN X, INTN Y, UINTN Scale, MYNAME_TRA
  63:src/MyName.c  **** STATIC VOID DrawText5x7(const DRAW_CONTEXT *Ctx, const CHAR8 *Text, INTN X, INTN Y, UINTN Scale, MY
  64:src/MyName.c  **** STATIC TEXT_EXTENTS MeasureText5x7(const CHAR8 *Text, UINTN Scale, MYNAME_TRANSFORM Transform);
  65:src/MyName.c  **** STATIC UINT32 PackColor(const DRAW_CONTEXT *Ctx, UINT8 R, UINT8 G, UINT8 B);
  66:src/MyName.c  **** STATIC UINTN AsciiLen(const CHAR8 *Str);
  67:src/MyName.c  **** STATIC const FONT5X7 *FindGlyph(CHAR8 Ch);
  68:src/MyName.c  **** STATIC VOID GetRandomPosition(const DRAW_CONTEXT *Ctx, const CHAR8 *Name1, const CHAR8 *Name2, UINT
  69:src/MyName.c  **** STATIC VOID DrawScene(const DRAW_CONTEXT *Ctx, const CHAR8 *Name1, const CHAR8 *Name2, INTN X, INTN
  70:src/MyName.c  **** STATIC VOID DrawInstructionBar(const DRAW_CONTEXT *Ctx);
  71:src/MyName.c  **** STATIC VOID DrawCenteredBox(const DRAW_CONTEXT *Ctx, UINTN BoxW, UINTN BoxH, UINT8 R, UINT8 G, UINT
  72:src/MyName.c  **** 
  73:src/MyName.c  **** //
  74:src/MyName.c  **** // Fuente 5x7 básica para letras mayúsculas, números y algunos símbolos
  75:src/MyName.c  **** // Cada valor usa 5 bits significativos
  76:src/MyName.c  **** //
  77:src/MyName.c  **** STATIC CONST FONT5X7 FontTable[] =
  78:src/MyName.c  **** {
  79:src/MyName.c  ****   {'A',{0x0E,0x11,0x11,0x1F,0x11,0x11,0x11}},
  80:src/MyName.c  ****   {'B',{0x1E,0x11,0x11,0x1E,0x11,0x11,0x1E}},
  81:src/MyName.c  ****   {'C',{0x0E,0x11,0x10,0x10,0x10,0x11,0x0E}},
  82:src/MyName.c  ****   {'D',{0x1E,0x11,0x11,0x11,0x11,0x11,0x1E}},
  83:src/MyName.c  ****   {'E',{0x1F,0x10,0x10,0x1E,0x10,0x10,0x1F}},
  84:src/MyName.c  ****   {'F',{0x1F,0x10,0x10,0x1E,0x10,0x10,0x10}},
  85:src/MyName.c  ****   {'G',{0x0E,0x11,0x10,0x10,0x13,0x11,0x0E}},
  86:src/MyName.c  ****   {'H',{0x11,0x11,0x11,0x1F,0x11,0x11,0x11}},
  87:src/MyName.c  ****   {'I',{0x1F,0x04,0x04,0x04,0x04,0x04,0x1F}},
  88:src/MyName.c  ****   {'J',{0x01,0x01,0x01,0x01,0x11,0x11,0x0E}},
  89:src/MyName.c  ****   {'K',{0x11,0x12,0x14,0x18,0x14,0x12,0x11}},
  90:src/MyName.c  ****   {'L',{0x10,0x10,0x10,0x10,0x10,0x10,0x1F}},
  91:src/MyName.c  ****   {'M',{0x11,0x1B,0x15,0x15,0x11,0x11,0x11}},
  92:src/MyName.c  ****   {'N',{0x11,0x11,0x19,0x15,0x13,0x11,0x11}},
  93:src/MyName.c  ****   {'O',{0x0E,0x11,0x11,0x11,0x11,0x11,0x0E}},
  94:src/MyName.c  ****   {'P',{0x1E,0x11,0x11,0x1E,0x10,0x10,0x10}},
  95:src/MyName.c  ****   {'Q',{0x0E,0x11,0x11,0x11,0x15,0x12,0x0D}},
  96:src/MyName.c  ****   {'R',{0x1E,0x11,0x11,0x1E,0x14,0x12,0x11}},
  97:src/MyName.c  ****   {'S',{0x0F,0x10,0x10,0x0E,0x01,0x01,0x1E}},
  98:src/MyName.c  ****   {'T',{0x1F,0x04,0x04,0x04,0x04,0x04,0x04}},
  99:src/MyName.c  ****   {'U',{0x11,0x11,0x11,0x11,0x11,0x11,0x0E}},
 100:src/MyName.c  ****   {'V',{0x11,0x11,0x11,0x11,0x11,0x0A,0x04}},
 101:src/MyName.c  ****   {'W',{0x11,0x11,0x11,0x15,0x15,0x15,0x0A}},
 102:src/MyName.c  ****   {'X',{0x11,0x11,0x0A,0x04,0x0A,0x11,0x11}},
 103:src/MyName.c  ****   {'Y',{0x11,0x11,0x0A,0x04,0x04,0x04,0x04}},
 104:src/MyName.c  ****   {'Z',{0x1F,0x01,0x02,0x04,0x08,0x10,0x1F}},
 105:src/MyName.c  **** 
 106:src/MyName.c  ****   {'0',{0x0E,0x11,0x13,0x15,0x19,0x11,0x0E}},
 107:src/MyName.c  ****   {'1',{0x04,0x0C,0x04,0x04,0x04,0x04,0x0E}},
 108:src/MyName.c  ****   {'2',{0x0E,0x11,0x01,0x02,0x04,0x08,0x1F}},
 109:src/MyName.c  ****   {'3',{0x1E,0x01,0x01,0x06,0x01,0x01,0x1E}},
 110:src/MyName.c  ****   {'4',{0x02,0x06,0x0A,0x12,0x1F,0x02,0x02}},
 111:src/MyName.c  ****   {'5',{0x1F,0x10,0x10,0x1E,0x01,0x01,0x1E}},
 112:src/MyName.c  ****   {'6',{0x0E,0x10,0x10,0x1E,0x11,0x11,0x0E}},
 113:src/MyName.c  ****   {'7',{0x1F,0x01,0x02,0x04,0x08,0x08,0x08}},
 114:src/MyName.c  ****   {'8',{0x0E,0x11,0x11,0x0E,0x11,0x11,0x0E}},
 115:src/MyName.c  ****   {'9',{0x0E,0x11,0x11,0x0F,0x01,0x01,0x0E}},
 116:src/MyName.c  **** 
 117:src/MyName.c  ****   {'-',{0x00,0x00,0x00,0x1F,0x00,0x00,0x00}},
 118:src/MyName.c  ****   {' ',{0x00,0x00,0x00,0x00,0x00,0x00,0x00}},
 119:src/MyName.c  **** 
 120:src/MyName.c  ****   {'\0',{0,0,0,0,0,0,0}}
 121:src/MyName.c  **** };
 122:src/MyName.c  **** 
 123:src/MyName.c  **** EFI_STATUS RunMyNameGame(GPU_CONFIG *Graphics)
 124:src/MyName.c  **** {
 125:src/MyName.c  ****   if(Graphics == NULL)
 126:src/MyName.c  ****   {
 127:src/MyName.c  ****     return EFI_INVALID_PARAMETER;
 128:src/MyName.c  ****   }
 129:src/MyName.c  **** 
 130:src/MyName.c  ****   if(Graphics->NumberOfFrameBuffers == 0)
 131:src/MyName.c  ****   {
 132:src/MyName.c  ****     return EFI_NOT_FOUND;
 133:src/MyName.c  ****   }
 134:src/MyName.c  **** 
 135:src/MyName.c  ****   EFI_GRAPHICS_OUTPUT_PROTOCOL_MODE *Mode = &Graphics->GPUArray[0];
 136:src/MyName.c  ****   if(Mode->Info == NULL || Mode->FrameBufferBase == 0)
 137:src/MyName.c  ****   {
 138:src/MyName.c  ****     return EFI_NOT_READY;
 139:src/MyName.c  ****   }
 140:src/MyName.c  **** 
 141:src/MyName.c  ****   DRAW_CONTEXT Ctx;
 142:src/MyName.c  ****   Ctx.Width = Mode->Info->HorizontalResolution;
 143:src/MyName.c  ****   Ctx.Height = Mode->Info->VerticalResolution;
 144:src/MyName.c  ****   Ctx.PixelsPerScanLine = Mode->Info->PixelsPerScanLine;
 145:src/MyName.c  ****   Ctx.PixelFormat = Mode->Info->PixelFormat;
 146:src/MyName.c  ****   Ctx.PixelInfo = Mode->Info->PixelInformation;
 147:src/MyName.c  ****   Ctx.FrameBuffer = (UINT32*)(UINTN)Mode->FrameBufferBase;
 148:src/MyName.c  **** 
 149:src/MyName.c  ****   MYNAME_TRANSFORM Transform = TRANSFORM_NORMAL;
 150:src/MyName.c  ****   INTN PosX = 0;
 151:src/MyName.c  ****   INTN PosY = 0;
 152:src/MyName.c  **** 
 153:src/MyName.c  ****   GetRandomPosition(&Ctx, NAME_1, NAME_2, LETTER_SCALE, Transform, &PosX, &PosY);
 154:src/MyName.c  ****   DrawScene(&Ctx, NAME_1, NAME_2, PosX, PosY, Transform);
 155:src/MyName.c  **** 
 156:src/MyName.c  ****   while(1)
 157:src/MyName.c  ****   {
 158:src/MyName.c  ****     EFI_INPUT_KEY Key;
 159:src/MyName.c  ****     EFI_STATUS Status = WaitKey(&Key);
 160:src/MyName.c  ****     if(EFI_ERROR(Status))
 161:src/MyName.c  ****     {
 162:src/MyName.c  ****       return Status;
 163:src/MyName.c  ****     }
 164:src/MyName.c  **** 
 165:src/MyName.c  ****     if(Key.ScanCode == SCAN_ESC)
 166:src/MyName.c  ****     {
 167:src/MyName.c  ****       return EFI_SUCCESS;
 168:src/MyName.c  ****     }
 169:src/MyName.c  **** 
 170:src/MyName.c  ****     if(Key.UnicodeChar == L'r' || Key.UnicodeChar == L'R')
 171:src/MyName.c  ****     {
 172:src/MyName.c  ****       Transform = TRANSFORM_NORMAL;
 173:src/MyName.c  ****       GetRandomPosition(&Ctx, NAME_1, NAME_2, LETTER_SCALE, Transform, &PosX, &PosY);
 174:src/MyName.c  ****       DrawScene(&Ctx, NAME_1, NAME_2, PosX, PosY, Transform);
 175:src/MyName.c  ****       continue;
 176:src/MyName.c  ****     }
 177:src/MyName.c  **** 
 178:src/MyName.c  ****     if(Key.ScanCode == SCAN_LEFT)
 179:src/MyName.c  ****     {
 180:src/MyName.c  ****       Transform = TRANSFORM_ROT_LEFT_90;
 181:src/MyName.c  ****       DrawScene(&Ctx, NAME_1, NAME_2, PosX, PosY, Transform);
 182:src/MyName.c  ****       continue;
 183:src/MyName.c  ****     }
 184:src/MyName.c  **** 
 185:src/MyName.c  ****     if(Key.ScanCode == SCAN_RIGHT)
 186:src/MyName.c  ****     {
 187:src/MyName.c  ****       Transform = TRANSFORM_ROT_RIGHT_90;
 188:src/MyName.c  ****       DrawScene(&Ctx, NAME_1, NAME_2, PosX, PosY, Transform);
 189:src/MyName.c  ****       continue;
 190:src/MyName.c  ****     }
 191:src/MyName.c  **** 
 192:src/MyName.c  ****     if(Key.ScanCode == SCAN_UP)
 193:src/MyName.c  ****     {
 194:src/MyName.c  ****       Transform = TRANSFORM_FLIP_VERTICAL;
 195:src/MyName.c  ****       DrawScene(&Ctx, NAME_1, NAME_2, PosX, PosY, Transform);
 196:src/MyName.c  ****       continue;
 197:src/MyName.c  ****     }
 198:src/MyName.c  **** 
 199:src/MyName.c  ****     if(Key.ScanCode == SCAN_DOWN)
 200:src/MyName.c  ****     {
 201:src/MyName.c  ****       Transform = TRANSFORM_ROT_180;
 202:src/MyName.c  ****       DrawScene(&Ctx, NAME_1, NAME_2, PosX, PosY, Transform);
 203:src/MyName.c  ****       continue;
 204:src/MyName.c  ****     }
 205:src/MyName.c  ****   }
 206:src/MyName.c  **** }
 207:src/MyName.c  **** 
 208:src/MyName.c  **** STATIC EFI_STATUS WaitKey(EFI_INPUT_KEY *Key)
 209:src/MyName.c  **** {
  12              		.loc 1 209 1 view -0
  13              		.cfi_startproc
  14              		.loc 1 209 1 is_stmt 0 view .LVU1
  15 0000 F30F1EFA 		endbr64
 210:src/MyName.c  ****   EFI_STATUS Status;
  16              		.loc 1 210 3 is_stmt 1 view .LVU2
 211:src/MyName.c  **** 
 212:src/MyName.c  ****   if(Key == NULL)
  17              		.loc 1 212 3 view .LVU3
  18              		.loc 1 212 5 is_stmt 0 view .LVU4
  19 0004 4885FF   		testq	%rdi, %rdi
  20 0007 744B     		je	.L4
 209:src/MyName.c  ****   EFI_STATUS Status;
  21              		.loc 1 209 1 view .LVU5
  22 0009 53       		pushq	%rbx
  23              		.cfi_def_cfa_offset 16
  24              		.cfi_offset 3, -16
  25 000a 4883EC20 		subq	$32, %rsp
  26              		.cfi_def_cfa_offset 48
  27 000e 4889FB   		movq	%rdi, %rbx
 213:src/MyName.c  ****   {
 214:src/MyName.c  ****     return EFI_INVALID_PARAMETER;
 215:src/MyName.c  ****   }
 216:src/MyName.c  **** 
 217:src/MyName.c  ****   Status = ST->ConIn->Reset(ST->ConIn, FALSE);
  28              		.loc 1 217 3 is_stmt 1 view .LVU6
  29              		.loc 1 217 14 is_stmt 0 view .LVU7
  30 0011 488B0500 		movq	ST(%rip), %rax
  30      000000
  31 0018 488B4030 		movq	48(%rax), %rax
  32              		.loc 1 217 12 view .LVU8
  33 001c BA000000 		movl	$0, %edx
  33      00
  34 0021 4889C1   		movq	%rax, %rcx
  35 0024 FF10     		call	*(%rax)
  36              	.LVL1:
 218:src/MyName.c  ****   if(EFI_ERROR(Status))
  37              		.loc 1 218 3 is_stmt 1 view .LVU9
  38              		.loc 1 218 5 is_stmt 0 view .LVU10
  39 0026 4885C0   		testq	%rax, %rax
  40 0029 7823     		js	.L1
  41              	.L3:
 219:src/MyName.c  ****   {
 220:src/MyName.c  ****     return Status;
 221:src/MyName.c  ****   }
 222:src/MyName.c  **** 
 223:src/MyName.c  ****   while((Status = ST->ConIn->ReadKeyStroke(ST->ConIn, Key)) == EFI_NOT_READY);
  42              		.loc 1 223 61 is_stmt 1 discriminator 1 view .LVU11
  43              		.loc 1 223 21 is_stmt 0 discriminator 1 view .LVU12
  44 002b 488B0500 		movq	ST(%rip), %rax
  44      000000
  45              	.LVL2:
  46              		.loc 1 223 21 discriminator 1 view .LVU13
  47 0032 488B4030 		movq	48(%rax), %rax
  48              		.loc 1 223 19 discriminator 1 view .LVU14
  49 0036 4889DA   		movq	%rbx, %rdx
  50 0039 4889C1   		movq	%rax, %rcx
  51 003c FF5008   		call	*8(%rax)
  52              	.LVL3:
  53              		.loc 1 223 61 discriminator 1 view .LVU15
  54 003f 48BA0600 		movabsq	$-9223372036854775802, %rdx
  54      00000000 
  54      0080
  55 0049 4839D0   		cmpq	%rdx, %rax
  56 004c 74DD     		je	.L3
  57              	.L1:
 224:src/MyName.c  **** 
 225:src/MyName.c  ****   return Status;
 226:src/MyName.c  **** }
  58              		.loc 1 226 1 view .LVU16
  59 004e 4883C420 		addq	$32, %rsp
  60              		.cfi_def_cfa_offset 16
  61 0052 5B       		popq	%rbx
  62              		.cfi_restore 3
  63              		.cfi_def_cfa_offset 8
  64              	.LVL4:
  65              		.loc 1 226 1 view .LVU17
  66 0053 C3       		ret
  67              	.LVL5:
  68              	.L4:
 214:src/MyName.c  ****   }
  69              		.loc 1 214 12 view .LVU18
  70 0054 48B80200 		movabsq	$-9223372036854775806, %rax
  70      00000000 
  70      0080
  71              		.loc 1 226 1 view .LVU19
  72 005e C3       		ret
  73              		.cfi_endproc
  74              	.LFE1:
  76              		.globl	AsciiLen
  78              	AsciiLen:
  79              	.LVL6:
  80              	.LFB6:
 227:src/MyName.c  **** 
 228:src/MyName.c  **** STATIC VOID DrawScene(const DRAW_CONTEXT *Ctx, const CHAR8 *Name1, const CHAR8 *Name2, INTN X, INTN
 229:src/MyName.c  **** {
 230:src/MyName.c  ****     ClearScreenColor(Ctx, BG_R, BG_G, BG_B);
 231:src/MyName.c  **** 
 232:src/MyName.c  ****     TEXT_EXTENTS T1 = MeasureText5x7(Name1, LETTER_SCALE, Transform);
 233:src/MyName.c  ****     TEXT_EXTENTS T2 = MeasureText5x7(Name2, LETTER_SCALE, Transform);
 234:src/MyName.c  **** 
 235:src/MyName.c  ****     UINTN TotalW = (T1.Width > T2.Width ? T1.Width : T2.Width);
 236:src/MyName.c  ****     UINTN TotalH = T1.Height + NAME_GAP + T2.Height;
 237:src/MyName.c  **** 
 238:src/MyName.c  ****     UINTN BoxW = TotalW + 40;
 239:src/MyName.c  ****     UINTN BoxH = TotalH + 40;
 240:src/MyName.c  **** 
 241:src/MyName.c  ****     INTN BoxX = ((INTN)Ctx->Width - (INTN)BoxW) / 2;
 242:src/MyName.c  ****     INTN BoxY = ((INTN)Ctx->Height - (INTN)BoxH) / 2;
 243:src/MyName.c  **** 
 244:src/MyName.c  ****     FillRect(Ctx, BoxX, BoxY, BoxW, BoxH, 40, 40, 70);
 245:src/MyName.c  ****     FillRect(Ctx, BoxX + 6, BoxY + 6, BoxW - 12, BoxH - 12, BG_R, BG_G, BG_B);
 246:src/MyName.c  **** 
 247:src/MyName.c  ****     //
 248:src/MyName.c  ****     // Recentrar el bloque completo usando X,Y como centro aproximado
 249:src/MyName.c  ****     //
 250:src/MyName.c  ****     INTN StartX = X - ((INTN)TotalW / 2);
 251:src/MyName.c  ****     INTN StartY = Y - ((INTN)TotalH / 2);
 252:src/MyName.c  **** 
 253:src/MyName.c  ****     //
 254:src/MyName.c  ****     // Mantenerlo dentro de pantalla
 255:src/MyName.c  ****     //
 256:src/MyName.c  ****     if(StartX < SCREEN_MARGIN) StartX = SCREEN_MARGIN;
 257:src/MyName.c  ****     if(StartY < SCREEN_MARGIN) StartY = SCREEN_MARGIN;
 258:src/MyName.c  **** 
 259:src/MyName.c  ****     if(StartX + (INTN)TotalW >= (INTN)Ctx->Width - SCREEN_MARGIN)
 260:src/MyName.c  ****         StartX = (INTN)Ctx->Width - SCREEN_MARGIN - (INTN)TotalW;
 261:src/MyName.c  **** 
 262:src/MyName.c  ****     if(StartY + (INTN)TotalH >= (INTN)Ctx->Height - SCREEN_MARGIN - 50)
 263:src/MyName.c  ****         StartY = (INTN)Ctx->Height - SCREEN_MARGIN - 50 - (INTN)TotalH;
 264:src/MyName.c  **** 
 265:src/MyName.c  ****     DrawText5x7(Ctx, Name1, StartX, StartY, LETTER_SCALE, Transform, FG_R, FG_G, FG_B);
 266:src/MyName.c  ****     DrawText5x7(Ctx, Name2, StartX, StartY + (INTN)T1.Height + NAME_GAP, LETTER_SCALE, Transform, F
 267:src/MyName.c  **** 
 268:src/MyName.c  ****     DrawInstructionBar(Ctx);
 269:src/MyName.c  **** }
 270:src/MyName.c  **** 
 271:src/MyName.c  **** STATIC VOID DrawInstructionBar(const DRAW_CONTEXT *Ctx)
 272:src/MyName.c  **** {
 273:src/MyName.c  ****   FillRect(Ctx, 0, (INTN)Ctx->Height - 42, Ctx->Width, 42, 0, 0, 0);
 274:src/MyName.c  **** 
 275:src/MyName.c  ****   //
 276:src/MyName.c  ****   // Solo texto corto para no tener que definir demasiados símbolos
 277:src/MyName.c  ****   //
 278:src/MyName.c  ****   DrawText5x7(Ctx, "LEFT RIGHT UP DOWN", 14, (INTN)Ctx->Height - 34, 2, TRANSFORM_NORMAL, INFO_R, I
 279:src/MyName.c  ****   DrawText5x7(Ctx, "R RESTART", 14, (INTN)Ctx->Height - 18, 2, TRANSFORM_NORMAL, INFO_R, INFO_G, IN
 280:src/MyName.c  ****   DrawText5x7(Ctx, "ESC EXIT", (INTN)Ctx->Width - 120, (INTN)Ctx->Height - 18, 2, TRANSFORM_NORMAL,
 281:src/MyName.c  **** }
 282:src/MyName.c  **** 
 283:src/MyName.c  **** STATIC VOID DrawCenteredBox(const DRAW_CONTEXT *Ctx, UINTN BoxW, UINTN BoxH, UINT8 R, UINT8 G, UINT
 284:src/MyName.c  **** {
 285:src/MyName.c  ****   INTN X = ((INTN)Ctx->Width - (INTN)BoxW) / 2;
 286:src/MyName.c  ****   INTN Y = ((INTN)Ctx->Height - (INTN)BoxH) / 2;
 287:src/MyName.c  **** 
 288:src/MyName.c  ****   FillRect(Ctx, X, Y, BoxW, BoxH, R, G, B);
 289:src/MyName.c  ****   FillRect(Ctx, X + 6, Y + 6, BoxW - 12, BoxH - 12, BG_R, BG_G, BG_B);
 290:src/MyName.c  **** }
 291:src/MyName.c  **** 
 292:src/MyName.c  **** STATIC VOID GetRandomPosition(const DRAW_CONTEXT *Ctx, const CHAR8 *Name1, const CHAR8 *Name2, UINT
 293:src/MyName.c  **** {
 294:src/MyName.c  ****   // 1. SOLUCIÓN AL SALTO RARO AL ROTAR (Bounding Box Máximo)
 295:src/MyName.c  ****   // Medimos el texto en estado NORMAL para conocer su largo y alto absolutos.
 296:src/MyName.c  ****   TEXT_EXTENTS T1 = MeasureText5x7(Name1, Scale, TRANSFORM_NORMAL);
 297:src/MyName.c  ****   TEXT_EXTENTS T2 = MeasureText5x7(Name2, Scale, TRANSFORM_NORMAL);
 298:src/MyName.c  **** 
 299:src/MyName.c  ****   UINTN NormalW = (T1.Width > T2.Width ? T1.Width : T2.Width);
 300:src/MyName.c  ****   UINTN NormalH = T1.Height + NAME_GAP + T2.Height;
 301:src/MyName.c  **** 
 302:src/MyName.c  ****   // El tamaño máximo que puede ocupar en CUALQUIER rotación. 
 303:src/MyName.c  ****   // Esto crea un "radio" seguro para el centro.
 304:src/MyName.c  ****   UINTN MaxDim = (NormalW > NormalH) ? NormalW : NormalH;
 305:src/MyName.c  ****   UINTN HalfDim = MaxDim / 2;
 306:src/MyName.c  **** 
 307:src/MyName.c  ****   // Definimos los límites de la pantalla donde el CENTRO (X, Y) puede existir sin que
 308:src/MyName.c  ****   // ninguna esquina choque al rotar.
 309:src/MyName.c  ****   UINTN MinX = SCREEN_MARGIN + HalfDim;
 310:src/MyName.c  ****   UINTN MaxX = (Ctx->Width > (SCREEN_MARGIN + HalfDim)) ? (Ctx->Width - SCREEN_MARGIN - HalfDim) : 
 311:src/MyName.c  **** 
 312:src/MyName.c  ****   UINTN MinY = SCREEN_MARGIN + HalfDim;
 313:src/MyName.c  ****   // Restamos 50 extra abajo para proteger la barra de instrucciones
 314:src/MyName.c  ****   UINTN MaxY = (Ctx->Height > (SCREEN_MARGIN + HalfDim + 50)) ? (Ctx->Height - SCREEN_MARGIN - Half
 315:src/MyName.c  **** 
 316:src/MyName.c  ****   UINTN RangeX = (MaxX > MinX) ? (MaxX - MinX) : 1;
 317:src/MyName.c  ****   UINTN RangeY = (MaxY > MinY) ? (MaxY - MinY) : 1;
 318:src/MyName.c  **** 
 319:src/MyName.c  ****   // 2. SOLUCIÓN AL "FALSO RANDOM" (Generador pseudoaleatorio con estado estático)
 320:src/MyName.c  ****   STATIC UINT32 RngState = 0;
 321:src/MyName.c  **** 
 322:src/MyName.c  ****   // Inicializar la semilla solo la primera vez que arranca el bootloader
 323:src/MyName.c  ****   if (RngState == 0)
 324:src/MyName.c  ****   {
 325:src/MyName.c  ****     EFI_TIME Now;
 326:src/MyName.c  ****     if (!EFI_ERROR(RT->GetTime(&Now, NULL)))
 327:src/MyName.c  ****     {
 328:src/MyName.c  ****       // Mezclamos todas las variables de tiempo usando XOR para mayor entropía
 329:src/MyName.c  ****       RngState = Now.Nanosecond ^ (Now.Second << 8) ^ (Now.Minute << 16) ^ (Now.Hour << 24) ^ 0x1A2
 330:src/MyName.c  ****     }
 331:src/MyName.c  ****     // Si por alguna razón UEFI falla en dar la hora, usamos una semilla por defecto
 332:src/MyName.c  ****     if (RngState == 0) RngState = 0x9E3779B9; 
 333:src/MyName.c  ****   }
 334:src/MyName.c  **** 
 335:src/MyName.c  ****   // Avanzamos la fórmula matemática para obtener el X
 336:src/MyName.c  ****   RngState = (RngState * 1103515245 + 12345) & 0x7FFFFFFF;
 337:src/MyName.c  ****   UINT32 RandX = RngState;
 338:src/MyName.c  **** 
 339:src/MyName.c  ****   // Avanzamos la fórmula de nuevo para obtener el Y
 340:src/MyName.c  ****   RngState = (RngState * 1103515245 + 12345) & 0x7FFFFFFF;
 341:src/MyName.c  ****   UINT32 RandY = RngState;
 342:src/MyName.c  **** 
 343:src/MyName.c  ****   *OutX = (INTN)(MinX + (RandX % RangeX));
 344:src/MyName.c  ****   *OutY = (INTN)(MinY + (RandY % RangeY));
 345:src/MyName.c  **** }
 346:src/MyName.c  **** 
 347:src/MyName.c  **** STATIC UINTN AsciiLen(const CHAR8 *Str)
 348:src/MyName.c  **** {
  81              		.loc 1 348 1 is_stmt 1 view -0
  82              		.cfi_startproc
  83              		.loc 1 348 1 is_stmt 0 view .LVU21
  84 005f F30F1EFA 		endbr64
 349:src/MyName.c  ****   UINTN Len = 0;
  85              		.loc 1 349 3 is_stmt 1 view .LVU22
  86              	.LVL7:
 350:src/MyName.c  ****   while(Str[Len] != '\0')
  87              		.loc 1 350 3 view .LVU23
 349:src/MyName.c  ****   UINTN Len = 0;
  88              		.loc 1 349 9 is_stmt 0 view .LVU24
  89 0063 B8000000 		movl	$0, %eax
  89      00
  90              		.loc 1 350 8 view .LVU25
  91 0068 EB04     		jmp	.L10
  92              	.LVL8:
  93              	.L11:
 351:src/MyName.c  ****   {
 352:src/MyName.c  ****     Len++;
  94              		.loc 1 352 5 is_stmt 1 view .LVU26
  95              		.loc 1 352 8 is_stmt 0 view .LVU27
  96 006a 4883C001 		addq	$1, %rax
  97              	.LVL9:
  98              	.L10:
 350:src/MyName.c  ****   while(Str[Len] != '\0')
  99              		.loc 1 350 18 is_stmt 1 view .LVU28
 100 006e 803C0700 		cmpb	$0, (%rdi,%rax)
 101 0072 75F6     		jne	.L11
 353:src/MyName.c  ****   }
 354:src/MyName.c  ****   return Len;
 102              		.loc 1 354 3 view .LVU29
 355:src/MyName.c  **** }
 103              		.loc 1 355 1 is_stmt 0 view .LVU30
 104 0074 C3       		ret
 105              		.cfi_endproc
 106              	.LFE6:
 108              		.globl	MeasureText5x7
 110              	MeasureText5x7:
 111              	.LVL10:
 112              	.LFB7:
 356:src/MyName.c  **** 
 357:src/MyName.c  **** STATIC TEXT_EXTENTS MeasureText5x7(const CHAR8 *Text, UINTN Scale, MYNAME_TRANSFORM Transform)
 358:src/MyName.c  **** {
 113              		.loc 1 358 1 is_stmt 1 view -0
 114              		.cfi_startproc
 115              		.loc 1 358 1 is_stmt 0 view .LVU32
 116 0075 F30F1EFA 		endbr64
 117 0079 55       		pushq	%rbp
 118              		.cfi_def_cfa_offset 16
 119              		.cfi_offset 6, -16
 120 007a 53       		pushq	%rbx
 121              		.cfi_def_cfa_offset 24
 122              		.cfi_offset 3, -24
 123 007b 4883EC08 		subq	$8, %rsp
 124              		.cfi_def_cfa_offset 32
 125 007f 4889F5   		movq	%rsi, %rbp
 126 0082 89D3     		movl	%edx, %ebx
 359:src/MyName.c  ****   TEXT_EXTENTS T;
 127              		.loc 1 359 3 is_stmt 1 view .LVU33
 360:src/MyName.c  ****   UINTN Len = AsciiLen(Text);
 128              		.loc 1 360 3 view .LVU34
 129              		.loc 1 360 15 is_stmt 0 view .LVU35
 130 0084 E8000000 		call	AsciiLen
 130      00
 131              	.LVL11:
 361:src/MyName.c  **** 
 362:src/MyName.c  ****   UINTN BaseW = 0;
 132              		.loc 1 362 3 is_stmt 1 view .LVU36
 363:src/MyName.c  ****   UINTN BaseH = 7 * Scale;
 133              		.loc 1 363 3 view .LVU37
 134              		.loc 1 363 9 is_stmt 0 view .LVU38
 135 0089 488D14ED 		leaq	0(,%rbp,8), %rdx
 135      00000000 
 136 0091 4829EA   		subq	%rbp, %rdx
 137              	.LVL12:
 364:src/MyName.c  **** 
 365:src/MyName.c  ****   if(Len > 0)
 138              		.loc 1 365 3 is_stmt 1 view .LVU39
 139              		.loc 1 365 5 is_stmt 0 view .LVU40
 140 0094 4885C0   		testq	%rax, %rax
 141 0097 7417     		je	.L13
 366:src/MyName.c  ****   {
 367:src/MyName.c  ****     BaseW = Len * (5 * Scale) + (Len - 1) * (LETTER_SPACING * Scale);
 142              		.loc 1 367 5 is_stmt 1 view .LVU41
 143              		.loc 1 367 17 is_stmt 0 view .LVU42
 144 0099 4889C1   		movq	%rax, %rcx
 145 009c 480FAFCD 		imulq	%rbp, %rcx
 146 00a0 488D0C89 		leaq	(%rcx,%rcx,4), %rcx
 147              		.loc 1 367 38 view .LVU43
 148 00a4 4883E801 		subq	$1, %rax
 149              	.LVL13:
 150              		.loc 1 367 43 view .LVU44
 151 00a8 480FAFC5 		imulq	%rbp, %rax
 152              	.LVL14:
 153              		.loc 1 367 11 view .LVU45
 154 00ac 488D0441 		leaq	(%rcx,%rax,2), %rax
 155              	.LVL15:
 156              	.L13:
 368:src/MyName.c  ****   }
 369:src/MyName.c  **** 
 370:src/MyName.c  ****   if(Transform == TRANSFORM_ROT_LEFT_90 || Transform == TRANSFORM_ROT_RIGHT_90)
 157              		.loc 1 370 3 is_stmt 1 view .LVU46
 158              		.loc 1 370 41 is_stmt 0 view .LVU47
 159 00b0 83EB01   		subl	$1, %ebx
 160              	.LVL16:
 161              		.loc 1 370 5 view .LVU48
 162 00b3 83FB01   		cmpl	$1, %ebx
 163 00b6 760D     		jbe	.L17
 371:src/MyName.c  ****   {
 372:src/MyName.c  ****     T.Width = BaseH;
 373:src/MyName.c  ****     T.Height = BaseW;
 374:src/MyName.c  ****   }
 375:src/MyName.c  ****   else
 376:src/MyName.c  ****   {
 377:src/MyName.c  ****     T.Width = BaseW;
 164              		.loc 1 377 5 is_stmt 1 view .LVU49
 165              		.loc 1 377 13 is_stmt 0 view .LVU50
 166 00b8 4889C1   		movq	%rax, %rcx
 167              	.LVL17:
 378:src/MyName.c  ****     T.Height = BaseH;
 168              		.loc 1 378 5 is_stmt 1 view .LVU51
 169              	.L15:
 379:src/MyName.c  ****   }
 380:src/MyName.c  **** 
 381:src/MyName.c  ****   return T;
 170              		.loc 1 381 3 view .LVU52
 382:src/MyName.c  **** }
 171              		.loc 1 382 1 is_stmt 0 view .LVU53
 172 00bb 4889C8   		movq	%rcx, %rax
 173              	.LVL18:
 174              		.loc 1 382 1 view .LVU54
 175 00be 4883C408 		addq	$8, %rsp
 176              		.cfi_remember_state
 177              		.cfi_def_cfa_offset 24
 178 00c2 5B       		popq	%rbx
 179              		.cfi_restore 3
 180              		.cfi_def_cfa_offset 16
 181              	.LVL19:
 182              		.loc 1 382 1 view .LVU55
 183 00c3 5D       		popq	%rbp
 184              		.cfi_restore 6
 185              		.cfi_def_cfa_offset 8
 186              	.LVL20:
 187              		.loc 1 382 1 view .LVU56
 188 00c4 C3       		ret
 189              	.LVL21:
 190              	.L17:
 191              		.cfi_restore_state
 372:src/MyName.c  ****     T.Height = BaseW;
 192              		.loc 1 372 5 is_stmt 1 view .LVU57
 372:src/MyName.c  ****     T.Height = BaseW;
 193              		.loc 1 372 13 is_stmt 0 view .LVU58
 194 00c5 4889D1   		movq	%rdx, %rcx
 373:src/MyName.c  ****   }
 195              		.loc 1 373 5 is_stmt 1 view .LVU59
 373:src/MyName.c  ****   }
 196              		.loc 1 373 14 is_stmt 0 view .LVU60
 197 00c8 4889C2   		movq	%rax, %rdx
 198              	.LVL22:
 373:src/MyName.c  ****   }
 199              		.loc 1 373 14 view .LVU61
 200 00cb EBEE     		jmp	.L15
 201              		.cfi_endproc
 202              	.LFE7:
 204              		.globl	GetRandomPosition
 206              	GetRandomPosition:
 207              	.LVL23:
 208              	.LFB5:
 293:src/MyName.c  ****   // 1. SOLUCIÓN AL SALTO RARO AL ROTAR (Bounding Box Máximo)
 209              		.loc 1 293 1 is_stmt 1 view -0
 210              		.cfi_startproc
 293:src/MyName.c  ****   // 1. SOLUCIÓN AL SALTO RARO AL ROTAR (Bounding Box Máximo)
 211              		.loc 1 293 1 is_stmt 0 view .LVU63
 212 00cd F30F1EFA 		endbr64
 213 00d1 4157     		pushq	%r15
 214              		.cfi_def_cfa_offset 16
 215              		.cfi_offset 15, -16
 216 00d3 4156     		pushq	%r14
 217              		.cfi_def_cfa_offset 24
 218              		.cfi_offset 14, -24
 219 00d5 4155     		pushq	%r13
 220              		.cfi_def_cfa_offset 32
 221              		.cfi_offset 13, -32
 222 00d7 4154     		pushq	%r12
 223              		.cfi_def_cfa_offset 40
 224              		.cfi_offset 12, -40
 225 00d9 55       		pushq	%rbp
 226              		.cfi_def_cfa_offset 48
 227              		.cfi_offset 6, -48
 228 00da 53       		pushq	%rbx
 229              		.cfi_def_cfa_offset 56
 230              		.cfi_offset 3, -56
 231 00db 4883EC38 		subq	$56, %rsp
 232              		.cfi_def_cfa_offset 112
 233 00df 4889FD   		movq	%rdi, %rbp
 234 00e2 4889F7   		movq	%rsi, %rdi
 235              	.LVL24:
 293:src/MyName.c  ****   // 1. SOLUCIÓN AL SALTO RARO AL ROTAR (Bounding Box Máximo)
 236              		.loc 1 293 1 view .LVU64
 237 00e5 4989D7   		movq	%rdx, %r15
 238 00e8 4989CE   		movq	%rcx, %r14
 239 00eb 4D89CD   		movq	%r9, %r13
 296:src/MyName.c  ****   TEXT_EXTENTS T2 = MeasureText5x7(Name2, Scale, TRANSFORM_NORMAL);
 240              		.loc 1 296 3 is_stmt 1 view .LVU65
 296:src/MyName.c  ****   TEXT_EXTENTS T2 = MeasureText5x7(Name2, Scale, TRANSFORM_NORMAL);
 241              		.loc 1 296 21 is_stmt 0 view .LVU66
 242 00ee BA000000 		movl	$0, %edx
 242      00
 243              	.LVL25:
 296:src/MyName.c  ****   TEXT_EXTENTS T2 = MeasureText5x7(Name2, Scale, TRANSFORM_NORMAL);
 244              		.loc 1 296 21 view .LVU67
 245 00f3 4889CE   		movq	%rcx, %rsi
 246              	.LVL26:
 296:src/MyName.c  ****   TEXT_EXTENTS T2 = MeasureText5x7(Name2, Scale, TRANSFORM_NORMAL);
 247              		.loc 1 296 21 view .LVU68
 248 00f6 E8000000 		call	MeasureText5x7
 248      00
 249              	.LVL27:
 296:src/MyName.c  ****   TEXT_EXTENTS T2 = MeasureText5x7(Name2, Scale, TRANSFORM_NORMAL);
 250              		.loc 1 296 21 view .LVU69
 251 00fb 4889C3   		movq	%rax, %rbx
 252              	.LVL28:
 296:src/MyName.c  ****   TEXT_EXTENTS T2 = MeasureText5x7(Name2, Scale, TRANSFORM_NORMAL);
 253              		.loc 1 296 21 view .LVU70
 254 00fe 4989D4   		movq	%rdx, %r12
 297:src/MyName.c  **** 
 255              		.loc 1 297 3 is_stmt 1 view .LVU71
 297:src/MyName.c  **** 
 256              		.loc 1 297 21 is_stmt 0 view .LVU72
 257 0101 BA000000 		movl	$0, %edx
 257      00
 258 0106 4C89F6   		movq	%r14, %rsi
 259 0109 4C89FF   		movq	%r15, %rdi
 260 010c E8000000 		call	MeasureText5x7
 260      00
 261              	.LVL29:
 299:src/MyName.c  ****   UINTN NormalH = T1.Height + NAME_GAP + T2.Height;
 262              		.loc 1 299 3 is_stmt 1 view .LVU73
 299:src/MyName.c  ****   UINTN NormalH = T1.Height + NAME_GAP + T2.Height;
 263              		.loc 1 299 9 is_stmt 0 view .LVU74
 264 0111 4839D8   		cmpq	%rbx, %rax
 265 0114 480F42C3 		cmovb	%rbx, %rax
 266              	.LVL30:
 300:src/MyName.c  **** 
 267              		.loc 1 300 3 is_stmt 1 view .LVU75
 300:src/MyName.c  **** 
 268              		.loc 1 300 9 is_stmt 0 view .LVU76
 269 0118 498D5414 		leaq	18(%r12,%rdx), %rdx
 269      12
 270              	.LVL31:
 304:src/MyName.c  ****   UINTN HalfDim = MaxDim / 2;
 271              		.loc 1 304 3 is_stmt 1 view .LVU77
 304:src/MyName.c  ****   UINTN HalfDim = MaxDim / 2;
 272              		.loc 1 304 9 is_stmt 0 view .LVU78
 273 011d 4839D0   		cmpq	%rdx, %rax
 274 0120 480F42C2 		cmovb	%rdx, %rax
 275              	.LVL32:
 305:src/MyName.c  **** 
 276              		.loc 1 305 3 is_stmt 1 view .LVU79
 305:src/MyName.c  **** 
 277              		.loc 1 305 9 is_stmt 0 view .LVU80
 278 0124 48D1E8   		shrq	%rax
 279              	.LVL33:
 309:src/MyName.c  ****   UINTN MaxX = (Ctx->Width > (SCREEN_MARGIN + HalfDim)) ? (Ctx->Width - SCREEN_MARGIN - HalfDim) : 
 280              		.loc 1 309 3 is_stmt 1 view .LVU81
 309:src/MyName.c  ****   UINTN MaxX = (Ctx->Width > (SCREEN_MARGIN + HalfDim)) ? (Ctx->Width - SCREEN_MARGIN - HalfDim) : 
 281              		.loc 1 309 9 is_stmt 0 view .LVU82
 282 0127 488D5810 		leaq	16(%rax), %rbx
 283              	.LVL34:
 310:src/MyName.c  **** 
 284              		.loc 1 310 3 is_stmt 1 view .LVU83
 310:src/MyName.c  **** 
 285              		.loc 1 310 20 is_stmt 0 view .LVU84
 286 012b 8B5500   		movl	0(%rbp), %edx
 287              	.LVL35:
 310:src/MyName.c  **** 
 288              		.loc 1 310 20 view .LVU85
 289 012e 89D1     		movl	%edx, %ecx
 310:src/MyName.c  **** 
 290              		.loc 1 310 98 view .LVU86
 291 0130 4839CB   		cmpq	%rcx, %rbx
 292 0133 7376     		jnb	.L24
 310:src/MyName.c  **** 
 293              		.loc 1 310 71 discriminator 1 view .LVU87
 294 0135 448D62F0 		leal	-16(%rdx), %r12d
 310:src/MyName.c  **** 
 295              		.loc 1 310 98 discriminator 1 view .LVU88
 296 0139 4929C4   		subq	%rax, %r12
 297              	.L19:
 298              	.LVL36:
 312:src/MyName.c  ****   // Restamos 50 extra abajo para proteger la barra de instrucciones
 299              		.loc 1 312 3 is_stmt 1 view .LVU89
 314:src/MyName.c  **** 
 300              		.loc 1 314 3 view .LVU90
 314:src/MyName.c  **** 
 301              		.loc 1 314 20 is_stmt 0 view .LVU91
 302 013c 8B5504   		movl	4(%rbp), %edx
 303 013f 89D1     		movl	%edx, %ecx
 314:src/MyName.c  **** 
 304              		.loc 1 314 56 view .LVU92
 305 0141 488D7042 		leaq	66(%rax), %rsi
 314:src/MyName.c  **** 
 306              		.loc 1 314 110 view .LVU93
 307 0145 4839CE   		cmpq	%rcx, %rsi
 308 0148 7366     		jnb	.L25
 314:src/MyName.c  **** 
 309              		.loc 1 314 78 discriminator 1 view .LVU94
 310 014a 8D6AF0   		leal	-16(%rdx), %ebp
 311              	.LVL37:
 314:src/MyName.c  **** 
 312              		.loc 1 314 94 discriminator 1 view .LVU95
 313 014d 4829C5   		subq	%rax, %rbp
 314:src/MyName.c  **** 
 314              		.loc 1 314 110 discriminator 1 view .LVU96
 315 0150 4883ED32 		subq	$50, %rbp
 316              	.L20:
 317              	.LVL38:
 316:src/MyName.c  ****   UINTN RangeY = (MaxY > MinY) ? (MaxY - MinY) : 1;
 318              		.loc 1 316 3 is_stmt 1 view .LVU97
 316:src/MyName.c  ****   UINTN RangeY = (MaxY > MinY) ? (MaxY - MinY) : 1;
 319              		.loc 1 316 48 is_stmt 0 view .LVU98
 320 0154 4C39E3   		cmpq	%r12, %rbx
 321 0157 735C     		jnb	.L26
 316:src/MyName.c  ****   UINTN RangeY = (MaxY > MinY) ? (MaxY - MinY) : 1;
 322              		.loc 1 316 48 discriminator 1 view .LVU99
 323 0159 4929DC   		subq	%rbx, %r12
 324              	.LVL39:
 325              	.L21:
 317:src/MyName.c  **** 
 326              		.loc 1 317 3 is_stmt 1 view .LVU100
 317:src/MyName.c  **** 
 327              		.loc 1 317 48 is_stmt 0 view .LVU101
 328 015c 4839EB   		cmpq	%rbp, %rbx
 329 015f 735C     		jnb	.L27
 317:src/MyName.c  **** 
 330              		.loc 1 317 48 discriminator 1 view .LVU102
 331 0161 4829DD   		subq	%rbx, %rbp
 332              	.LVL40:
 333              	.L22:
 320:src/MyName.c  **** 
 334              		.loc 1 320 10 is_stmt 1 view .LVU103
 323:src/MyName.c  ****   {
 335              		.loc 1 323 3 view .LVU104
 336              	.LBB2:
 325:src/MyName.c  ****     if (!EFI_ERROR(RT->GetTime(&Now, NULL)))
 337              		.loc 1 325 5 view .LVU105
 326:src/MyName.c  ****     {
 338              		.loc 1 326 5 view .LVU106
 326:src/MyName.c  ****     {
 339              		.loc 1 326 10 is_stmt 0 view .LVU107
 340 0164 488D4C24 		leaq	32(%rsp), %rcx
 340      20
 341 0169 BA000000 		movl	$0, %edx
 341      00
 342 016e 488B0500 		movq	RT(%rip), %rax
 342      000000
 343              	.LVL41:
 326:src/MyName.c  ****     {
 344              		.loc 1 326 10 view .LVU108
 345 0175 FF5018   		call	*24(%rax)
 346              	.LVL42:
 326:src/MyName.c  ****     {
 347              		.loc 1 326 8 discriminator 1 view .LVU109
 348 0178 4885C0   		testq	%rax, %rax
 349 017b 7847     		js	.L28
 329:src/MyName.c  ****     }
 350              		.loc 1 329 7 is_stmt 1 view .LVU110
 329:src/MyName.c  ****     }
 351              		.loc 1 329 47 is_stmt 0 view .LVU111
 352 017d 0FB64424 		movzbl	38(%rsp), %eax
 352      26
 353 0182 C1E008   		sall	$8, %eax
 329:src/MyName.c  ****     }
 354              		.loc 1 329 33 view .LVU112
 355 0185 33442428 		xorl	40(%rsp), %eax
 329:src/MyName.c  ****     }
 356              		.loc 1 329 67 view .LVU113
 357 0189 0FB65424 		movzbl	37(%rsp), %edx
 357      25
 358 018e C1E210   		sall	$16, %edx
 329:src/MyName.c  ****     }
 359              		.loc 1 329 53 view .LVU114
 360 0191 31D0     		xorl	%edx, %eax
 329:src/MyName.c  ****     }
 361              		.loc 1 329 86 view .LVU115
 362 0193 0FB65424 		movzbl	36(%rsp), %edx
 362      24
 363 0198 C1E218   		sall	$24, %edx
 329:src/MyName.c  ****     }
 364              		.loc 1 329 74 view .LVU116
 365 019b 31D0     		xorl	%edx, %eax
 366              	.LVL43:
 332:src/MyName.c  ****   }
 367              		.loc 1 332 5 is_stmt 1 view .LVU117
 332:src/MyName.c  ****   }
 368              		.loc 1 332 8 is_stmt 0 view .LVU118
 369 019d 354D3C2B 		xorl	$439041101, %eax
 369      1A
 370              	.LVL44:
 332:src/MyName.c  ****   }
 371              		.loc 1 332 8 view .LVU119
 372 01a2 7525     		jne	.L23
 332:src/MyName.c  ****   }
 373              		.loc 1 332 33 discriminator 1 view .LVU120
 374 01a4 B8B97937 		movl	$-1640531527, %eax
 374      9E
 375              	.LVL45:
 332:src/MyName.c  ****   }
 376              		.loc 1 332 33 discriminator 1 view .LVU121
 377 01a9 EB1E     		jmp	.L23
 378              	.LVL46:
 379              	.L24:
 332:src/MyName.c  ****   }
 380              		.loc 1 332 33 discriminator 1 view .LVU122
 381              	.LBE2:
 310:src/MyName.c  **** 
 382              		.loc 1 310 98 discriminator 2 view .LVU123
 383 01ab 4989DC   		movq	%rbx, %r12
 310:src/MyName.c  **** 
 384              		.loc 1 310 98 discriminator 2 view .LVU124
 385 01ae EB8C     		jmp	.L19
 386              	.LVL47:
 387              	.L25:
 314:src/MyName.c  **** 
 388              		.loc 1 314 110 discriminator 2 view .LVU125
 389 01b0 4889DD   		movq	%rbx, %rbp
 390              	.LVL48:
 314:src/MyName.c  **** 
 391              		.loc 1 314 110 discriminator 2 view .LVU126
 392 01b3 EB9F     		jmp	.L20
 393              	.LVL49:
 394              	.L26:
 316:src/MyName.c  ****   UINTN RangeY = (MaxY > MinY) ? (MaxY - MinY) : 1;
 395              		.loc 1 316 48 discriminator 2 view .LVU127
 396 01b5 41BC0100 		movl	$1, %r12d
 396      0000
 397              	.LVL50:
 316:src/MyName.c  ****   UINTN RangeY = (MaxY > MinY) ? (MaxY - MinY) : 1;
 398              		.loc 1 316 48 discriminator 2 view .LVU128
 399 01bb EB9F     		jmp	.L21
 400              	.LVL51:
 401              	.L27:
 317:src/MyName.c  **** 
 402              		.loc 1 317 48 discriminator 2 view .LVU129
 403 01bd BD010000 		movl	$1, %ebp
 403      00
 404              	.LVL52:
 317:src/MyName.c  **** 
 405              		.loc 1 317 48 discriminator 2 view .LVU130
 406 01c2 EBA0     		jmp	.L22
 407              	.LVL53:
 408              	.L28:
 409              	.LBB3:
 332:src/MyName.c  ****   }
 410              		.loc 1 332 33 discriminator 1 view .LVU131
 411 01c4 B8B97937 		movl	$-1640531527, %eax
 411      9E
 412              	.LVL54:
 413              	.L23:
 332:src/MyName.c  ****   }
 414              		.loc 1 332 33 discriminator 1 view .LVU132
 415              	.LBE3:
 336:src/MyName.c  ****   UINT32 RandX = RngState;
 416              		.loc 1 336 3 is_stmt 1 view .LVU133
 336:src/MyName.c  ****   UINT32 RandX = RngState;
 417              		.loc 1 336 24 is_stmt 0 view .LVU134
 418 01c9 69C06D4E 		imull	$1103515245, %eax, %eax
 418      C641
 419              	.LVL55:
 336:src/MyName.c  ****   UINT32 RandX = RngState;
 420              		.loc 1 336 37 view .LVU135
 421 01cf 05393000 		addl	$12345, %eax
 421      00
 336:src/MyName.c  ****   UINT32 RandX = RngState;
 422              		.loc 1 336 12 view .LVU136
 423 01d4 25FFFFFF 		andl	$2147483647, %eax
 423      7F
 424 01d9 89C2     		movl	%eax, %edx
 425              	.LVL56:
 337:src/MyName.c  **** 
 426              		.loc 1 337 3 is_stmt 1 view .LVU137
 340:src/MyName.c  ****   UINT32 RandY = RngState;
 427              		.loc 1 340 3 view .LVU138
 340:src/MyName.c  ****   UINT32 RandY = RngState;
 428              		.loc 1 340 24 is_stmt 0 view .LVU139
 429 01db 69C06D4E 		imull	$1103515245, %eax, %eax
 429      C641
 430              	.LVL57:
 340:src/MyName.c  ****   UINT32 RandY = RngState;
 431              		.loc 1 340 37 view .LVU140
 432 01e1 8D883930 		leal	12345(%rax), %ecx
 432      0000
 433              	.LVL58:
 341:src/MyName.c  **** 
 434              		.loc 1 341 3 is_stmt 1 view .LVU141
 343:src/MyName.c  ****   *OutY = (INTN)(MinY + (RandY % RangeY));
 435              		.loc 1 343 3 view .LVU142
 343:src/MyName.c  ****   *OutY = (INTN)(MinY + (RandY % RangeY));
 436              		.loc 1 343 32 is_stmt 0 view .LVU143
 437 01e7 89D0     		movl	%edx, %eax
 438 01e9 BA000000 		movl	$0, %edx
 438      00
 439              	.LVL59:
 343:src/MyName.c  ****   *OutY = (INTN)(MinY + (RandY % RangeY));
 440              		.loc 1 343 32 view .LVU144
 441 01ee 49F7F4   		divq	%r12
 442              	.LVL60:
 343:src/MyName.c  ****   *OutY = (INTN)(MinY + (RandY % RangeY));
 443              		.loc 1 343 23 view .LVU145
 444 01f1 4801DA   		addq	%rbx, %rdx
 343:src/MyName.c  ****   *OutY = (INTN)(MinY + (RandY % RangeY));
 445              		.loc 1 343 9 view .LVU146
 446 01f4 49895500 		movq	%rdx, 0(%r13)
 344:src/MyName.c  **** }
 447              		.loc 1 344 3 is_stmt 1 view .LVU147
 344:src/MyName.c  **** }
 448              		.loc 1 344 32 is_stmt 0 view .LVU148
 449 01f8 89C8     		movl	%ecx, %eax
 450 01fa 25FFFFFF 		andl	$2147483647, %eax
 450      7F
 451 01ff BA000000 		movl	$0, %edx
 451      00
 452 0204 48F7F5   		divq	%rbp
 344:src/MyName.c  **** }
 453              		.loc 1 344 23 view .LVU149
 454 0207 4801DA   		addq	%rbx, %rdx
 344:src/MyName.c  **** }
 455              		.loc 1 344 9 view .LVU150
 456 020a 488B4424 		movq	112(%rsp), %rax
 456      70
 457 020f 488910   		movq	%rdx, (%rax)
 345:src/MyName.c  **** 
 458              		.loc 1 345 1 view .LVU151
 459 0212 4883C438 		addq	$56, %rsp
 460              		.cfi_def_cfa_offset 56
 461 0216 5B       		popq	%rbx
 462              		.cfi_restore 3
 463              		.cfi_def_cfa_offset 48
 464              	.LVL61:
 345:src/MyName.c  **** 
 465              		.loc 1 345 1 view .LVU152
 466 0217 5D       		popq	%rbp
 467              		.cfi_restore 6
 468              		.cfi_def_cfa_offset 40
 469              	.LVL62:
 345:src/MyName.c  **** 
 470              		.loc 1 345 1 view .LVU153
 471 0218 415C     		popq	%r12
 472              		.cfi_restore 12
 473              		.cfi_def_cfa_offset 32
 474              	.LVL63:
 345:src/MyName.c  **** 
 475              		.loc 1 345 1 view .LVU154
 476 021a 415D     		popq	%r13
 477              		.cfi_restore 13
 478              		.cfi_def_cfa_offset 24
 479              	.LVL64:
 345:src/MyName.c  **** 
 480              		.loc 1 345 1 view .LVU155
 481 021c 415E     		popq	%r14
 482              		.cfi_restore 14
 483              		.cfi_def_cfa_offset 16
 484              	.LVL65:
 345:src/MyName.c  **** 
 485              		.loc 1 345 1 view .LVU156
 486 021e 415F     		popq	%r15
 487              		.cfi_restore 15
 488              		.cfi_def_cfa_offset 8
 489              	.LVL66:
 345:src/MyName.c  **** 
 490              		.loc 1 345 1 view .LVU157
 491 0220 C3       		ret
 492              		.cfi_endproc
 493              	.LFE5:
 495              		.globl	FindGlyph
 497              	FindGlyph:
 498              	.LVL67:
 499              	.LFB8:
 383:src/MyName.c  **** 
 384:src/MyName.c  **** STATIC const FONT5X7 *FindGlyph(CHAR8 Ch)
 385:src/MyName.c  **** {
 500              		.loc 1 385 1 is_stmt 1 view -0
 501              		.cfi_startproc
 502              		.loc 1 385 1 is_stmt 0 view .LVU159
 503 0221 F30F1EFA 		endbr64
 504 0225 89F9     		movl	%edi, %ecx
 386:src/MyName.c  ****   if(Ch >= 'a' && Ch <= 'z')
 505              		.loc 1 386 3 is_stmt 1 view .LVU160
 506              		.loc 1 386 16 is_stmt 0 view .LVU161
 507 0227 8D479F   		leal	-97(%rdi), %eax
 508              		.loc 1 386 5 view .LVU162
 509 022a 3C19     		cmpb	$25, %al
 510 022c 7703     		ja	.L32
 387:src/MyName.c  ****   {
 388:src/MyName.c  ****     Ch = (CHAR8)(Ch - ('a' - 'A'));
 511              		.loc 1 388 5 is_stmt 1 view .LVU163
 512              		.loc 1 388 8 is_stmt 0 view .LVU164
 513 022e 8D4FE0   		leal	-32(%rdi), %ecx
 514              	.LVL68:
 515              	.L32:
 389:src/MyName.c  ****   }
 390:src/MyName.c  **** 
 391:src/MyName.c  ****   for(UINTN i = 0; FontTable[i].c != '\0'; i++)
 516              		.loc 1 391 3 is_stmt 1 view .LVU165
 517              	.LBB4:
 518              		.loc 1 391 7 view .LVU166
 519              		.loc 1 391 13 is_stmt 0 view .LVU167
 520 0231 B8000000 		movl	$0, %eax
 520      00
 521              		.loc 1 391 3 view .LVU168
 522 0236 EB04     		jmp	.L33
 523              	.LVL69:
 524              	.L34:
 525              		.loc 1 391 45 is_stmt 1 discriminator 2 view .LVU169
 526 0238 4883C001 		addq	$1, %rax
 527              	.LVL70:
 528              	.L33:
 529              		.loc 1 391 35 discriminator 1 view .LVU170
 530              		.loc 1 391 32 is_stmt 0 discriminator 1 view .LVU171
 531 023c 488D1500 		leaq	FontTable(%rip), %rdx
 531      000000
 532 0243 0FB614C2 		movzbl	(%rdx,%rax,8), %edx
 533              		.loc 1 391 35 discriminator 1 view .LVU172
 534 0247 84D2     		testb	%dl, %dl
 535 0249 7410     		je	.L41
 392:src/MyName.c  ****   {
 393:src/MyName.c  ****     if(FontTable[i].c == Ch)
 536              		.loc 1 393 5 is_stmt 1 view .LVU173
 537              		.loc 1 393 7 is_stmt 0 view .LVU174
 538 024b 38CA     		cmpb	%cl, %dl
 539 024d 75E9     		jne	.L34
 394:src/MyName.c  ****     {
 395:src/MyName.c  ****       return &FontTable[i];
 540              		.loc 1 395 7 is_stmt 1 view .LVU175
 541              		.loc 1 395 14 is_stmt 0 view .LVU176
 542 024f 488D1500 		leaq	FontTable(%rip), %rdx
 542      000000
 543 0256 488D04C2 		leaq	(%rdx,%rax,8), %rax
 544              	.LVL71:
 545              		.loc 1 395 14 view .LVU177
 546              	.LBE4:
 396:src/MyName.c  ****     }
 397:src/MyName.c  ****   }
 398:src/MyName.c  **** 
 399:src/MyName.c  ****   return FindGlyph(' ');
 400:src/MyName.c  **** }
 547              		.loc 1 400 1 view .LVU178
 548 025a C3       		ret
 549              	.LVL72:
 550              	.L41:
 385:src/MyName.c  ****   if(Ch >= 'a' && Ch <= 'z')
 551              		.loc 1 385 1 view .LVU179
 552 025b 4883EC08 		subq	$8, %rsp
 553              		.cfi_def_cfa_offset 16
 399:src/MyName.c  **** }
 554              		.loc 1 399 3 is_stmt 1 view .LVU180
 399:src/MyName.c  **** }
 555              		.loc 1 399 10 is_stmt 0 view .LVU181
 556 025f BF200000 		movl	$32, %edi
 556      00
 557 0264 E8000000 		call	FindGlyph
 557      00
 558              	.LVL73:
 559              		.loc 1 400 1 view .LVU182
 560 0269 4883C408 		addq	$8, %rsp
 561              		.cfi_def_cfa_offset 8
 562 026d C3       		ret
 563              		.cfi_endproc
 564              	.LFE8:
 566              		.globl	PackColor
 568              	PackColor:
 569              	.LVL74:
 570              	.LFB14:
 401:src/MyName.c  **** 
 402:src/MyName.c  **** STATIC VOID DrawText5x7(const DRAW_CONTEXT *Ctx, const CHAR8 *Text, INTN X, INTN Y, UINTN Scale, MY
 403:src/MyName.c  **** {
 404:src/MyName.c  ****   INTN CursorX = X;
 405:src/MyName.c  ****   INTN CursorY = Y;
 406:src/MyName.c  **** 
 407:src/MyName.c  ****   TEXT_EXTENTS GlyphSize = MeasureText5x7("A", Scale, Transform);
 408:src/MyName.c  **** 
 409:src/MyName.c  ****   for(UINTN i = 0; Text[i] != '\0'; i++)
 410:src/MyName.c  ****   {
 411:src/MyName.c  ****     DrawGlyph5x7(Ctx, Text[i], CursorX, CursorY, Scale, Transform, R, G, B);
 412:src/MyName.c  **** 
 413:src/MyName.c  ****       if(Transform == TRANSFORM_ROT_LEFT_90)
 414:src/MyName.c  ****       {
 415:src/MyName.c  ****           CursorY -= (INTN)GlyphSize.Height + (INTN)(LETTER_SPACING * Scale);
 416:src/MyName.c  ****       }
 417:src/MyName.c  ****       else if(Transform == TRANSFORM_ROT_RIGHT_90)
 418:src/MyName.c  ****       {
 419:src/MyName.c  ****           CursorY += (INTN)GlyphSize.Height + (INTN)(LETTER_SPACING * Scale);
 420:src/MyName.c  ****       }
 421:src/MyName.c  ****       else
 422:src/MyName.c  ****       {
 423:src/MyName.c  ****           CursorX += (INTN)(5 * Scale) + (INTN)(LETTER_SPACING * Scale);
 424:src/MyName.c  ****       }
 425:src/MyName.c  ****   }
 426:src/MyName.c  **** }
 427:src/MyName.c  **** 
 428:src/MyName.c  **** STATIC VOID DrawGlyph5x7(const DRAW_CONTEXT *Ctx, CHAR8 Ch, INTN X, INTN Y, UINTN Scale, MYNAME_TRA
 429:src/MyName.c  **** {
 430:src/MyName.c  ****   const FONT5X7 *Glyph = FindGlyph(Ch);
 431:src/MyName.c  ****   if(Glyph == NULL)
 432:src/MyName.c  ****   {
 433:src/MyName.c  ****     return;
 434:src/MyName.c  ****   }
 435:src/MyName.c  **** 
 436:src/MyName.c  ****   const UINTN SrcW = 5;
 437:src/MyName.c  ****   const UINTN SrcH = 7;
 438:src/MyName.c  **** 
 439:src/MyName.c  ****   for(UINTN Row = 0; Row < SrcH; Row++)
 440:src/MyName.c  ****   {
 441:src/MyName.c  ****     UINT8 Bits = Glyph->rows[Row];
 442:src/MyName.c  **** 
 443:src/MyName.c  ****     for(UINTN Col = 0; Col < SrcW; Col++)
 444:src/MyName.c  ****     {
 445:src/MyName.c  ****       if((Bits & (1 << (4 - Col))) == 0)
 446:src/MyName.c  ****       {
 447:src/MyName.c  ****         continue;
 448:src/MyName.c  ****       }
 449:src/MyName.c  **** 
 450:src/MyName.c  ****       INTN DX = 0;
 451:src/MyName.c  ****       INTN DY = 0;
 452:src/MyName.c  **** 
 453:src/MyName.c  ****       switch(Transform)
 454:src/MyName.c  ****       {
 455:src/MyName.c  ****         case TRANSFORM_NORMAL:
 456:src/MyName.c  ****           DX = (INTN)Col;
 457:src/MyName.c  ****           DY = (INTN)Row;
 458:src/MyName.c  ****           break;
 459:src/MyName.c  **** 
 460:src/MyName.c  ****         case TRANSFORM_ROT_LEFT_90:
 461:src/MyName.c  ****           DX = (INTN)Row;
 462:src/MyName.c  ****           DY = (INTN)(SrcW - 1 - Col);
 463:src/MyName.c  ****           break;
 464:src/MyName.c  **** 
 465:src/MyName.c  ****         case TRANSFORM_ROT_RIGHT_90:
 466:src/MyName.c  ****           DX = (INTN)(SrcH - 1 - Row);
 467:src/MyName.c  ****           DY = (INTN)Col;
 468:src/MyName.c  ****           break;
 469:src/MyName.c  **** 
 470:src/MyName.c  ****         case TRANSFORM_FLIP_VERTICAL:
 471:src/MyName.c  ****           DX = (INTN)Col;
 472:src/MyName.c  ****           DY = (INTN)(SrcH - 1 - Row);
 473:src/MyName.c  ****           break;
 474:src/MyName.c  **** 
 475:src/MyName.c  ****         case TRANSFORM_ROT_180:
 476:src/MyName.c  ****           DX = (INTN)(SrcW - 1 - Col);
 477:src/MyName.c  ****           DY = (INTN)(SrcH - 1 - Row);
 478:src/MyName.c  ****           break;
 479:src/MyName.c  **** 
 480:src/MyName.c  ****         default:
 481:src/MyName.c  ****           DX = (INTN)Col;
 482:src/MyName.c  ****           DY = (INTN)Row;
 483:src/MyName.c  ****           break;
 484:src/MyName.c  ****       }
 485:src/MyName.c  **** 
 486:src/MyName.c  ****       FillRect(Ctx, X + DX * (INTN)Scale, Y + DY * (INTN)Scale, Scale, Scale, R, G, B);
 487:src/MyName.c  ****     }
 488:src/MyName.c  ****   }
 489:src/MyName.c  **** }
 490:src/MyName.c  **** 
 491:src/MyName.c  **** STATIC VOID ClearScreenColor(const DRAW_CONTEXT *Ctx, UINT8 R, UINT8 G, UINT8 B)
 492:src/MyName.c  **** {
 493:src/MyName.c  ****   UINT32 Packed = PackColor(Ctx, R, G, B);
 494:src/MyName.c  **** 
 495:src/MyName.c  ****   for(UINT32 Y = 0; Y < Ctx->Height; Y++)
 496:src/MyName.c  ****   {
 497:src/MyName.c  ****     UINT32 *Row = Ctx->FrameBuffer + (UINTN)Y * Ctx->PixelsPerScanLine;
 498:src/MyName.c  ****     for(UINT32 X = 0; X < Ctx->Width; X++)
 499:src/MyName.c  ****     {
 500:src/MyName.c  ****       Row[X] = Packed;
 501:src/MyName.c  ****     }
 502:src/MyName.c  ****   }
 503:src/MyName.c  **** }
 504:src/MyName.c  **** 
 505:src/MyName.c  **** STATIC VOID FillRect(const DRAW_CONTEXT *Ctx, INTN X, INTN Y, UINTN W, UINTN H, UINT8 R, UINT8 G, U
 506:src/MyName.c  **** {
 507:src/MyName.c  ****   UINT32 Packed = PackColor(Ctx, R, G, B);
 508:src/MyName.c  **** 
 509:src/MyName.c  ****   for(UINTN J = 0; J < H; J++)
 510:src/MyName.c  ****   {
 511:src/MyName.c  ****     INTN PY = Y + (INTN)J;
 512:src/MyName.c  ****     if(PY < 0 || PY >= (INTN)Ctx->Height)
 513:src/MyName.c  ****     {
 514:src/MyName.c  ****       continue;
 515:src/MyName.c  ****     }
 516:src/MyName.c  **** 
 517:src/MyName.c  ****     UINT32 *Row = Ctx->FrameBuffer + (UINTN)PY * Ctx->PixelsPerScanLine;
 518:src/MyName.c  **** 
 519:src/MyName.c  ****     for(UINTN I = 0; I < W; I++)
 520:src/MyName.c  ****     {
 521:src/MyName.c  ****       INTN PX = X + (INTN)I;
 522:src/MyName.c  ****       if(PX < 0 || PX >= (INTN)Ctx->Width)
 523:src/MyName.c  ****       {
 524:src/MyName.c  ****         continue;
 525:src/MyName.c  ****       }
 526:src/MyName.c  **** 
 527:src/MyName.c  ****       Row[PX] = Packed;
 528:src/MyName.c  ****     }
 529:src/MyName.c  ****   }
 530:src/MyName.c  **** }
 531:src/MyName.c  **** 
 532:src/MyName.c  **** STATIC VOID PutPixel(const DRAW_CONTEXT *Ctx, INTN X, INTN Y, UINT8 R, UINT8 G, UINT8 B)
 533:src/MyName.c  **** {
 534:src/MyName.c  ****   if(X < 0 || Y < 0 || X >= (INTN)Ctx->Width || Y >= (INTN)Ctx->Height)
 535:src/MyName.c  ****   {
 536:src/MyName.c  ****     return;
 537:src/MyName.c  ****   }
 538:src/MyName.c  **** 
 539:src/MyName.c  ****   Ctx->FrameBuffer[(UINTN)Y * Ctx->PixelsPerScanLine + (UINTN)X] = PackColor(Ctx, R, G, B);
 540:src/MyName.c  **** }
 541:src/MyName.c  **** 
 542:src/MyName.c  **** STATIC UINT32 PackColor(const DRAW_CONTEXT *Ctx, UINT8 R, UINT8 G, UINT8 B)
 543:src/MyName.c  **** {
 571              		.loc 1 543 1 is_stmt 1 view -0
 572              		.cfi_startproc
 573              		.loc 1 543 1 is_stmt 0 view .LVU184
 574 026e F30F1EFA 		endbr64
 575 0272 4989F9   		movq	%rdi, %r9
 576 0275 89F7     		movl	%esi, %edi
 577              	.LVL75:
 578              		.loc 1 543 1 view .LVU185
 579 0277 4189D2   		movl	%edx, %r10d
 580 027a 4189C8   		movl	%ecx, %r8d
 544:src/MyName.c  ****   switch(Ctx->PixelFormat)
 581              		.loc 1 544 3 is_stmt 1 view .LVU186
 582              		.loc 1 544 13 is_stmt 0 view .LVU187
 583 027d 418B410C 		movl	12(%r9), %eax
 584              		.loc 1 544 3 view .LVU188
 585 0281 83F801   		cmpl	$1, %eax
 586 0284 7422     		je	.L43
 587 0286 83F802   		cmpl	$2, %eax
 588 0289 7432     		je	.L44
 589 028b 85C0     		testl	%eax, %eax
 590 028d 0F85A300 		jne	.L45
 590      0000
 545:src/MyName.c  ****   {
 546:src/MyName.c  ****     case PixelRedGreenBlueReserved8BitPerColor:
 547:src/MyName.c  ****       return ((UINT32)R) | (((UINT32)G) << 8) | (((UINT32)B) << 16);
 591              		.loc 1 547 7 is_stmt 1 view .LVU189
 592              		.loc 1 547 15 is_stmt 0 view .LVU190
 593 0293 400FB6C6 		movzbl	%sil, %eax
 594              		.loc 1 547 30 view .LVU191
 595 0297 0FB6D2   		movzbl	%dl, %edx
 596              		.loc 1 547 41 view .LVU192
 597 029a C1E208   		sall	$8, %edx
 598              	.LVL76:
 599              		.loc 1 547 26 view .LVU193
 600 029d 09D0     		orl	%edx, %eax
 601              		.loc 1 547 51 view .LVU194
 602 029f 0FB6C9   		movzbl	%cl, %ecx
 603              		.loc 1 547 62 view .LVU195
 604 02a2 C1E110   		sall	$16, %ecx
 605              	.LVL77:
 606              		.loc 1 547 47 view .LVU196
 607 02a5 09C8     		orl	%ecx, %eax
 608 02a7 C3       		ret
 609              	.LVL78:
 610              	.L43:
 548:src/MyName.c  **** 
 549:src/MyName.c  ****     case PixelBlueGreenRedReserved8BitPerColor:
 550:src/MyName.c  ****       return ((UINT32)B) | (((UINT32)G) << 8) | (((UINT32)R) << 16);
 611              		.loc 1 550 7 is_stmt 1 view .LVU197
 612              		.loc 1 550 15 is_stmt 0 view .LVU198
 613 02a8 0FB6C1   		movzbl	%cl, %eax
 614              		.loc 1 550 30 view .LVU199
 615 02ab 0FB6D2   		movzbl	%dl, %edx
 616              		.loc 1 550 41 view .LVU200
 617 02ae C1E208   		sall	$8, %edx
 618              	.LVL79:
 619              		.loc 1 550 26 view .LVU201
 620 02b1 09D0     		orl	%edx, %eax
 621              		.loc 1 550 51 view .LVU202
 622 02b3 400FB6FE 		movzbl	%sil, %edi
 623              		.loc 1 550 62 view .LVU203
 624 02b7 C1E710   		sall	$16, %edi
 625              		.loc 1 550 47 view .LVU204
 626 02ba 09F8     		orl	%edi, %eax
 627 02bc C3       		ret
 628              	.LVL80:
 629              	.L44:
 630              	.LBB5:
 551:src/MyName.c  **** 
 552:src/MyName.c  ****     case PixelBitMask:
 553:src/MyName.c  ****     {
 554:src/MyName.c  ****       //
 555:src/MyName.c  ****       // Implementación simple: intenta usar masks si vienen bien formados.
 556:src/MyName.c  ****       //
 557:src/MyName.c  ****       UINT32 Value = 0;
 631              		.loc 1 557 7 is_stmt 1 view .LVU205
 558:src/MyName.c  **** 
 559:src/MyName.c  ****       if(Ctx->PixelInfo.RedMask)
 632              		.loc 1 559 7 view .LVU206
 633              		.loc 1 559 24 is_stmt 0 view .LVU207
 634 02bd 418B4110 		movl	16(%r9), %eax
 635              		.loc 1 559 9 view .LVU208
 636 02c1 85C0     		testl	%eax, %eax
 637 02c3 7529     		jne	.L55
 638              	.LVL81:
 639              	.L48:
 560:src/MyName.c  ****       {
 561:src/MyName.c  ****         UINTN Shift = 0;
 562:src/MyName.c  ****         UINT32 Mask = Ctx->PixelInfo.RedMask;
 563:src/MyName.c  ****         while(((Mask >> Shift) & 1U) == 0U) Shift++;
 564:src/MyName.c  ****         Value |= (((UINT32)R << Shift) & Ctx->PixelInfo.RedMask);
 565:src/MyName.c  ****       }
 566:src/MyName.c  **** 
 567:src/MyName.c  ****       if(Ctx->PixelInfo.GreenMask)
 640              		.loc 1 567 7 is_stmt 1 view .LVU209
 641              		.loc 1 567 24 is_stmt 0 view .LVU210
 642 02c5 418B7914 		movl	20(%r9), %edi
 643              		.loc 1 567 9 view .LVU211
 644 02c9 85FF     		testl	%edi, %edi
 645 02cb 7542     		jne	.L56
 646              	.LVL82:
 647              	.L51:
 568:src/MyName.c  ****       {
 569:src/MyName.c  ****         UINTN Shift = 0;
 570:src/MyName.c  ****         UINT32 Mask = Ctx->PixelInfo.GreenMask;
 571:src/MyName.c  ****         while(((Mask >> Shift) & 1U) == 0U) Shift++;
 572:src/MyName.c  ****         Value |= (((UINT32)G << Shift) & Ctx->PixelInfo.GreenMask);
 573:src/MyName.c  ****       }
 574:src/MyName.c  **** 
 575:src/MyName.c  ****       if(Ctx->PixelInfo.BlueMask)
 648              		.loc 1 575 7 is_stmt 1 view .LVU212
 649              		.loc 1 575 24 is_stmt 0 view .LVU213
 650 02cd 418B7918 		movl	24(%r9), %edi
 651              		.loc 1 575 9 view .LVU214
 652 02d1 85FF     		testl	%edi, %edi
 653 02d3 755A     		jne	.L57
 654              		.loc 1 575 9 view .LVU215
 655 02d5 C3       		ret
 656              	.LVL83:
 657              	.L49:
 658              	.LBB6:
 563:src/MyName.c  ****         Value |= (((UINT32)R << Shift) & Ctx->PixelInfo.RedMask);
 659              		.loc 1 563 45 is_stmt 1 discriminator 2 view .LVU216
 563:src/MyName.c  ****         Value |= (((UINT32)R << Shift) & Ctx->PixelInfo.RedMask);
 660              		.loc 1 563 50 is_stmt 0 discriminator 2 view .LVU217
 661 02d6 4883C101 		addq	$1, %rcx
 662              	.LVL84:
 663              	.L47:
 563:src/MyName.c  ****         Value |= (((UINT32)R << Shift) & Ctx->PixelInfo.RedMask);
 664              		.loc 1 563 38 is_stmt 1 discriminator 1 view .LVU218
 563:src/MyName.c  ****         Value |= (((UINT32)R << Shift) & Ctx->PixelInfo.RedMask);
 665              		.loc 1 563 22 is_stmt 0 discriminator 1 view .LVU219
 666 02da 89C6     		movl	%eax, %esi
 667 02dc D3EE     		shrl	%cl, %esi
 563:src/MyName.c  ****         Value |= (((UINT32)R << Shift) & Ctx->PixelInfo.RedMask);
 668              		.loc 1 563 38 discriminator 1 view .LVU220
 669 02de 40F6C601 		testb	$1, %sil
 670 02e2 74F2     		je	.L49
 564:src/MyName.c  ****       }
 671              		.loc 1 564 9 is_stmt 1 view .LVU221
 564:src/MyName.c  ****       }
 672              		.loc 1 564 20 is_stmt 0 view .LVU222
 673 02e4 400FB6FF 		movzbl	%dil, %edi
 564:src/MyName.c  ****       }
 674              		.loc 1 564 30 view .LVU223
 675 02e8 D3E7     		sall	%cl, %edi
 564:src/MyName.c  ****       }
 676              		.loc 1 564 40 view .LVU224
 677 02ea 21F8     		andl	%edi, %eax
 678              	.LVL85:
 564:src/MyName.c  ****       }
 679              		.loc 1 564 40 view .LVU225
 680 02ec EBD7     		jmp	.L48
 681              	.LVL86:
 682              	.L55:
 561:src/MyName.c  ****         UINT32 Mask = Ctx->PixelInfo.RedMask;
 683              		.loc 1 561 15 view .LVU226
 684 02ee B9000000 		movl	$0, %ecx
 684      00
 685              	.LVL87:
 561:src/MyName.c  ****         UINT32 Mask = Ctx->PixelInfo.RedMask;
 686              		.loc 1 561 15 view .LVU227
 687 02f3 EBE5     		jmp	.L47
 688              	.LVL88:
 689              	.L52:
 561:src/MyName.c  ****         UINT32 Mask = Ctx->PixelInfo.RedMask;
 690              		.loc 1 561 15 view .LVU228
 691              	.LBE6:
 692              	.LBB7:
 571:src/MyName.c  ****         Value |= (((UINT32)G << Shift) & Ctx->PixelInfo.GreenMask);
 693              		.loc 1 571 45 is_stmt 1 discriminator 2 view .LVU229
 571:src/MyName.c  ****         Value |= (((UINT32)G << Shift) & Ctx->PixelInfo.GreenMask);
 694              		.loc 1 571 50 is_stmt 0 discriminator 2 view .LVU230
 695 02f5 4883C101 		addq	$1, %rcx
 696              	.LVL89:
 697              	.L50:
 571:src/MyName.c  ****         Value |= (((UINT32)G << Shift) & Ctx->PixelInfo.GreenMask);
 698              		.loc 1 571 38 is_stmt 1 discriminator 1 view .LVU231
 571:src/MyName.c  ****         Value |= (((UINT32)G << Shift) & Ctx->PixelInfo.GreenMask);
 699              		.loc 1 571 22 is_stmt 0 discriminator 1 view .LVU232
 700 02f9 89FE     		movl	%edi, %esi
 701 02fb D3EE     		shrl	%cl, %esi
 571:src/MyName.c  ****         Value |= (((UINT32)G << Shift) & Ctx->PixelInfo.GreenMask);
 702              		.loc 1 571 38 discriminator 1 view .LVU233
 703 02fd 40F6C601 		testb	$1, %sil
 704 0301 74F2     		je	.L52
 572:src/MyName.c  ****       }
 705              		.loc 1 572 9 is_stmt 1 view .LVU234
 572:src/MyName.c  ****       }
 706              		.loc 1 572 20 is_stmt 0 view .LVU235
 707 0303 410FB6D2 		movzbl	%r10b, %edx
 708              	.LVL90:
 572:src/MyName.c  ****       }
 709              		.loc 1 572 30 view .LVU236
 710 0307 D3E2     		sall	%cl, %edx
 572:src/MyName.c  ****       }
 711              		.loc 1 572 40 view .LVU237
 712 0309 21D7     		andl	%edx, %edi
 572:src/MyName.c  ****       }
 713              		.loc 1 572 15 view .LVU238
 714 030b 09F8     		orl	%edi, %eax
 715              	.LVL91:
 572:src/MyName.c  ****       }
 716              		.loc 1 572 15 view .LVU239
 717 030d EBBE     		jmp	.L51
 718              	.LVL92:
 719              	.L56:
 569:src/MyName.c  ****         UINT32 Mask = Ctx->PixelInfo.GreenMask;
 720              		.loc 1 569 15 view .LVU240
 721 030f B9000000 		movl	$0, %ecx
 721      00
 722 0314 EBE3     		jmp	.L50
 723              	.LVL93:
 724              	.L54:
 569:src/MyName.c  ****         UINT32 Mask = Ctx->PixelInfo.GreenMask;
 725              		.loc 1 569 15 view .LVU241
 726              	.LBE7:
 727              	.LBB8:
 576:src/MyName.c  ****       {
 577:src/MyName.c  ****         UINTN Shift = 0;
 578:src/MyName.c  ****         UINT32 Mask = Ctx->PixelInfo.BlueMask;
 579:src/MyName.c  ****         while(((Mask >> Shift) & 1U) == 0U) Shift++;
 728              		.loc 1 579 45 is_stmt 1 discriminator 2 view .LVU242
 729              		.loc 1 579 50 is_stmt 0 discriminator 2 view .LVU243
 730 0316 4883C101 		addq	$1, %rcx
 731              	.LVL94:
 732              	.L53:
 733              		.loc 1 579 38 is_stmt 1 discriminator 1 view .LVU244
 734              		.loc 1 579 22 is_stmt 0 discriminator 1 view .LVU245
 735 031a 89FE     		movl	%edi, %esi
 736 031c D3EE     		shrl	%cl, %esi
 737              		.loc 1 579 38 discriminator 1 view .LVU246
 738 031e 40F6C601 		testb	$1, %sil
 739 0322 74F2     		je	.L54
 580:src/MyName.c  ****         Value |= (((UINT32)B << Shift) & Ctx->PixelInfo.BlueMask);
 740              		.loc 1 580 9 is_stmt 1 view .LVU247
 741              		.loc 1 580 20 is_stmt 0 view .LVU248
 742 0324 410FB6D0 		movzbl	%r8b, %edx
 743              		.loc 1 580 30 view .LVU249
 744 0328 D3E2     		sall	%cl, %edx
 745              		.loc 1 580 40 view .LVU250
 746 032a 21D7     		andl	%edx, %edi
 747              		.loc 1 580 15 view .LVU251
 748 032c 09F8     		orl	%edi, %eax
 749              	.LVL95:
 750              		.loc 1 580 15 view .LVU252
 751 032e C3       		ret
 752              	.LVL96:
 753              	.L57:
 577:src/MyName.c  ****         UINT32 Mask = Ctx->PixelInfo.BlueMask;
 754              		.loc 1 577 15 view .LVU253
 755 032f B9000000 		movl	$0, %ecx
 755      00
 756 0334 EBE4     		jmp	.L53
 757              	.LVL97:
 758              	.L45:
 577:src/MyName.c  ****         UINT32 Mask = Ctx->PixelInfo.BlueMask;
 759              		.loc 1 577 15 view .LVU254
 760              	.LBE8:
 761              	.LBE5:
 581:src/MyName.c  ****       }
 582:src/MyName.c  **** 
 583:src/MyName.c  ****       return Value;
 584:src/MyName.c  ****     }
 585:src/MyName.c  **** 
 586:src/MyName.c  ****     default:
 587:src/MyName.c  ****       return ((UINT32)B) | (((UINT32)G) << 8) | (((UINT32)R) << 16);
 762              		.loc 1 587 7 is_stmt 1 view .LVU255
 763              		.loc 1 587 15 is_stmt 0 view .LVU256
 764 0336 0FB6D1   		movzbl	%cl, %edx
 765              	.LVL98:
 766              		.loc 1 587 30 view .LVU257
 767 0339 410FB6CA 		movzbl	%r10b, %ecx
 768              	.LVL99:
 769              		.loc 1 587 41 view .LVU258
 770 033d C1E108   		sall	$8, %ecx
 771              		.loc 1 587 26 view .LVU259
 772 0340 09CA     		orl	%ecx, %edx
 773              	.LVL100:
 774              		.loc 1 587 51 view .LVU260
 775 0342 400FB6C6 		movzbl	%sil, %eax
 776              		.loc 1 587 62 view .LVU261
 777 0346 C1E010   		sall	$16, %eax
 778              		.loc 1 587 47 view .LVU262
 779 0349 09D0     		orl	%edx, %eax
 588:src/MyName.c  ****   }
 589:src/MyName.c  **** }...
 780              		.loc 1 589 1 view .LVU263
 781 034b C3       		ret
 782              		.cfi_endproc
 783              	.LFE14:
 785              		.globl	ClearScreenColor
 787              	ClearScreenColor:
 788              	.LVL101:
 789              	.LFB11:
 492:src/MyName.c  **** {
 790              		.loc 1 492 1 is_stmt 1 view -0
 791              		.cfi_startproc
 492:src/MyName.c  **** {
 792              		.loc 1 492 1 is_stmt 0 view .LVU265
 793 034c F30F1EFA 		endbr64
 794 0350 53       		pushq	%rbx
 795              		.cfi_def_cfa_offset 16
 796              		.cfi_offset 3, -16
 797 0351 4889FB   		movq	%rdi, %rbx
 493:src/MyName.c  ****   UINT32 Packed = PackColor(Ctx, R, G, B);
 798              		.loc 1 493 3 is_stmt 1 view .LVU266
 493:src/MyName.c  ****   UINT32 Packed = PackColor(Ctx, R, G, B);
 799              		.loc 1 493 19 is_stmt 0 view .LVU267
 800 0354 0FB6C9   		movzbl	%cl, %ecx
 493:src/MyName.c  ****   UINT32 Packed = PackColor(Ctx, R, G, B);
 801              		.loc 1 493 19 view .LVU268
 802 0357 0FB6D2   		movzbl	%dl, %edx
 493:src/MyName.c  ****   UINT32 Packed = PackColor(Ctx, R, G, B);
 803              		.loc 1 493 19 view .LVU269
 804 035a 400FB6F6 		movzbl	%sil, %esi
 493:src/MyName.c  ****   UINT32 Packed = PackColor(Ctx, R, G, B);
 805              		.loc 1 493 19 view .LVU270
 806 035e E8000000 		call	PackColor
 806      00
 807              	.LVL102:
 495:src/MyName.c  ****   for(UINT32 Y = 0; Y < Ctx->Height; Y++)
 808              		.loc 1 495 3 is_stmt 1 view .LVU271
 809              	.LBB9:
 495:src/MyName.c  ****   for(UINT32 Y = 0; Y < Ctx->Height; Y++)
 810              		.loc 1 495 7 view .LVU272
 495:src/MyName.c  ****   for(UINT32 Y = 0; Y < Ctx->Height; Y++)
 811              		.loc 1 495 14 is_stmt 0 view .LVU273
 812 0363 41B80000 		movl	$0, %r8d
 812      0000
 495:src/MyName.c  ****   for(UINT32 Y = 0; Y < Ctx->Height; Y++)
 813              		.loc 1 495 3 view .LVU274
 814 0369 EB13     		jmp	.L59
 815              	.LVL103:
 816              	.L61:
 817              	.LBB10:
 818              	.LBB11:
 500:src/MyName.c  ****       Row[X] = Packed;
 819              		.loc 1 500 7 is_stmt 1 view .LVU275
 500:src/MyName.c  ****       Row[X] = Packed;
 820              		.loc 1 500 10 is_stmt 0 view .LVU276
 821 036b 89D1     		movl	%edx, %ecx
 822 036d 4801F1   		addq	%rsi, %rcx
 500:src/MyName.c  ****       Row[X] = Packed;
 823              		.loc 1 500 14 view .LVU277
 824 0370 89048F   		movl	%eax, (%rdi,%rcx,4)
 498:src/MyName.c  ****     for(UINT32 X = 0; X < Ctx->Width; X++)
 825              		.loc 1 498 40 is_stmt 1 discriminator 3 view .LVU278
 826 0373 83C201   		addl	$1, %edx
 827              	.LVL104:
 828              	.L60:
 498:src/MyName.c  ****     for(UINT32 X = 0; X < Ctx->Width; X++)
 829              		.loc 1 498 25 discriminator 1 view .LVU279
 830 0376 3B13     		cmpl	(%rbx), %edx
 831 0378 72F1     		jb	.L61
 832              	.LBE11:
 833              	.LBE10:
 495:src/MyName.c  ****   for(UINT32 Y = 0; Y < Ctx->Height; Y++)
 834              		.loc 1 495 39 discriminator 2 view .LVU280
 835 037a 4183C001 		addl	$1, %r8d
 836              	.LVL105:
 837              	.L59:
 495:src/MyName.c  ****   for(UINT32 Y = 0; Y < Ctx->Height; Y++)
 838              		.loc 1 495 23 discriminator 1 view .LVU281
 839 037e 443B4304 		cmpl	4(%rbx), %r8d
 840 0382 7315     		jnb	.L64
 841              	.LBB13:
 497:src/MyName.c  ****     UINT32 *Row = Ctx->FrameBuffer + (UINTN)Y * Ctx->PixelsPerScanLine;
 842              		.loc 1 497 5 view .LVU282
 497:src/MyName.c  ****     UINT32 *Row = Ctx->FrameBuffer + (UINTN)Y * Ctx->PixelsPerScanLine;
 843              		.loc 1 497 22 is_stmt 0 view .LVU283
 844 0384 488B7B20 		movq	32(%rbx), %rdi
 497:src/MyName.c  ****     UINT32 *Row = Ctx->FrameBuffer + (UINTN)Y * Ctx->PixelsPerScanLine;
 845              		.loc 1 497 38 view .LVU284
 846 0388 4489C6   		movl	%r8d, %esi
 497:src/MyName.c  ****     UINT32 *Row = Ctx->FrameBuffer + (UINTN)Y * Ctx->PixelsPerScanLine;
 847              		.loc 1 497 52 view .LVU285
 848 038b 8B5308   		movl	8(%rbx), %edx
 497:src/MyName.c  ****     UINT32 *Row = Ctx->FrameBuffer + (UINTN)Y * Ctx->PixelsPerScanLine;
 849              		.loc 1 497 47 view .LVU286
 850 038e 480FAFF2 		imulq	%rdx, %rsi
 851              	.LVL106:
 498:src/MyName.c  ****     for(UINT32 X = 0; X < Ctx->Width; X++)
 852              		.loc 1 498 5 is_stmt 1 view .LVU287
 853              	.LBB12:
 498:src/MyName.c  ****     for(UINT32 X = 0; X < Ctx->Width; X++)
 854              		.loc 1 498 9 view .LVU288
 498:src/MyName.c  ****     for(UINT32 X = 0; X < Ctx->Width; X++)
 855              		.loc 1 498 16 is_stmt 0 view .LVU289
 856 0392 BA000000 		movl	$0, %edx
 856      00
 498:src/MyName.c  ****     for(UINT32 X = 0; X < Ctx->Width; X++)
 857              		.loc 1 498 5 view .LVU290
 858 0397 EBDD     		jmp	.L60
 859              	.LVL107:
 860              	.L64:
 498:src/MyName.c  ****     for(UINT32 X = 0; X < Ctx->Width; X++)
 861              		.loc 1 498 5 view .LVU291
 862              	.LBE12:
 863              	.LBE13:
 864              	.LBE9:
 503:src/MyName.c  **** }
 865              		.loc 1 503 1 view .LVU292
 866 0399 5B       		popq	%rbx
 867              		.cfi_restore 3
 868              		.cfi_def_cfa_offset 8
 869              	.LVL108:
 503:src/MyName.c  **** }
 870              		.loc 1 503 1 view .LVU293
 871 039a C3       		ret
 872              		.cfi_endproc
 873              	.LFE11:
 875              		.globl	FillRect
 877              	FillRect:
 878              	.LVL109:
 879              	.LFB12:
 506:src/MyName.c  **** {
 880              		.loc 1 506 1 is_stmt 1 view -0
 881              		.cfi_startproc
 506:src/MyName.c  **** {
 882              		.loc 1 506 1 is_stmt 0 view .LVU295
 883 039b F30F1EFA 		endbr64
 884 039f 4156     		pushq	%r14
 885              		.cfi_def_cfa_offset 16
 886              		.cfi_offset 14, -16
 887 03a1 4155     		pushq	%r13
 888              		.cfi_def_cfa_offset 24
 889              		.cfi_offset 13, -24
 890 03a3 4154     		pushq	%r12
 891              		.cfi_def_cfa_offset 32
 892              		.cfi_offset 12, -32
 893 03a5 55       		pushq	%rbp
 894              		.cfi_def_cfa_offset 40
 895              		.cfi_offset 6, -40
 896 03a6 53       		pushq	%rbx
 897              		.cfi_def_cfa_offset 48
 898              		.cfi_offset 3, -48
 899 03a7 4889FD   		movq	%rdi, %rbp
 900 03aa 4889F3   		movq	%rsi, %rbx
 901 03ad 4989D5   		movq	%rdx, %r13
 902 03b0 4989CC   		movq	%rcx, %r12
 903 03b3 4D89C6   		movq	%r8, %r14
 507:src/MyName.c  ****   UINT32 Packed = PackColor(Ctx, R, G, B);
 904              		.loc 1 507 3 is_stmt 1 view .LVU296
 507:src/MyName.c  ****   UINT32 Packed = PackColor(Ctx, R, G, B);
 905              		.loc 1 507 19 is_stmt 0 view .LVU297
 906 03b6 0FB64C24 		movzbl	56(%rsp), %ecx
 906      38
 907              	.LVL110:
 507:src/MyName.c  ****   UINT32 Packed = PackColor(Ctx, R, G, B);
 908              		.loc 1 507 19 view .LVU298
 909 03bb 0FB65424 		movzbl	48(%rsp), %edx
 909      30
 910              	.LVL111:
 507:src/MyName.c  ****   UINT32 Packed = PackColor(Ctx, R, G, B);
 911              		.loc 1 507 19 view .LVU299
 912 03c0 410FB6F1 		movzbl	%r9b, %esi
 913              	.LVL112:
 507:src/MyName.c  ****   UINT32 Packed = PackColor(Ctx, R, G, B);
 914              		.loc 1 507 19 view .LVU300
 915 03c4 E8000000 		call	PackColor
 915      00
 916              	.LVL113:
 507:src/MyName.c  ****   UINT32 Packed = PackColor(Ctx, R, G, B);
 917              		.loc 1 507 19 view .LVU301
 918 03c9 4189C0   		movl	%eax, %r8d
 919              	.LVL114:
 509:src/MyName.c  ****   for(UINTN J = 0; J < H; J++)
 920              		.loc 1 509 3 is_stmt 1 view .LVU302
 921              	.LBB14:
 509:src/MyName.c  ****   for(UINTN J = 0; J < H; J++)
 922              		.loc 1 509 7 view .LVU303
 509:src/MyName.c  ****   for(UINTN J = 0; J < H; J++)
 923              		.loc 1 509 13 is_stmt 0 view .LVU304
 924 03cc B9000000 		movl	$0, %ecx
 924      00
 509:src/MyName.c  ****   for(UINTN J = 0; J < H; J++)
 925              		.loc 1 509 3 view .LVU305
 926 03d1 EB26     		jmp	.L66
 927              	.LVL115:
 928              	.L69:
 929              	.LBB15:
 930              	.LBB16:
 519:src/MyName.c  ****     for(UINTN I = 0; I < W; I++)
 931              		.loc 1 519 30 is_stmt 1 discriminator 2 view .LVU306
 932 03d3 4883C001 		addq	$1, %rax
 933              	.LVL116:
 934              	.L68:
 519:src/MyName.c  ****     for(UINTN I = 0; I < W; I++)
 935              		.loc 1 519 24 discriminator 1 view .LVU307
 936 03d7 4C39E0   		cmpq	%r12, %rax
 937 03da 7319     		jnb	.L67
 938              	.LBB17:
 521:src/MyName.c  ****       INTN PX = X + (INTN)I;
 939              		.loc 1 521 7 view .LVU308
 940              	.LVL117:
 522:src/MyName.c  ****       if(PX < 0 || PX >= (INTN)Ctx->Width)
 941              		.loc 1 522 7 view .LVU309
 522:src/MyName.c  ****       if(PX < 0 || PX >= (INTN)Ctx->Width)
 942              		.loc 1 522 9 is_stmt 0 view .LVU310
 943 03dc 4889C2   		movq	%rax, %rdx
 944 03df 4801DA   		addq	%rbx, %rdx
 945              	.LVL118:
 522:src/MyName.c  ****       if(PX < 0 || PX >= (INTN)Ctx->Width)
 946              		.loc 1 522 9 view .LVU311
 947 03e2 78EF     		js	.L69
 522:src/MyName.c  ****       if(PX < 0 || PX >= (INTN)Ctx->Width)
 948              		.loc 1 522 26 discriminator 2 view .LVU312
 949 03e4 8B7500   		movl	0(%rbp), %esi
 522:src/MyName.c  ****       if(PX < 0 || PX >= (INTN)Ctx->Width)
 950              		.loc 1 522 17 discriminator 2 view .LVU313
 951 03e7 4839D6   		cmpq	%rdx, %rsi
 952 03ea 7EE7     		jle	.L69
 527:src/MyName.c  ****       Row[PX] = Packed;
 953              		.loc 1 527 7 is_stmt 1 view .LVU314
 527:src/MyName.c  ****       Row[PX] = Packed;
 954              		.loc 1 527 10 is_stmt 0 view .LVU315
 955 03ec 4801FA   		addq	%rdi, %rdx
 956              	.LVL119:
 527:src/MyName.c  ****       Row[PX] = Packed;
 957              		.loc 1 527 15 view .LVU316
 958 03ef 45890491 		movl	%r8d, (%r9,%rdx,4)
 959 03f3 EBDE     		jmp	.L69
 960              	.LVL120:
 961              	.L67:
 527:src/MyName.c  ****       Row[PX] = Packed;
 962              		.loc 1 527 15 view .LVU317
 963              	.LBE17:
 964              	.LBE16:
 965              	.LBE15:
 509:src/MyName.c  ****   for(UINTN J = 0; J < H; J++)
 966              		.loc 1 509 28 is_stmt 1 discriminator 2 view .LVU318
 967 03f5 4883C101 		addq	$1, %rcx
 968              	.LVL121:
 969              	.L66:
 509:src/MyName.c  ****   for(UINTN J = 0; J < H; J++)
 970              		.loc 1 509 22 discriminator 1 view .LVU319
 971 03f9 4C39F1   		cmpq	%r14, %rcx
 972 03fc 7322     		jnb	.L73
 973              	.LBB19:
 511:src/MyName.c  ****     INTN PY = Y + (INTN)J;
 974              		.loc 1 511 5 view .LVU320
 975              	.LVL122:
 512:src/MyName.c  ****     if(PY < 0 || PY >= (INTN)Ctx->Height)
 976              		.loc 1 512 5 view .LVU321
 512:src/MyName.c  ****     if(PY < 0 || PY >= (INTN)Ctx->Height)
 977              		.loc 1 512 7 is_stmt 0 view .LVU322
 978 03fe 4889C8   		movq	%rcx, %rax
 979 0401 4C01E8   		addq	%r13, %rax
 980              	.LVL123:
 512:src/MyName.c  ****     if(PY < 0 || PY >= (INTN)Ctx->Height)
 981              		.loc 1 512 7 view .LVU323
 982 0404 78EF     		js	.L67
 512:src/MyName.c  ****     if(PY < 0 || PY >= (INTN)Ctx->Height)
 983              		.loc 1 512 24 discriminator 2 view .LVU324
 984 0406 8B5504   		movl	4(%rbp), %edx
 512:src/MyName.c  ****     if(PY < 0 || PY >= (INTN)Ctx->Height)
 985              		.loc 1 512 15 discriminator 2 view .LVU325
 986 0409 4839C2   		cmpq	%rax, %rdx
 987 040c 7EE7     		jle	.L67
 517:src/MyName.c  ****     UINT32 *Row = Ctx->FrameBuffer + (UINTN)PY * Ctx->PixelsPerScanLine;
 988              		.loc 1 517 5 is_stmt 1 view .LVU326
 517:src/MyName.c  ****     UINT32 *Row = Ctx->FrameBuffer + (UINTN)PY * Ctx->PixelsPerScanLine;
 989              		.loc 1 517 22 is_stmt 0 view .LVU327
 990 040e 4C8B4D20 		movq	32(%rbp), %r9
 517:src/MyName.c  ****     UINT32 *Row = Ctx->FrameBuffer + (UINTN)PY * Ctx->PixelsPerScanLine;
 991              		.loc 1 517 53 view .LVU328
 992 0412 8B7D08   		movl	8(%rbp), %edi
 517:src/MyName.c  ****     UINT32 *Row = Ctx->FrameBuffer + (UINTN)PY * Ctx->PixelsPerScanLine;
 993              		.loc 1 517 48 view .LVU329
 994 0415 480FAFF8 		imulq	%rax, %rdi
 995              	.LVL124:
 519:src/MyName.c  ****     for(UINTN I = 0; I < W; I++)
 996              		.loc 1 519 5 is_stmt 1 view .LVU330
 997              	.LBB18:
 519:src/MyName.c  ****     for(UINTN I = 0; I < W; I++)
 998              		.loc 1 519 9 view .LVU331
 519:src/MyName.c  ****     for(UINTN I = 0; I < W; I++)
 999              		.loc 1 519 15 is_stmt 0 view .LVU332
 1000 0419 B8000000 		movl	$0, %eax
 1000      00
 1001              	.LVL125:
 519:src/MyName.c  ****     for(UINTN I = 0; I < W; I++)
 1002              		.loc 1 519 5 view .LVU333
 1003 041e EBB7     		jmp	.L68
 1004              	.LVL126:
 1005              	.L73:
 519:src/MyName.c  ****     for(UINTN I = 0; I < W; I++)
 1006              		.loc 1 519 5 view .LVU334
 1007              	.LBE18:
 1008              	.LBE19:
 1009              	.LBE14:
 530:src/MyName.c  **** }
 1010              		.loc 1 530 1 view .LVU335
 1011 0420 5B       		popq	%rbx
 1012              		.cfi_restore 3
 1013              		.cfi_def_cfa_offset 40
 1014              	.LVL127:
 530:src/MyName.c  **** }
 1015              		.loc 1 530 1 view .LVU336
 1016 0421 5D       		popq	%rbp
 1017              		.cfi_restore 6
 1018              		.cfi_def_cfa_offset 32
 1019              	.LVL128:
 530:src/MyName.c  **** }
 1020              		.loc 1 530 1 view .LVU337
 1021 0422 415C     		popq	%r12
 1022              		.cfi_restore 12
 1023              		.cfi_def_cfa_offset 24
 1024              	.LVL129:
 530:src/MyName.c  **** }
 1025              		.loc 1 530 1 view .LVU338
 1026 0424 415D     		popq	%r13
 1027              		.cfi_restore 13
 1028              		.cfi_def_cfa_offset 16
 1029              	.LVL130:
 530:src/MyName.c  **** }
 1030              		.loc 1 530 1 view .LVU339
 1031 0426 415E     		popq	%r14
 1032              		.cfi_restore 14
 1033              		.cfi_def_cfa_offset 8
 1034              	.LVL131:
 530:src/MyName.c  **** }
 1035              		.loc 1 530 1 view .LVU340
 1036 0428 C3       		ret
 1037              		.cfi_endproc
 1038              	.LFE12:
 1040              		.globl	DrawCenteredBox
 1042              	DrawCenteredBox:
 1043              	.LVL132:
 1044              	.LFB4:
 284:src/MyName.c  **** {
 1045              		.loc 1 284 1 is_stmt 1 view -0
 1046              		.cfi_startproc
 284:src/MyName.c  **** {
 1047              		.loc 1 284 1 is_stmt 0 view .LVU342
 1048 0429 F30F1EFA 		endbr64
 1049 042d 4156     		pushq	%r14
 1050              		.cfi_def_cfa_offset 16
 1051              		.cfi_offset 14, -16
 1052 042f 4155     		pushq	%r13
 1053              		.cfi_def_cfa_offset 24
 1054              		.cfi_offset 13, -24
 1055 0431 4154     		pushq	%r12
 1056              		.cfi_def_cfa_offset 32
 1057              		.cfi_offset 12, -32
 1058 0433 55       		pushq	%rbp
 1059              		.cfi_def_cfa_offset 40
 1060              		.cfi_offset 6, -40
 1061 0434 53       		pushq	%rbx
 1062              		.cfi_def_cfa_offset 48
 1063              		.cfi_offset 3, -48
 1064 0435 4883EC10 		subq	$16, %rsp
 1065              		.cfi_def_cfa_offset 64
 1066 0439 4989FC   		movq	%rdi, %r12
 1067 043c 4989F6   		movq	%rsi, %r14
 1068 043f 4989D5   		movq	%rdx, %r13
 285:src/MyName.c  ****   INTN X = ((INTN)Ctx->Width - (INTN)BoxW) / 2;
 1069              		.loc 1 285 3 is_stmt 1 view .LVU343
 285:src/MyName.c  ****   INTN X = ((INTN)Ctx->Width - (INTN)BoxW) / 2;
 1070              		.loc 1 285 13 is_stmt 0 view .LVU344
 1071 0442 8B07     		movl	(%rdi), %eax
 285:src/MyName.c  ****   INTN X = ((INTN)Ctx->Width - (INTN)BoxW) / 2;
 1072              		.loc 1 285 30 view .LVU345
 1073 0444 4829F0   		subq	%rsi, %rax
 285:src/MyName.c  ****   INTN X = ((INTN)Ctx->Width - (INTN)BoxW) / 2;
 1074              		.loc 1 285 8 view .LVU346
 1075 0447 4889C3   		movq	%rax, %rbx
 1076 044a 48C1EB3F 		shrq	$63, %rbx
 1077 044e 4801C3   		addq	%rax, %rbx
 1078 0451 48D1FB   		sarq	%rbx
 1079              	.LVL133:
 286:src/MyName.c  ****   INTN Y = ((INTN)Ctx->Height - (INTN)BoxH) / 2;
 1080              		.loc 1 286 3 is_stmt 1 view .LVU347
 286:src/MyName.c  ****   INTN Y = ((INTN)Ctx->Height - (INTN)BoxH) / 2;
 1081              		.loc 1 286 13 is_stmt 0 view .LVU348
 1082 0454 8B4704   		movl	4(%rdi), %eax
 286:src/MyName.c  ****   INTN Y = ((INTN)Ctx->Height - (INTN)BoxH) / 2;
 1083              		.loc 1 286 31 view .LVU349
 1084 0457 4829D0   		subq	%rdx, %rax
 286:src/MyName.c  ****   INTN Y = ((INTN)Ctx->Height - (INTN)BoxH) / 2;
 1085              		.loc 1 286 8 view .LVU350
 1086 045a 4889C5   		movq	%rax, %rbp
 1087 045d 48C1ED3F 		shrq	$63, %rbp
 1088 0461 4801C5   		addq	%rax, %rbp
 1089 0464 48D1FD   		sarq	%rbp
 1090              	.LVL134:
 288:src/MyName.c  ****   FillRect(Ctx, X, Y, BoxW, BoxH, R, G, B);
 1091              		.loc 1 288 3 is_stmt 1 view .LVU351
 1092 0467 450FB6C9 		movzbl	%r9b, %r9d
 288:src/MyName.c  ****   FillRect(Ctx, X, Y, BoxW, BoxH, R, G, B);
 1093              		.loc 1 288 3 is_stmt 0 view .LVU352
 1094 046b 44894C24 		movl	%r9d, 8(%rsp)
 1094      08
 1095 0470 450FB6C0 		movzbl	%r8b, %r8d
 288:src/MyName.c  ****   FillRect(Ctx, X, Y, BoxW, BoxH, R, G, B);
 1096              		.loc 1 288 3 view .LVU353
 1097 0474 44890424 		movl	%r8d, (%rsp)
 1098 0478 440FB6C9 		movzbl	%cl, %r9d
 1099              	.LVL135:
 288:src/MyName.c  ****   FillRect(Ctx, X, Y, BoxW, BoxH, R, G, B);
 1100              		.loc 1 288 3 view .LVU354
 1101 047c 4989D0   		movq	%rdx, %r8
 1102              	.LVL136:
 288:src/MyName.c  ****   FillRect(Ctx, X, Y, BoxW, BoxH, R, G, B);
 1103              		.loc 1 288 3 view .LVU355
 1104 047f 4889F1   		movq	%rsi, %rcx
 1105              	.LVL137:
 288:src/MyName.c  ****   FillRect(Ctx, X, Y, BoxW, BoxH, R, G, B);
 1106              		.loc 1 288 3 view .LVU356
 1107 0482 4889EA   		movq	%rbp, %rdx
 1108              	.LVL138:
 288:src/MyName.c  ****   FillRect(Ctx, X, Y, BoxW, BoxH, R, G, B);
 1109              		.loc 1 288 3 view .LVU357
 1110 0485 4889DE   		movq	%rbx, %rsi
 1111              	.LVL139:
 288:src/MyName.c  ****   FillRect(Ctx, X, Y, BoxW, BoxH, R, G, B);
 1112              		.loc 1 288 3 view .LVU358
 1113 0488 E8000000 		call	FillRect
 1113      00
 1114              	.LVL140:
 289:src/MyName.c  ****   FillRect(Ctx, X + 6, Y + 6, BoxW - 12, BoxH - 12, BG_R, BG_G, BG_B);
 1115              		.loc 1 289 3 is_stmt 1 view .LVU359
 1116 048d 498D4EF4 		leaq	-12(%r14), %rcx
 1117 0491 488D5506 		leaq	6(%rbp), %rdx
 1118 0495 488D7306 		leaq	6(%rbx), %rsi
 1119 0499 C7442408 		movl	$30, 8(%rsp)
 1119      1E000000 
 1120 04a1 C704240A 		movl	$10, (%rsp)
 1120      000000
 1121 04a8 41B90A00 		movl	$10, %r9d
 1121      0000
 1122 04ae 4D8D45F4 		leaq	-12(%r13), %r8
 1123 04b2 4C89E7   		movq	%r12, %rdi
 1124 04b5 E8000000 		call	FillRect
 1124      00
 1125              	.LVL141:
 290:src/MyName.c  **** }
 1126              		.loc 1 290 1 is_stmt 0 view .LVU360
 1127 04ba 4883C410 		addq	$16, %rsp
 1128              		.cfi_def_cfa_offset 48
 1129 04be 5B       		popq	%rbx
 1130              		.cfi_restore 3
 1131              		.cfi_def_cfa_offset 40
 1132              	.LVL142:
 290:src/MyName.c  **** }
 1133              		.loc 1 290 1 view .LVU361
 1134 04bf 5D       		popq	%rbp
 1135              		.cfi_restore 6
 1136              		.cfi_def_cfa_offset 32
 1137              	.LVL143:
 290:src/MyName.c  **** }
 1138              		.loc 1 290 1 view .LVU362
 1139 04c0 415C     		popq	%r12
 1140              		.cfi_restore 12
 1141              		.cfi_def_cfa_offset 24
 1142              	.LVL144:
 290:src/MyName.c  **** }
 1143              		.loc 1 290 1 view .LVU363
 1144 04c2 415D     		popq	%r13
 1145              		.cfi_restore 13
 1146              		.cfi_def_cfa_offset 16
 1147              	.LVL145:
 290:src/MyName.c  **** }
 1148              		.loc 1 290 1 view .LVU364
 1149 04c4 415E     		popq	%r14
 1150              		.cfi_restore 14
 1151              		.cfi_def_cfa_offset 8
 1152              	.LVL146:
 290:src/MyName.c  **** }
 1153              		.loc 1 290 1 view .LVU365
 1154 04c6 C3       		ret
 1155              		.cfi_endproc
 1156              	.LFE4:
 1158              		.globl	DrawGlyph5x7
 1160              	DrawGlyph5x7:
 1161              	.LVL147:
 1162              	.LFB10:
 429:src/MyName.c  **** {
 1163              		.loc 1 429 1 is_stmt 1 view -0
 1164              		.cfi_startproc
 429:src/MyName.c  **** {
 1165              		.loc 1 429 1 is_stmt 0 view .LVU367
 1166 04c7 F30F1EFA 		endbr64
 1167 04cb 4157     		pushq	%r15
 1168              		.cfi_def_cfa_offset 16
 1169              		.cfi_offset 15, -16
 1170 04cd 4156     		pushq	%r14
 1171              		.cfi_def_cfa_offset 24
 1172              		.cfi_offset 14, -24
 1173 04cf 4155     		pushq	%r13
 1174              		.cfi_def_cfa_offset 32
 1175              		.cfi_offset 13, -32
 1176 04d1 4154     		pushq	%r12
 1177              		.cfi_def_cfa_offset 40
 1178              		.cfi_offset 12, -40
 1179 04d3 55       		pushq	%rbp
 1180              		.cfi_def_cfa_offset 48
 1181              		.cfi_offset 6, -48
 1182 04d4 53       		pushq	%rbx
 1183              		.cfi_def_cfa_offset 56
 1184              		.cfi_offset 3, -56
 1185 04d5 4883EC38 		subq	$56, %rsp
 1186              		.cfi_def_cfa_offset 112
 1187 04d9 48897C24 		movq	%rdi, 24(%rsp)
 1187      18
 1188 04de 4989D6   		movq	%rdx, %r14
 1189 04e1 4989CF   		movq	%rcx, %r15
 1190 04e4 4C89C5   		movq	%r8, %rbp
 1191 04e7 44894C24 		movl	%r9d, 32(%rsp)
 1191      20
 1192 04ec 0FB64424 		movzbl	112(%rsp), %eax
 1192      70
 1193 04f1 88442425 		movb	%al, 37(%rsp)
 1194 04f5 0FB64424 		movzbl	120(%rsp), %eax
 1194      78
 1195 04fa 88442426 		movb	%al, 38(%rsp)
 1196 04fe 0FB68424 		movzbl	128(%rsp), %eax
 1196      80000000 
 1197 0506 88442427 		movb	%al, 39(%rsp)
 430:src/MyName.c  ****   const FONT5X7 *Glyph = FindGlyph(Ch);
 1198              		.loc 1 430 3 is_stmt 1 view .LVU368
 430:src/MyName.c  ****   const FONT5X7 *Glyph = FindGlyph(Ch);
 1199              		.loc 1 430 26 is_stmt 0 view .LVU369
 1200 050a 400FB6FE 		movzbl	%sil, %edi
 1201              	.LVL148:
 430:src/MyName.c  ****   const FONT5X7 *Glyph = FindGlyph(Ch);
 1202              		.loc 1 430 26 view .LVU370
 1203 050e E8000000 		call	FindGlyph
 1203      00
 1204              	.LVL149:
 431:src/MyName.c  ****   if(Glyph == NULL)
 1205              		.loc 1 431 3 is_stmt 1 view .LVU371
 431:src/MyName.c  ****   if(Glyph == NULL)
 1206              		.loc 1 431 5 is_stmt 0 view .LVU372
 1207 0513 4885C0   		testq	%rax, %rax
 1208 0516 0F84F100 		je	.L76
 1208      0000
 1209              	.LBB20:
 439:src/MyName.c  ****   for(UINTN Row = 0; Row < SrcH; Row++)
 1210              		.loc 1 439 13 view .LVU373
 1211 051c 41BC0000 		movl	$0, %r12d
 1211      0000
 1212 0522 4D89E5   		movq	%r12, %r13
 1213 0525 48894424 		movq	%rax, 40(%rsp)
 1213      28
 1214 052a E9C30000 		jmp	.L78
 1214      00
 1215              	.LVL150:
 1216              	.L87:
 1217              	.LBB21:
 1218              	.LBB22:
 1219              	.LBB23:
 456:src/MyName.c  ****           DX = (INTN)Col;
 1220              		.loc 1 456 11 is_stmt 1 view .LVU374
 456:src/MyName.c  ****           DX = (INTN)Col;
 1221              		.loc 1 456 14 is_stmt 0 view .LVU375
 1222 052f 4889DE   		movq	%rbx, %rsi
 1223              	.LVL151:
 457:src/MyName.c  ****           DY = (INTN)Row;
 1224              		.loc 1 457 11 is_stmt 1 view .LVU376
 457:src/MyName.c  ****           DY = (INTN)Row;
 1225              		.loc 1 457 14 is_stmt 0 view .LVU377
 1226 0532 4C89EA   		movq	%r13, %rdx
 1227              	.LVL152:
 458:src/MyName.c  ****           break;
 1228              		.loc 1 458 11 is_stmt 1 view .LVU378
 1229              	.L88:
 486:src/MyName.c  ****       FillRect(Ctx, X + DX * (INTN)Scale, Y + DY * (INTN)Scale, Scale, Scale, R, G, B);
 1230              		.loc 1 486 7 view .LVU379
 486:src/MyName.c  ****       FillRect(Ctx, X + DX * (INTN)Scale, Y + DY * (INTN)Scale, Scale, Scale, R, G, B);
 1231              		.loc 1 486 50 is_stmt 0 view .LVU380
 1232 0535 480FAFD5 		imulq	%rbp, %rdx
 1233              	.LVL153:
 486:src/MyName.c  ****       FillRect(Ctx, X + DX * (INTN)Scale, Y + DY * (INTN)Scale, Scale, Scale, R, G, B);
 1234              		.loc 1 486 28 view .LVU381
 1235 0539 480FAFF5 		imulq	%rbp, %rsi
 1236              	.LVL154:
 486:src/MyName.c  ****       FillRect(Ctx, X + DX * (INTN)Scale, Y + DY * (INTN)Scale, Scale, Scale, R, G, B);
 1237              		.loc 1 486 7 view .LVU382
 1238 053d 4C01FA   		addq	%r15, %rdx
 1239 0540 4C01F6   		addq	%r14, %rsi
 1240 0543 0FB64424 		movzbl	39(%rsp), %eax
 1240      27
 1241 0548 89442408 		movl	%eax, 8(%rsp)
 1242 054c 0FB64424 		movzbl	38(%rsp), %eax
 1242      26
 1243 0551 890424   		movl	%eax, (%rsp)
 1244 0554 440FB64C 		movzbl	37(%rsp), %r9d
 1244      2425
 1245 055a 4989E8   		movq	%rbp, %r8
 1246 055d 4889E9   		movq	%rbp, %rcx
 1247 0560 488B7C24 		movq	24(%rsp), %rdi
 1247      18
 1248 0565 E8000000 		call	FillRect
 1248      00
 1249              	.LVL155:
 1250              	.L80:
 486:src/MyName.c  ****       FillRect(Ctx, X + DX * (INTN)Scale, Y + DY * (INTN)Scale, Scale, Scale, R, G, B);
 1251              		.loc 1 486 7 view .LVU383
 1252              	.LBE23:
 443:src/MyName.c  ****     for(UINTN Col = 0; Col < SrcW; Col++)
 1253              		.loc 1 443 39 is_stmt 1 discriminator 2 view .LVU384
 1254 056a 4883C301 		addq	$1, %rbx
 1255              	.LVL156:
 1256              	.L79:
 443:src/MyName.c  ****     for(UINTN Col = 0; Col < SrcW; Col++)
 1257              		.loc 1 443 28 discriminator 1 view .LVU385
 1258 056e 4883FB04 		cmpq	$4, %rbx
 1259 0572 777A     		ja	.L92
 1260              	.LBB24:
 445:src/MyName.c  ****       if((Bits & (1 << (4 - Col))) == 0)
 1261              		.loc 1 445 7 view .LVU386
 445:src/MyName.c  ****       if((Bits & (1 << (4 - Col))) == 0)
 1262              		.loc 1 445 27 is_stmt 0 view .LVU387
 1263 0574 B9040000 		movl	$4, %ecx
 1263      00
 1264 0579 29D9     		subl	%ebx, %ecx
 445:src/MyName.c  ****       if((Bits & (1 << (4 - Col))) == 0)
 1265              		.loc 1 445 36 view .LVU388
 1266 057b 410FB6C4 		movzbl	%r12b, %eax
 1267 057f D3F8     		sarl	%cl, %eax
 445:src/MyName.c  ****       if((Bits & (1 << (4 - Col))) == 0)
 1268              		.loc 1 445 9 view .LVU389
 1269 0581 A801     		testb	$1, %al
 1270 0583 74E5     		je	.L80
 450:src/MyName.c  ****       INTN DX = 0;
 1271              		.loc 1 450 7 is_stmt 1 view .LVU390
 1272              	.LVL157:
 451:src/MyName.c  ****       INTN DY = 0;
 1273              		.loc 1 451 7 view .LVU391
 453:src/MyName.c  ****       switch(Transform)
 1274              		.loc 1 453 7 view .LVU392
 1275 0585 8B442420 		movl	32(%rsp), %eax
 1276 0589 83F804   		cmpl	$4, %eax
 1277 058c 7755     		ja	.L81
 1278 058e 89C0     		movl	%eax, %eax
 1279 0590 488D1500 		leaq	.L83(%rip), %rdx
 1279      000000
 1280 0597 48630482 		movslq	(%rdx,%rax,4), %rax
 1281 059b 4801D0   		addq	%rdx, %rax
 1282 059e 3EFFE0   		notrack jmp	*%rax
 1283              		.section	.rodata
 1284              		.align 4
 1285              		.align 4
 1286              	.L83:
 1287 0000 00000000 		.long	.L87-.L83
 1288 0004 00000000 		.long	.L86-.L83
 1289 0008 00000000 		.long	.L85-.L83
 1290 000c 00000000 		.long	.L84-.L83
 1291 0010 00000000 		.long	.L82-.L83
 1292              		.text
 1293              	.L86:
 461:src/MyName.c  ****           DX = (INTN)Row;
 1294              		.loc 1 461 11 view .LVU393
 461:src/MyName.c  ****           DX = (INTN)Row;
 1295              		.loc 1 461 14 is_stmt 0 view .LVU394
 1296 05a1 4C89EE   		movq	%r13, %rsi
 1297              	.LVL158:
 462:src/MyName.c  ****           DY = (INTN)(SrcW - 1 - Col);
 1298              		.loc 1 462 11 is_stmt 1 view .LVU395
 462:src/MyName.c  ****           DY = (INTN)(SrcW - 1 - Col);
 1299              		.loc 1 462 14 is_stmt 0 view .LVU396
 1300 05a4 BA040000 		movl	$4, %edx
 1300      00
 1301 05a9 4829DA   		subq	%rbx, %rdx
 1302              	.LVL159:
 463:src/MyName.c  ****           break;
 1303              		.loc 1 463 11 is_stmt 1 view .LVU397
 1304 05ac EB87     		jmp	.L88
 1305              	.LVL160:
 1306              	.L85:
 466:src/MyName.c  ****           DX = (INTN)(SrcH - 1 - Row);
 1307              		.loc 1 466 11 view .LVU398
 466:src/MyName.c  ****           DX = (INTN)(SrcH - 1 - Row);
 1308              		.loc 1 466 14 is_stmt 0 view .LVU399
 1309 05ae BE060000 		movl	$6, %esi
 1309      00
 1310 05b3 4C29EE   		subq	%r13, %rsi
 1311              	.LVL161:
 467:src/MyName.c  ****           DY = (INTN)Col;
 1312              		.loc 1 467 11 is_stmt 1 view .LVU400
 467:src/MyName.c  ****           DY = (INTN)Col;
 1313              		.loc 1 467 14 is_stmt 0 view .LVU401
 1314 05b6 4889DA   		movq	%rbx, %rdx
 1315              	.LVL162:
 468:src/MyName.c  ****           break;
 1316              		.loc 1 468 11 is_stmt 1 view .LVU402
 1317 05b9 E977FFFF 		jmp	.L88
 1317      FF
 1318              	.LVL163:
 1319              	.L84:
 471:src/MyName.c  ****           DX = (INTN)Col;
 1320              		.loc 1 471 11 view .LVU403
 471:src/MyName.c  ****           DX = (INTN)Col;
 1321              		.loc 1 471 14 is_stmt 0 view .LVU404
 1322 05be 4889DE   		movq	%rbx, %rsi
 1323              	.LVL164:
 472:src/MyName.c  ****           DY = (INTN)(SrcH - 1 - Row);
 1324              		.loc 1 472 11 is_stmt 1 view .LVU405
 472:src/MyName.c  ****           DY = (INTN)(SrcH - 1 - Row);
 1325              		.loc 1 472 14 is_stmt 0 view .LVU406
 1326 05c1 BA060000 		movl	$6, %edx
 1326      00
 1327 05c6 4C29EA   		subq	%r13, %rdx
 1328              	.LVL165:
 473:src/MyName.c  ****           break;
 1329              		.loc 1 473 11 is_stmt 1 view .LVU407
 1330 05c9 E967FFFF 		jmp	.L88
 1330      FF
 1331              	.LVL166:
 1332              	.L82:
 476:src/MyName.c  ****           DX = (INTN)(SrcW - 1 - Col);
 1333              		.loc 1 476 11 view .LVU408
 476:src/MyName.c  ****           DX = (INTN)(SrcW - 1 - Col);
 1334              		.loc 1 476 14 is_stmt 0 view .LVU409
 1335 05ce BE040000 		movl	$4, %esi
 1335      00
 1336 05d3 4829DE   		subq	%rbx, %rsi
 1337              	.LVL167:
 477:src/MyName.c  ****           DY = (INTN)(SrcH - 1 - Row);
 1338              		.loc 1 477 11 is_stmt 1 view .LVU410
 477:src/MyName.c  ****           DY = (INTN)(SrcH - 1 - Row);
 1339              		.loc 1 477 14 is_stmt 0 view .LVU411
 1340 05d6 BA060000 		movl	$6, %edx
 1340      00
 1341 05db 4C29EA   		subq	%r13, %rdx
 1342              	.LVL168:
 478:src/MyName.c  ****           break;
 1343              		.loc 1 478 11 is_stmt 1 view .LVU412
 1344 05de E952FFFF 		jmp	.L88
 1344      FF
 1345              	.LVL169:
 1346              	.L81:
 481:src/MyName.c  ****           DX = (INTN)Col;
 1347              		.loc 1 481 11 view .LVU413
 481:src/MyName.c  ****           DX = (INTN)Col;
 1348              		.loc 1 481 14 is_stmt 0 view .LVU414
 1349 05e3 4889DE   		movq	%rbx, %rsi
 1350              	.LVL170:
 482:src/MyName.c  ****           DY = (INTN)Row;
 1351              		.loc 1 482 11 is_stmt 1 view .LVU415
 482:src/MyName.c  ****           DY = (INTN)Row;
 1352              		.loc 1 482 14 is_stmt 0 view .LVU416
 1353 05e6 4C89EA   		movq	%r13, %rdx
 1354              	.LVL171:
 483:src/MyName.c  ****           break;
 1355              		.loc 1 483 11 is_stmt 1 view .LVU417
 1356 05e9 E947FFFF 		jmp	.L88
 1356      FF
 1357              	.LVL172:
 1358              	.L92:
 483:src/MyName.c  ****           break;
 1359              		.loc 1 483 11 is_stmt 0 view .LVU418
 1360              	.LBE24:
 1361              	.LBE22:
 1362              	.LBE21:
 439:src/MyName.c  ****   for(UINTN Row = 0; Row < SrcH; Row++)
 1363              		.loc 1 439 37 is_stmt 1 discriminator 2 view .LVU419
 1364 05ee 4983C501 		addq	$1, %r13
 1365              	.LVL173:
 1366              	.L78:
 439:src/MyName.c  ****   for(UINTN Row = 0; Row < SrcH; Row++)
 1367              		.loc 1 439 26 discriminator 1 view .LVU420
 1368 05f2 4983FD06 		cmpq	$6, %r13
 1369 05f6 7715     		ja	.L76
 1370              	.LBB26:
 441:src/MyName.c  ****     UINT8 Bits = Glyph->rows[Row];
 1371              		.loc 1 441 5 view .LVU421
 441:src/MyName.c  ****     UINT8 Bits = Glyph->rows[Row];
 1372              		.loc 1 441 11 is_stmt 0 view .LVU422
 1373 05f8 488B4424 		movq	40(%rsp), %rax
 1373      28
 1374 05fd 460FB664 		movzbl	1(%rax,%r13), %r12d
 1374      2801
 1375              	.LVL174:
 443:src/MyName.c  ****     for(UINTN Col = 0; Col < SrcW; Col++)
 1376              		.loc 1 443 5 is_stmt 1 view .LVU423
 1377              	.LBB25:
 443:src/MyName.c  ****     for(UINTN Col = 0; Col < SrcW; Col++)
 1378              		.loc 1 443 9 view .LVU424
 443:src/MyName.c  ****     for(UINTN Col = 0; Col < SrcW; Col++)
 1379              		.loc 1 443 15 is_stmt 0 view .LVU425
 1380 0603 BB000000 		movl	$0, %ebx
 1380      00
 443:src/MyName.c  ****     for(UINTN Col = 0; Col < SrcW; Col++)
 1381              		.loc 1 443 5 view .LVU426
 1382 0608 E961FFFF 		jmp	.L79
 1382      FF
 1383              	.LVL175:
 1384              	.L76:
 443:src/MyName.c  ****     for(UINTN Col = 0; Col < SrcW; Col++)
 1385              		.loc 1 443 5 view .LVU427
 1386              	.LBE25:
 1387              	.LBE26:
 1388              	.LBE20:
 489:src/MyName.c  **** }
 1389              		.loc 1 489 1 view .LVU428
 1390 060d 4883C438 		addq	$56, %rsp
 1391              		.cfi_def_cfa_offset 56
 1392 0611 5B       		popq	%rbx
 1393              		.cfi_restore 3
 1394              		.cfi_def_cfa_offset 48
 1395 0612 5D       		popq	%rbp
 1396              		.cfi_restore 6
 1397              		.cfi_def_cfa_offset 40
 1398              	.LVL176:
 489:src/MyName.c  **** }
 1399              		.loc 1 489 1 view .LVU429
 1400 0613 415C     		popq	%r12
 1401              		.cfi_restore 12
 1402              		.cfi_def_cfa_offset 32
 1403 0615 415D     		popq	%r13
 1404              		.cfi_restore 13
 1405              		.cfi_def_cfa_offset 24
 1406 0617 415E     		popq	%r14
 1407              		.cfi_restore 14
 1408              		.cfi_def_cfa_offset 16
 1409              	.LVL177:
 489:src/MyName.c  **** }
 1410              		.loc 1 489 1 view .LVU430
 1411 0619 415F     		popq	%r15
 1412              		.cfi_restore 15
 1413              		.cfi_def_cfa_offset 8
 1414              	.LVL178:
 489:src/MyName.c  **** }
 1415              		.loc 1 489 1 view .LVU431
 1416 061b C3       		ret
 1417              		.cfi_endproc
 1418              	.LFE10:
 1420              		.section	.rodata
 1421              	.LC0:
 1422 0014 4100     		.string	"A"
 1423              		.text
 1424              		.globl	DrawText5x7
 1426              	DrawText5x7:
 1427              	.LVL179:
 1428              	.LFB9:
 403:src/MyName.c  **** {
 1429              		.loc 1 403 1 is_stmt 1 view -0
 1430              		.cfi_startproc
 403:src/MyName.c  **** {
 1431              		.loc 1 403 1 is_stmt 0 view .LVU433
 1432 061c F30F1EFA 		endbr64
 1433 0620 4157     		pushq	%r15
 1434              		.cfi_def_cfa_offset 16
 1435              		.cfi_offset 15, -16
 1436 0622 4156     		pushq	%r14
 1437              		.cfi_def_cfa_offset 24
 1438              		.cfi_offset 14, -24
 1439 0624 4155     		pushq	%r13
 1440              		.cfi_def_cfa_offset 32
 1441              		.cfi_offset 13, -32
 1442 0626 4154     		pushq	%r12
 1443              		.cfi_def_cfa_offset 40
 1444              		.cfi_offset 12, -40
 1445 0628 55       		pushq	%rbp
 1446              		.cfi_def_cfa_offset 48
 1447              		.cfi_offset 6, -48
 1448 0629 53       		pushq	%rbx
 1449              		.cfi_def_cfa_offset 56
 1450              		.cfi_offset 3, -56
 1451 062a 4883EC48 		subq	$72, %rsp
 1452              		.cfi_def_cfa_offset 128
 1453 062e 48897C24 		movq	%rdi, 40(%rsp)
 1453      28
 1454 0633 4989F7   		movq	%rsi, %r15
 1455 0636 4989D6   		movq	%rdx, %r14
 1456 0639 4989CD   		movq	%rcx, %r13
 1457 063c 4C89C3   		movq	%r8, %rbx
 1458 063f 4589CC   		movl	%r9d, %r12d
 1459 0642 0FB68424 		movzbl	128(%rsp), %eax
 1459      80000000 
 1460 064a 88442435 		movb	%al, 53(%rsp)
 1461 064e 0FB68424 		movzbl	136(%rsp), %eax
 1461      88000000 
 1462 0656 88442436 		movb	%al, 54(%rsp)
 1463 065a 0FB68424 		movzbl	144(%rsp), %eax
 1463      90000000 
 1464 0662 88442437 		movb	%al, 55(%rsp)
 404:src/MyName.c  ****   INTN CursorX = X;
 1465              		.loc 1 404 3 is_stmt 1 view .LVU434
 1466              	.LVL180:
 405:src/MyName.c  ****   INTN CursorY = Y;
 1467              		.loc 1 405 3 view .LVU435
 407:src/MyName.c  ****   TEXT_EXTENTS GlyphSize = MeasureText5x7("A", Scale, Transform);
 1468              		.loc 1 407 3 view .LVU436
 407:src/MyName.c  ****   TEXT_EXTENTS GlyphSize = MeasureText5x7("A", Scale, Transform);
 1469              		.loc 1 407 28 is_stmt 0 view .LVU437
 1470 0666 4489CA   		movl	%r9d, %edx
 1471              	.LVL181:
 407:src/MyName.c  ****   TEXT_EXTENTS GlyphSize = MeasureText5x7("A", Scale, Transform);
 1472              		.loc 1 407 28 view .LVU438
 1473 0669 4C89C6   		movq	%r8, %rsi
 1474              	.LVL182:
 407:src/MyName.c  ****   TEXT_EXTENTS GlyphSize = MeasureText5x7("A", Scale, Transform);
 1475              		.loc 1 407 28 view .LVU439
 1476 066c 488D3D00 		leaq	.LC0(%rip), %rdi
 1476      000000
 1477              	.LVL183:
 407:src/MyName.c  ****   TEXT_EXTENTS GlyphSize = MeasureText5x7("A", Scale, Transform);
 1478              		.loc 1 407 28 view .LVU440
 1479 0673 E8000000 		call	MeasureText5x7
 1479      00
 1480              	.LVL184:
 407:src/MyName.c  ****   TEXT_EXTENTS GlyphSize = MeasureText5x7("A", Scale, Transform);
 1481              		.loc 1 407 28 view .LVU441
 1482 0678 48895424 		movq	%rdx, 56(%rsp)
 1482      38
 409:src/MyName.c  ****   for(UINTN i = 0; Text[i] != '\0'; i++)
 1483              		.loc 1 409 3 is_stmt 1 view .LVU442
 1484              	.LBB27:
 409:src/MyName.c  ****   for(UINTN i = 0; Text[i] != '\0'; i++)
 1485              		.loc 1 409 7 view .LVU443
 1486              	.LVL185:
 409:src/MyName.c  ****   for(UINTN i = 0; Text[i] != '\0'; i++)
 1487              		.loc 1 409 13 is_stmt 0 view .LVU444
 1488 067d BD000000 		movl	$0, %ebp
 1488      00
 409:src/MyName.c  ****   for(UINTN i = 0; Text[i] != '\0'; i++)
 1489              		.loc 1 409 3 view .LVU445
 1490 0682 EB10     		jmp	.L94
 1491              	.LVL186:
 1492              	.L101:
 415:src/MyName.c  ****           CursorY -= (INTN)GlyphSize.Height + (INTN)(LETTER_SPACING * Scale);
 1493              		.loc 1 415 11 is_stmt 1 view .LVU446
 415:src/MyName.c  ****           CursorY -= (INTN)GlyphSize.Height + (INTN)(LETTER_SPACING * Scale);
 1494              		.loc 1 415 45 is_stmt 0 view .LVU447
 1495 0684 488B4424 		movq	56(%rsp), %rax
 1495      38
 1496              	.LVL187:
 415:src/MyName.c  ****           CursorY -= (INTN)GlyphSize.Height + (INTN)(LETTER_SPACING * Scale);
 1497              		.loc 1 415 45 view .LVU448
 1498 0689 488D0458 		leaq	(%rax,%rbx,2), %rax
 415:src/MyName.c  ****           CursorY -= (INTN)GlyphSize.Height + (INTN)(LETTER_SPACING * Scale);
 1499              		.loc 1 415 19 view .LVU449
 1500 068d 4929C5   		subq	%rax, %r13
 1501              	.LVL188:
 1502              	.L96:
 409:src/MyName.c  ****   for(UINTN i = 0; Text[i] != '\0'; i++)
 1503              		.loc 1 409 38 is_stmt 1 discriminator 2 view .LVU450
 1504 0690 4883C501 		addq	$1, %rbp
 1505              	.LVL189:
 1506              	.L94:
 409:src/MyName.c  ****   for(UINTN i = 0; Text[i] != '\0'; i++)
 1507              		.loc 1 409 28 discriminator 1 view .LVU451
 409:src/MyName.c  ****   for(UINTN i = 0; Text[i] != '\0'; i++)
 1508              		.loc 1 409 24 is_stmt 0 discriminator 1 view .LVU452
 1509 0694 410FB634 		movzbl	(%r15,%rbp), %esi
 1509      2F
 409:src/MyName.c  ****   for(UINTN i = 0; Text[i] != '\0'; i++)
 1510              		.loc 1 409 28 discriminator 1 view .LVU453
 1511 0699 4084F6   		testb	%sil, %sil
 1512 069c 745B     		je	.L100
 411:src/MyName.c  ****     DrawGlyph5x7(Ctx, Text[i], CursorX, CursorY, Scale, Transform, R, G, B);
 1513              		.loc 1 411 5 is_stmt 1 view .LVU454
 1514 069e 400FB6F6 		movzbl	%sil, %esi
 1515 06a2 0FB64424 		movzbl	55(%rsp), %eax
 1515      37
 1516 06a7 89442410 		movl	%eax, 16(%rsp)
 1517 06ab 0FB64424 		movzbl	54(%rsp), %eax
 1517      36
 1518 06b0 89442408 		movl	%eax, 8(%rsp)
 1519 06b4 0FB64424 		movzbl	53(%rsp), %eax
 1519      35
 1520 06b9 890424   		movl	%eax, (%rsp)
 1521 06bc 4589E1   		movl	%r12d, %r9d
 1522 06bf 4989D8   		movq	%rbx, %r8
 1523 06c2 4C89E9   		movq	%r13, %rcx
 1524 06c5 4C89F2   		movq	%r14, %rdx
 1525 06c8 488B7C24 		movq	40(%rsp), %rdi
 1525      28
 1526 06cd E8000000 		call	DrawGlyph5x7
 1526      00
 1527              	.LVL190:
 413:src/MyName.c  ****       if(Transform == TRANSFORM_ROT_LEFT_90)
 1528              		.loc 1 413 7 view .LVU455
 413:src/MyName.c  ****       if(Transform == TRANSFORM_ROT_LEFT_90)
 1529              		.loc 1 413 9 is_stmt 0 view .LVU456
 1530 06d2 4183FC01 		cmpl	$1, %r12d
 1531 06d6 74AC     		je	.L101
 417:src/MyName.c  ****       else if(Transform == TRANSFORM_ROT_RIGHT_90)
 1532              		.loc 1 417 12 is_stmt 1 view .LVU457
 417:src/MyName.c  ****       else if(Transform == TRANSFORM_ROT_RIGHT_90)
 1533              		.loc 1 417 14 is_stmt 0 view .LVU458
 1534 06d8 4183FC02 		cmpl	$2, %r12d
 1535 06dc 740D     		je	.L102
 423:src/MyName.c  ****           CursorX += (INTN)(5 * Scale) + (INTN)(LETTER_SPACING * Scale);
 1536              		.loc 1 423 11 is_stmt 1 view .LVU459
 423:src/MyName.c  ****           CursorX += (INTN)(5 * Scale) + (INTN)(LETTER_SPACING * Scale);
 1537              		.loc 1 423 31 is_stmt 0 view .LVU460
 1538 06de 488D049B 		leaq	(%rbx,%rbx,4), %rax
 423:src/MyName.c  ****           CursorX += (INTN)(5 * Scale) + (INTN)(LETTER_SPACING * Scale);
 1539              		.loc 1 423 40 view .LVU461
 1540 06e2 488D0458 		leaq	(%rax,%rbx,2), %rax
 423:src/MyName.c  ****           CursorX += (INTN)(5 * Scale) + (INTN)(LETTER_SPACING * Scale);
 1541              		.loc 1 423 19 view .LVU462
 1542 06e6 4901C6   		addq	%rax, %r14
 1543              	.LVL191:
 423:src/MyName.c  ****           CursorX += (INTN)(5 * Scale) + (INTN)(LETTER_SPACING * Scale);
 1544              		.loc 1 423 19 view .LVU463
 1545 06e9 EBA5     		jmp	.L96
 1546              	.L102:
 419:src/MyName.c  ****           CursorY += (INTN)GlyphSize.Height + (INTN)(LETTER_SPACING * Scale);
 1547              		.loc 1 419 11 is_stmt 1 view .LVU464
 419:src/MyName.c  ****           CursorY += (INTN)GlyphSize.Height + (INTN)(LETTER_SPACING * Scale);
 1548              		.loc 1 419 45 is_stmt 0 view .LVU465
 1549 06eb 488B4424 		movq	56(%rsp), %rax
 1549      38
 419:src/MyName.c  ****           CursorY += (INTN)GlyphSize.Height + (INTN)(LETTER_SPACING * Scale);
 1550              		.loc 1 419 45 view .LVU466
 1551 06f0 488D0458 		leaq	(%rax,%rbx,2), %rax
 419:src/MyName.c  ****           CursorY += (INTN)GlyphSize.Height + (INTN)(LETTER_SPACING * Scale);
 1552              		.loc 1 419 19 view .LVU467
 1553 06f4 4901C5   		addq	%rax, %r13
 1554              	.LVL192:
 419:src/MyName.c  ****           CursorY += (INTN)GlyphSize.Height + (INTN)(LETTER_SPACING * Scale);
 1555              		.loc 1 419 19 view .LVU468
 1556 06f7 EB97     		jmp	.L96
 1557              	.L100:
 419:src/MyName.c  ****           CursorY += (INTN)GlyphSize.Height + (INTN)(LETTER_SPACING * Scale);
 1558              		.loc 1 419 19 view .LVU469
 1559              	.LBE27:
 426:src/MyName.c  **** }
 1560              		.loc 1 426 1 view .LVU470
 1561 06f9 4883C448 		addq	$72, %rsp
 1562              		.cfi_def_cfa_offset 56
 1563 06fd 5B       		popq	%rbx
 1564              		.cfi_restore 3
 1565              		.cfi_def_cfa_offset 48
 1566              	.LVL193:
 426:src/MyName.c  **** }
 1567              		.loc 1 426 1 view .LVU471
 1568 06fe 5D       		popq	%rbp
 1569              		.cfi_restore 6
 1570              		.cfi_def_cfa_offset 40
 1571              	.LVL194:
 426:src/MyName.c  **** }
 1572              		.loc 1 426 1 view .LVU472
 1573 06ff 415C     		popq	%r12
 1574              		.cfi_restore 12
 1575              		.cfi_def_cfa_offset 32
 1576              	.LVL195:
 426:src/MyName.c  **** }
 1577              		.loc 1 426 1 view .LVU473
 1578 0701 415D     		popq	%r13
 1579              		.cfi_restore 13
 1580              		.cfi_def_cfa_offset 24
 1581              	.LVL196:
 426:src/MyName.c  **** }
 1582              		.loc 1 426 1 view .LVU474
 1583 0703 415E     		popq	%r14
 1584              		.cfi_restore 14
 1585              		.cfi_def_cfa_offset 16
 1586              	.LVL197:
 426:src/MyName.c  **** }
 1587              		.loc 1 426 1 view .LVU475
 1588 0705 415F     		popq	%r15
 1589              		.cfi_restore 15
 1590              		.cfi_def_cfa_offset 8
 1591              	.LVL198:
 426:src/MyName.c  **** }
 1592              		.loc 1 426 1 view .LVU476
 1593 0707 C3       		ret
 1594              		.cfi_endproc
 1595              	.LFE9:
 1597              		.section	.rodata
 1598              	.LC1:
 1599 0016 4C454654 		.string	"LEFT RIGHT UP DOWN"
 1599      20524947 
 1599      48542055 
 1599      5020444F 
 1599      574E00
 1600              	.LC2:
 1601 0029 52205245 		.string	"R RESTART"
 1601      53544152 
 1601      5400
 1602              	.LC3:
 1603 0033 45534320 		.string	"ESC EXIT"
 1603      45584954 
 1603      00
 1604              		.text
 1605              		.globl	DrawInstructionBar
 1607              	DrawInstructionBar:
 1608              	.LVL199:
 1609              	.LFB3:
 272:src/MyName.c  **** {
 1610              		.loc 1 272 1 is_stmt 1 view -0
 1611              		.cfi_startproc
 272:src/MyName.c  **** {
 1612              		.loc 1 272 1 is_stmt 0 view .LVU478
 1613 0708 F30F1EFA 		endbr64
 1614 070c 53       		pushq	%rbx
 1615              		.cfi_def_cfa_offset 16
 1616              		.cfi_offset 3, -16
 1617 070d 4883EC20 		subq	$32, %rsp
 1618              		.cfi_def_cfa_offset 48
 1619 0711 4889FB   		movq	%rdi, %rbx
 273:src/MyName.c  ****   FillRect(Ctx, 0, (INTN)Ctx->Height - 42, Ctx->Width, 42, 0, 0, 0);
 1620              		.loc 1 273 3 is_stmt 1 view .LVU479
 273:src/MyName.c  ****   FillRect(Ctx, 0, (INTN)Ctx->Height - 42, Ctx->Width, 42, 0, 0, 0);
 1621              		.loc 1 273 20 is_stmt 0 view .LVU480
 1622 0714 8B5704   		movl	4(%rdi), %edx
 273:src/MyName.c  ****   FillRect(Ctx, 0, (INTN)Ctx->Height - 42, Ctx->Width, 42, 0, 0, 0);
 1623              		.loc 1 273 3 view .LVU481
 1624 0717 8B0F     		movl	(%rdi), %ecx
 1625 0719 4883EA2A 		subq	$42, %rdx
 1626 071d C7442408 		movl	$0, 8(%rsp)
 1626      00000000 
 1627 0725 C7042400 		movl	$0, (%rsp)
 1627      000000
 1628 072c 41B90000 		movl	$0, %r9d
 1628      0000
 1629 0732 41B82A00 		movl	$42, %r8d
 1629      0000
 1630 0738 BE000000 		movl	$0, %esi
 1630      00
 1631 073d E8000000 		call	FillRect
 1631      00
 1632              	.LVL200:
 278:src/MyName.c  ****   DrawText5x7(Ctx, "LEFT RIGHT UP DOWN", 14, (INTN)Ctx->Height - 34, 2, TRANSFORM_NORMAL, INFO_R, I
 1633              		.loc 1 278 3 is_stmt 1 view .LVU482
 278:src/MyName.c  ****   DrawText5x7(Ctx, "LEFT RIGHT UP DOWN", 14, (INTN)Ctx->Height - 34, 2, TRANSFORM_NORMAL, INFO_R, I
 1634              		.loc 1 278 46 is_stmt 0 view .LVU483
 1635 0742 8B4B04   		movl	4(%rbx), %ecx
 278:src/MyName.c  ****   DrawText5x7(Ctx, "LEFT RIGHT UP DOWN", 14, (INTN)Ctx->Height - 34, 2, TRANSFORM_NORMAL, INFO_R, I
 1636              		.loc 1 278 3 view .LVU484
 1637 0745 4883E922 		subq	$34, %rcx
 1638 0749 C7442410 		movl	$255, 16(%rsp)
 1638      FF000000 
 1639 0751 C7442408 		movl	$200, 8(%rsp)
 1639      C8000000 
 1640 0759 C7042478 		movl	$120, (%rsp)
 1640      000000
 1641 0760 41B90000 		movl	$0, %r9d
 1641      0000
 1642 0766 41B80200 		movl	$2, %r8d
 1642      0000
 1643 076c BA0E0000 		movl	$14, %edx
 1643      00
 1644 0771 488D3500 		leaq	.LC1(%rip), %rsi
 1644      000000
 1645 0778 4889DF   		movq	%rbx, %rdi
 1646 077b E8000000 		call	DrawText5x7
 1646      00
 1647              	.LVL201:
 279:src/MyName.c  ****   DrawText5x7(Ctx, "R RESTART", 14, (INTN)Ctx->Height - 18, 2, TRANSFORM_NORMAL, INFO_R, INFO_G, IN
 1648              		.loc 1 279 3 is_stmt 1 view .LVU485
 279:src/MyName.c  ****   DrawText5x7(Ctx, "R RESTART", 14, (INTN)Ctx->Height - 18, 2, TRANSFORM_NORMAL, INFO_R, INFO_G, IN
 1649              		.loc 1 279 37 is_stmt 0 view .LVU486
 1650 0780 8B4B04   		movl	4(%rbx), %ecx
 279:src/MyName.c  ****   DrawText5x7(Ctx, "R RESTART", 14, (INTN)Ctx->Height - 18, 2, TRANSFORM_NORMAL, INFO_R, INFO_G, IN
 1651              		.loc 1 279 3 view .LVU487
 1652 0783 4883E912 		subq	$18, %rcx
 1653 0787 C7442410 		movl	$255, 16(%rsp)
 1653      FF000000 
 1654 078f C7442408 		movl	$200, 8(%rsp)
 1654      C8000000 
 1655 0797 C7042478 		movl	$120, (%rsp)
 1655      000000
 1656 079e 41B90000 		movl	$0, %r9d
 1656      0000
 1657 07a4 41B80200 		movl	$2, %r8d
 1657      0000
 1658 07aa BA0E0000 		movl	$14, %edx
 1658      00
 1659 07af 488D3500 		leaq	.LC2(%rip), %rsi
 1659      000000
 1660 07b6 4889DF   		movq	%rbx, %rdi
 1661 07b9 E8000000 		call	DrawText5x7
 1661      00
 1662              	.LVL202:
 280:src/MyName.c  ****   DrawText5x7(Ctx, "ESC EXIT", (INTN)Ctx->Width - 120, (INTN)Ctx->Height - 18, 2, TRANSFORM_NORMAL,
 1663              		.loc 1 280 3 is_stmt 1 view .LVU488
 280:src/MyName.c  ****   DrawText5x7(Ctx, "ESC EXIT", (INTN)Ctx->Width - 120, (INTN)Ctx->Height - 18, 2, TRANSFORM_NORMAL,
 1664              		.loc 1 280 56 is_stmt 0 view .LVU489
 1665 07be 8B4B04   		movl	4(%rbx), %ecx
 280:src/MyName.c  ****   DrawText5x7(Ctx, "ESC EXIT", (INTN)Ctx->Width - 120, (INTN)Ctx->Height - 18, 2, TRANSFORM_NORMAL,
 1666              		.loc 1 280 32 view .LVU490
 1667 07c1 8B13     		movl	(%rbx), %edx
 280:src/MyName.c  ****   DrawText5x7(Ctx, "ESC EXIT", (INTN)Ctx->Width - 120, (INTN)Ctx->Height - 18, 2, TRANSFORM_NORMAL,
 1668              		.loc 1 280 3 view .LVU491
 1669 07c3 4883E912 		subq	$18, %rcx
 1670 07c7 4883EA78 		subq	$120, %rdx
 1671 07cb C7442410 		movl	$255, 16(%rsp)
 1671      FF000000 
 1672 07d3 C7442408 		movl	$200, 8(%rsp)
 1672      C8000000 
 1673 07db C7042478 		movl	$120, (%rsp)
 1673      000000
 1674 07e2 41B90000 		movl	$0, %r9d
 1674      0000
 1675 07e8 41B80200 		movl	$2, %r8d
 1675      0000
 1676 07ee 488D3500 		leaq	.LC3(%rip), %rsi
 1676      000000
 1677 07f5 4889DF   		movq	%rbx, %rdi
 1678 07f8 E8000000 		call	DrawText5x7
 1678      00
 1679              	.LVL203:
 281:src/MyName.c  **** }
 1680              		.loc 1 281 1 view .LVU492
 1681 07fd 4883C420 		addq	$32, %rsp
 1682              		.cfi_def_cfa_offset 16
 1683 0801 5B       		popq	%rbx
 1684              		.cfi_restore 3
 1685              		.cfi_def_cfa_offset 8
 1686              	.LVL204:
 281:src/MyName.c  **** }
 1687              		.loc 1 281 1 view .LVU493
 1688 0802 C3       		ret
 1689              		.cfi_endproc
 1690              	.LFE3:
 1692              		.globl	DrawScene
 1694              	DrawScene:
 1695              	.LVL205:
 1696              	.LFB2:
 229:src/MyName.c  **** {
 1697              		.loc 1 229 1 is_stmt 1 view -0
 1698              		.cfi_startproc
 229:src/MyName.c  **** {
 1699              		.loc 1 229 1 is_stmt 0 view .LVU495
 1700 0803 F30F1EFA 		endbr64
 1701 0807 4157     		pushq	%r15
 1702              		.cfi_def_cfa_offset 16
 1703              		.cfi_offset 15, -16
 1704 0809 4156     		pushq	%r14
 1705              		.cfi_def_cfa_offset 24
 1706              		.cfi_offset 14, -24
 1707 080b 4155     		pushq	%r13
 1708              		.cfi_def_cfa_offset 32
 1709              		.cfi_offset 13, -32
 1710 080d 4154     		pushq	%r12
 1711              		.cfi_def_cfa_offset 40
 1712              		.cfi_offset 12, -40
 1713 080f 55       		pushq	%rbp
 1714              		.cfi_def_cfa_offset 48
 1715              		.cfi_offset 6, -48
 1716 0810 53       		pushq	%rbx
 1717              		.cfi_def_cfa_offset 56
 1718              		.cfi_offset 3, -56
 1719 0811 4883EC58 		subq	$88, %rsp
 1720              		.cfi_def_cfa_offset 144
 1721 0815 4889FB   		movq	%rdi, %rbx
 1722 0818 4989F7   		movq	%rsi, %r15
 1723 081b 48897424 		movq	%rsi, 32(%rsp)
 1723      20
 1724 0820 4989D6   		movq	%rdx, %r14
 1725 0823 48895424 		movq	%rdx, 40(%rsp)
 1725      28
 1726 0828 48894C24 		movq	%rcx, 48(%rsp)
 1726      30
 1727 082d 4C894424 		movq	%r8, 56(%rsp)
 1727      38
 1728 0832 4589CD   		movl	%r9d, %r13d
 230:src/MyName.c  ****     ClearScreenColor(Ctx, BG_R, BG_G, BG_B);
 1729              		.loc 1 230 5 is_stmt 1 view .LVU496
 1730 0835 B91E0000 		movl	$30, %ecx
 1730      00
 1731              	.LVL206:
 230:src/MyName.c  ****     ClearScreenColor(Ctx, BG_R, BG_G, BG_B);
 1732              		.loc 1 230 5 is_stmt 0 view .LVU497
 1733 083a BA0A0000 		movl	$10, %edx
 1733      00
 1734              	.LVL207:
 230:src/MyName.c  ****     ClearScreenColor(Ctx, BG_R, BG_G, BG_B);
 1735              		.loc 1 230 5 view .LVU498
 1736 083f BE0A0000 		movl	$10, %esi
 1736      00
 1737              	.LVL208:
 230:src/MyName.c  ****     ClearScreenColor(Ctx, BG_R, BG_G, BG_B);
 1738              		.loc 1 230 5 view .LVU499
 1739 0844 E8000000 		call	ClearScreenColor
 1739      00
 1740              	.LVL209:
 232:src/MyName.c  ****     TEXT_EXTENTS T1 = MeasureText5x7(Name1, LETTER_SCALE, Transform);
 1741              		.loc 1 232 5 is_stmt 1 view .LVU500
 232:src/MyName.c  ****     TEXT_EXTENTS T1 = MeasureText5x7(Name1, LETTER_SCALE, Transform);
 1742              		.loc 1 232 23 is_stmt 0 view .LVU501
 1743 0849 4489EA   		movl	%r13d, %edx
 1744 084c BE060000 		movl	$6, %esi
 1744      00
 1745 0851 4C89FF   		movq	%r15, %rdi
 1746 0854 E8000000 		call	MeasureText5x7
 1746      00
 1747              	.LVL210:
 1748 0859 4889C5   		movq	%rax, %rbp
 1749              	.LVL211:
 232:src/MyName.c  ****     TEXT_EXTENTS T1 = MeasureText5x7(Name1, LETTER_SCALE, Transform);
 1750              		.loc 1 232 23 view .LVU502
 1751 085c 4989D7   		movq	%rdx, %r15
 1752              	.LVL212:
 232:src/MyName.c  ****     TEXT_EXTENTS T1 = MeasureText5x7(Name1, LETTER_SCALE, Transform);
 1753              		.loc 1 232 23 view .LVU503
 1754 085f 48895424 		movq	%rdx, 72(%rsp)
 1754      48
 233:src/MyName.c  ****     TEXT_EXTENTS T2 = MeasureText5x7(Name2, LETTER_SCALE, Transform);
 1755              		.loc 1 233 5 is_stmt 1 view .LVU504
 233:src/MyName.c  ****     TEXT_EXTENTS T2 = MeasureText5x7(Name2, LETTER_SCALE, Transform);
 1756              		.loc 1 233 23 is_stmt 0 view .LVU505
 1757 0864 4489EA   		movl	%r13d, %edx
 233:src/MyName.c  ****     TEXT_EXTENTS T2 = MeasureText5x7(Name2, LETTER_SCALE, Transform);
 1758              		.loc 1 233 23 view .LVU506
 1759 0867 BE060000 		movl	$6, %esi
 1759      00
 1760 086c 4C89F7   		movq	%r14, %rdi
 1761 086f E8000000 		call	MeasureText5x7
 1761      00
 1762              	.LVL213:
 235:src/MyName.c  ****     UINTN TotalW = (T1.Width > T2.Width ? T1.Width : T2.Width);
 1763              		.loc 1 235 5 is_stmt 1 view .LVU507
 235:src/MyName.c  ****     UINTN TotalW = (T1.Width > T2.Width ? T1.Width : T2.Width);
 1764              		.loc 1 235 11 is_stmt 0 view .LVU508
 1765 0874 4839E8   		cmpq	%rbp, %rax
 1766 0877 480F43E8 		cmovnb	%rax, %rbp
 1767              	.LVL214:
 236:src/MyName.c  ****     UINTN TotalH = T1.Height + NAME_GAP + T2.Height;
 1768              		.loc 1 236 5 is_stmt 1 view .LVU509
 236:src/MyName.c  ****     UINTN TotalH = T1.Height + NAME_GAP + T2.Height;
 1769              		.loc 1 236 41 is_stmt 0 view .LVU510
 1770 087b 4D8D3417 		leaq	(%r15,%rdx), %r14
 1771              	.LVL215:
 236:src/MyName.c  ****     UINTN TotalH = T1.Height + NAME_GAP + T2.Height;
 1772              		.loc 1 236 11 view .LVU511
 1773 087f 4D8D7E12 		leaq	18(%r14), %r15
 1774              	.LVL216:
 238:src/MyName.c  ****     UINTN BoxW = TotalW + 40;
 1775              		.loc 1 238 5 is_stmt 1 view .LVU512
 238:src/MyName.c  ****     UINTN BoxW = TotalW + 40;
 1776              		.loc 1 238 11 is_stmt 0 view .LVU513
 1777 0883 488D4D28 		leaq	40(%rbp), %rcx
 1778              	.LVL217:
 239:src/MyName.c  ****     UINTN BoxH = TotalH + 40;
 1779              		.loc 1 239 5 is_stmt 1 view .LVU514
 239:src/MyName.c  ****     UINTN BoxH = TotalH + 40;
 1780              		.loc 1 239 11 is_stmt 0 view .LVU515
 1781 0887 4D8D463A 		leaq	58(%r14), %r8
 1782              	.LVL218:
 241:src/MyName.c  ****     INTN BoxX = ((INTN)Ctx->Width - (INTN)BoxW) / 2;
 1783              		.loc 1 241 5 is_stmt 1 view .LVU516
 241:src/MyName.c  ****     INTN BoxX = ((INTN)Ctx->Width - (INTN)BoxW) / 2;
 1784              		.loc 1 241 18 is_stmt 0 view .LVU517
 1785 088b 8B03     		movl	(%rbx), %eax
 241:src/MyName.c  ****     INTN BoxX = ((INTN)Ctx->Width - (INTN)BoxW) / 2;
 1786              		.loc 1 241 35 view .LVU518
 1787 088d 4829C8   		subq	%rcx, %rax
 241:src/MyName.c  ****     INTN BoxX = ((INTN)Ctx->Width - (INTN)BoxW) / 2;
 1788              		.loc 1 241 10 view .LVU519
 1789 0890 4889C2   		movq	%rax, %rdx
 1790 0893 48C1EA3F 		shrq	$63, %rdx
 1791 0897 4801D0   		addq	%rdx, %rax
 1792 089a 48D1F8   		sarq	%rax
 1793 089d 4889C7   		movq	%rax, %rdi
 1794              	.LVL219:
 242:src/MyName.c  ****     INTN BoxY = ((INTN)Ctx->Height - (INTN)BoxH) / 2;
 1795              		.loc 1 242 5 is_stmt 1 view .LVU520
 242:src/MyName.c  ****     INTN BoxY = ((INTN)Ctx->Height - (INTN)BoxH) / 2;
 1796              		.loc 1 242 18 is_stmt 0 view .LVU521
 1797 08a0 8B4304   		movl	4(%rbx), %eax
 1798              	.LVL220:
 242:src/MyName.c  ****     INTN BoxY = ((INTN)Ctx->Height - (INTN)BoxH) / 2;
 1799              		.loc 1 242 36 view .LVU522
 1800 08a3 4C29C0   		subq	%r8, %rax
 242:src/MyName.c  ****     INTN BoxY = ((INTN)Ctx->Height - (INTN)BoxH) / 2;
 1801              		.loc 1 242 10 view .LVU523
 1802 08a6 4989C4   		movq	%rax, %r12
 1803 08a9 49C1EC3F 		shrq	$63, %r12
 1804 08ad 4901C4   		addq	%rax, %r12
 1805 08b0 49D1FC   		sarq	%r12
 1806              	.LVL221:
 244:src/MyName.c  ****     FillRect(Ctx, BoxX, BoxY, BoxW, BoxH, 40, 40, 70);
 1807              		.loc 1 244 5 is_stmt 1 view .LVU524
 1808 08b3 C7442408 		movl	$70, 8(%rsp)
 1808      46000000 
 1809 08bb C7042428 		movl	$40, (%rsp)
 1809      000000
 1810 08c2 41B92800 		movl	$40, %r9d
 1810      0000
 1811 08c8 4C89E2   		movq	%r12, %rdx
 1812 08cb 48897C24 		movq	%rdi, 64(%rsp)
 1812      40
 1813 08d0 4889FE   		movq	%rdi, %rsi
 1814 08d3 4889DF   		movq	%rbx, %rdi
 1815              	.LVL222:
 244:src/MyName.c  ****     FillRect(Ctx, BoxX, BoxY, BoxW, BoxH, 40, 40, 70);
 1816              		.loc 1 244 5 is_stmt 0 view .LVU525
 1817 08d6 E8000000 		call	FillRect
 1817      00
 1818              	.LVL223:
 245:src/MyName.c  ****     FillRect(Ctx, BoxX + 6, BoxY + 6, BoxW - 12, BoxH - 12, BG_R, BG_G, BG_B);
 1819              		.loc 1 245 5 is_stmt 1 view .LVU526
 1820 08db 488D4D1C 		leaq	28(%rbp), %rcx
 1821 08df 498D5424 		leaq	6(%r12), %rdx
 1821      06
 1822 08e4 488B7C24 		movq	64(%rsp), %rdi
 1822      40
 1823 08e9 488D7706 		leaq	6(%rdi), %rsi
 1824 08ed C7442408 		movl	$30, 8(%rsp)
 1824      1E000000 
 1825 08f5 C704240A 		movl	$10, (%rsp)
 1825      000000
 1826 08fc 41B90A00 		movl	$10, %r9d
 1826      0000
 1827 0902 4D8D462E 		leaq	46(%r14), %r8
 1828 0906 4889DF   		movq	%rbx, %rdi
 1829 0909 E8000000 		call	FillRect
 1829      00
 1830              	.LVL224:
 250:src/MyName.c  ****     INTN StartX = X - ((INTN)TotalW / 2);
 1831              		.loc 1 250 5 view .LVU527
 250:src/MyName.c  ****     INTN StartX = X - ((INTN)TotalW / 2);
 1832              		.loc 1 250 37 is_stmt 0 view .LVU528
 1833 090e 4889E8   		movq	%rbp, %rax
 1834 0911 48C1E83F 		shrq	$63, %rax
 1835 0915 4801E8   		addq	%rbp, %rax
 1836 0918 48D1F8   		sarq	%rax
 250:src/MyName.c  ****     INTN StartX = X - ((INTN)TotalW / 2);
 1837              		.loc 1 250 10 view .LVU529
 1838 091b 4C8B6424 		movq	48(%rsp), %r12
 1838      30
 1839              	.LVL225:
 250:src/MyName.c  ****     INTN StartX = X - ((INTN)TotalW / 2);
 1840              		.loc 1 250 10 view .LVU530
 1841 0920 4929C4   		subq	%rax, %r12
 1842              	.LVL226:
 251:src/MyName.c  ****     INTN StartY = Y - ((INTN)TotalH / 2);
 1843              		.loc 1 251 5 is_stmt 1 view .LVU531
 251:src/MyName.c  ****     INTN StartY = Y - ((INTN)TotalH / 2);
 1844              		.loc 1 251 37 is_stmt 0 view .LVU532
 1845 0923 4C89F8   		movq	%r15, %rax
 1846 0926 48C1E83F 		shrq	$63, %rax
 1847 092a 4C01F8   		addq	%r15, %rax
 1848 092d 48D1F8   		sarq	%rax
 251:src/MyName.c  ****     INTN StartY = Y - ((INTN)TotalH / 2);
 1849              		.loc 1 251 10 view .LVU533
 1850 0930 4C8B7424 		movq	56(%rsp), %r14
 1850      38
 1851              	.LVL227:
 251:src/MyName.c  ****     INTN StartY = Y - ((INTN)TotalH / 2);
 1852              		.loc 1 251 10 view .LVU534
 1853 0935 4929C6   		subq	%rax, %r14
 1854              	.LVL228:
 256:src/MyName.c  ****     if(StartX < SCREEN_MARGIN) StartX = SCREEN_MARGIN;
 1855              		.loc 1 256 5 is_stmt 1 view .LVU535
 256:src/MyName.c  ****     if(StartX < SCREEN_MARGIN) StartX = SCREEN_MARGIN;
 1856              		.loc 1 256 7 is_stmt 0 view .LVU536
 1857 0938 4983FC0F 		cmpq	$15, %r12
 1858 093c 7F06     		jg	.L106
 256:src/MyName.c  ****     if(StartX < SCREEN_MARGIN) StartX = SCREEN_MARGIN;
 1859              		.loc 1 256 39 discriminator 1 view .LVU537
 1860 093e 41BC1000 		movl	$16, %r12d
 1860      0000
 1861              	.LVL229:
 1862              	.L106:
 257:src/MyName.c  ****     if(StartY < SCREEN_MARGIN) StartY = SCREEN_MARGIN;
 1863              		.loc 1 257 5 is_stmt 1 view .LVU538
 257:src/MyName.c  ****     if(StartY < SCREEN_MARGIN) StartY = SCREEN_MARGIN;
 1864              		.loc 1 257 7 is_stmt 0 view .LVU539
 1865 0944 4983FE0F 		cmpq	$15, %r14
 1866 0948 7F06     		jg	.L107
 257:src/MyName.c  ****     if(StartY < SCREEN_MARGIN) StartY = SCREEN_MARGIN;
 1867              		.loc 1 257 39 discriminator 1 view .LVU540
 1868 094a 41BE1000 		movl	$16, %r14d
 1868      0000
 1869              	.LVL230:
 1870              	.L107:
 259:src/MyName.c  ****     if(StartX + (INTN)TotalW >= (INTN)Ctx->Width - SCREEN_MARGIN)
 1871              		.loc 1 259 5 is_stmt 1 view .LVU541
 259:src/MyName.c  ****     if(StartX + (INTN)TotalW >= (INTN)Ctx->Width - SCREEN_MARGIN)
 1872              		.loc 1 259 15 is_stmt 0 view .LVU542
 1873 0950 4A8D4C25 		leaq	0(%rbp,%r12), %rcx
 1873      00
 259:src/MyName.c  ****     if(StartX + (INTN)TotalW >= (INTN)Ctx->Width - SCREEN_MARGIN)
 1874              		.loc 1 259 42 view .LVU543
 1875 0955 8B03     		movl	(%rbx), %eax
 259:src/MyName.c  ****     if(StartX + (INTN)TotalW >= (INTN)Ctx->Width - SCREEN_MARGIN)
 1876              		.loc 1 259 33 view .LVU544
 1877 0957 89C2     		movl	%eax, %edx
 259:src/MyName.c  ****     if(StartX + (INTN)TotalW >= (INTN)Ctx->Width - SCREEN_MARGIN)
 1878              		.loc 1 259 50 view .LVU545
 1879 0959 4883EA10 		subq	$16, %rdx
 259:src/MyName.c  ****     if(StartX + (INTN)TotalW >= (INTN)Ctx->Width - SCREEN_MARGIN)
 1880              		.loc 1 259 7 view .LVU546
 1881 095d 4839D1   		cmpq	%rdx, %rcx
 1882 0960 7C09     		jl	.L108
 260:src/MyName.c  ****         StartX = (INTN)Ctx->Width - SCREEN_MARGIN - (INTN)TotalW;
 1883              		.loc 1 260 9 is_stmt 1 view .LVU547
 260:src/MyName.c  ****         StartX = (INTN)Ctx->Width - SCREEN_MARGIN - (INTN)TotalW;
 1884              		.loc 1 260 51 is_stmt 0 view .LVU548
 1885 0962 89C0     		movl	%eax, %eax
 1886 0964 4829E8   		subq	%rbp, %rax
 260:src/MyName.c  ****         StartX = (INTN)Ctx->Width - SCREEN_MARGIN - (INTN)TotalW;
 1887              		.loc 1 260 16 view .LVU549
 1888 0967 4C8D60F0 		leaq	-16(%rax), %r12
 1889              	.LVL231:
 1890              	.L108:
 262:src/MyName.c  ****     if(StartY + (INTN)TotalH >= (INTN)Ctx->Height - SCREEN_MARGIN - 50)
 1891              		.loc 1 262 5 is_stmt 1 view .LVU550
 262:src/MyName.c  ****     if(StartY + (INTN)TotalH >= (INTN)Ctx->Height - SCREEN_MARGIN - 50)
 1892              		.loc 1 262 15 is_stmt 0 view .LVU551
 1893 096b 4B8D0C37 		leaq	(%r15,%r14), %rcx
 262:src/MyName.c  ****     if(StartY + (INTN)TotalH >= (INTN)Ctx->Height - SCREEN_MARGIN - 50)
 1894              		.loc 1 262 42 view .LVU552
 1895 096f 8B4304   		movl	4(%rbx), %eax
 262:src/MyName.c  ****     if(StartY + (INTN)TotalH >= (INTN)Ctx->Height - SCREEN_MARGIN - 50)
 1896              		.loc 1 262 33 view .LVU553
 1897 0972 89C2     		movl	%eax, %edx
 262:src/MyName.c  ****     if(StartY + (INTN)TotalH >= (INTN)Ctx->Height - SCREEN_MARGIN - 50)
 1898              		.loc 1 262 67 view .LVU554
 1899 0974 4883EA42 		subq	$66, %rdx
 262:src/MyName.c  ****     if(StartY + (INTN)TotalH >= (INTN)Ctx->Height - SCREEN_MARGIN - 50)
 1900              		.loc 1 262 7 view .LVU555
 1901 0978 4839D1   		cmpq	%rdx, %rcx
 1902 097b 7C09     		jl	.L109
 263:src/MyName.c  ****         StartY = (INTN)Ctx->Height - SCREEN_MARGIN - 50 - (INTN)TotalH;
 1903              		.loc 1 263 9 is_stmt 1 view .LVU556
 263:src/MyName.c  ****         StartY = (INTN)Ctx->Height - SCREEN_MARGIN - 50 - (INTN)TotalH;
 1904              		.loc 1 263 57 is_stmt 0 view .LVU557
 1905 097d 89C0     		movl	%eax, %eax
 1906 097f 4C29F8   		subq	%r15, %rax
 263:src/MyName.c  ****         StartY = (INTN)Ctx->Height - SCREEN_MARGIN - 50 - (INTN)TotalH;
 1907              		.loc 1 263 16 view .LVU558
 1908 0982 4C8D70BE 		leaq	-66(%rax), %r14
 1909              	.LVL232:
 1910              	.L109:
 265:src/MyName.c  ****     DrawText5x7(Ctx, Name1, StartX, StartY, LETTER_SCALE, Transform, FG_R, FG_G, FG_B);
 1911              		.loc 1 265 5 is_stmt 1 view .LVU559
 1912 0986 C7442410 		movl	$255, 16(%rsp)
 1912      FF000000 
 1913 098e C7442408 		movl	$255, 8(%rsp)
 1913      FF000000 
 1914 0996 C70424FF 		movl	$255, (%rsp)
 1914      000000
 1915 099d 4589E9   		movl	%r13d, %r9d
 1916 09a0 41B80600 		movl	$6, %r8d
 1916      0000
 1917 09a6 4C89F1   		movq	%r14, %rcx
 1918 09a9 4C89E2   		movq	%r12, %rdx
 1919 09ac 488B7424 		movq	32(%rsp), %rsi
 1919      20
 1920 09b1 4889DF   		movq	%rbx, %rdi
 1921 09b4 E8000000 		call	DrawText5x7
 1921      00
 1922              	.LVL233:
 266:src/MyName.c  ****     DrawText5x7(Ctx, Name2, StartX, StartY + (INTN)T1.Height + NAME_GAP, LETTER_SCALE, Transform, F
 1923              		.loc 1 266 5 view .LVU560
 1924 09b9 488B4424 		movq	72(%rsp), %rax
 1924      48
 266:src/MyName.c  ****     DrawText5x7(Ctx, Name2, StartX, StartY + (INTN)T1.Height + NAME_GAP, LETTER_SCALE, Transform, F
 1925              		.loc 1 266 5 is_stmt 0 view .LVU561
 1926 09be 498D4C06 		leaq	18(%r14,%rax), %rcx
 1926      12
 1927 09c3 C7442410 		movl	$255, 16(%rsp)
 1927      FF000000 
 1928 09cb C7442408 		movl	$255, 8(%rsp)
 1928      FF000000 
 1929 09d3 C70424FF 		movl	$255, (%rsp)
 1929      000000
 1930 09da 4589E9   		movl	%r13d, %r9d
 1931 09dd 41B80600 		movl	$6, %r8d
 1931      0000
 1932 09e3 4C89E2   		movq	%r12, %rdx
 1933 09e6 488B7424 		movq	40(%rsp), %rsi
 1933      28
 1934 09eb 4889DF   		movq	%rbx, %rdi
 1935 09ee E8000000 		call	DrawText5x7
 1935      00
 1936              	.LVL234:
 268:src/MyName.c  ****     DrawInstructionBar(Ctx);
 1937              		.loc 1 268 5 is_stmt 1 view .LVU562
 1938 09f3 4889DF   		movq	%rbx, %rdi
 1939 09f6 E8000000 		call	DrawInstructionBar
 1939      00
 1940              	.LVL235:
 269:src/MyName.c  **** }
 1941              		.loc 1 269 1 is_stmt 0 view .LVU563
 1942 09fb 4883C458 		addq	$88, %rsp
 1943              		.cfi_def_cfa_offset 56
 1944 09ff 5B       		popq	%rbx
 1945              		.cfi_restore 3
 1946              		.cfi_def_cfa_offset 48
 1947              	.LVL236:
 269:src/MyName.c  **** }
 1948              		.loc 1 269 1 view .LVU564
 1949 0a00 5D       		popq	%rbp
 1950              		.cfi_restore 6
 1951              		.cfi_def_cfa_offset 40
 1952              	.LVL237:
 269:src/MyName.c  **** }
 1953              		.loc 1 269 1 view .LVU565
 1954 0a01 415C     		popq	%r12
 1955              		.cfi_restore 12
 1956              		.cfi_def_cfa_offset 32
 1957              	.LVL238:
 269:src/MyName.c  **** }
 1958              		.loc 1 269 1 view .LVU566
 1959 0a03 415D     		popq	%r13
 1960              		.cfi_restore 13
 1961              		.cfi_def_cfa_offset 24
 1962              	.LVL239:
 269:src/MyName.c  **** }
 1963              		.loc 1 269 1 view .LVU567
 1964 0a05 415E     		popq	%r14
 1965              		.cfi_restore 14
 1966              		.cfi_def_cfa_offset 16
 1967              	.LVL240:
 269:src/MyName.c  **** }
 1968              		.loc 1 269 1 view .LVU568
 1969 0a07 415F     		popq	%r15
 1970              		.cfi_restore 15
 1971              		.cfi_def_cfa_offset 8
 1972              	.LVL241:
 269:src/MyName.c  **** }
 1973              		.loc 1 269 1 view .LVU569
 1974 0a09 C3       		ret
 1975              		.cfi_endproc
 1976              	.LFE2:
 1978              		.globl	RunMyNameGame
 1980              	RunMyNameGame:
 1981              	.LVL242:
 1982              	.LFB0:
 124:src/MyName.c  **** {
 1983              		.loc 1 124 1 is_stmt 1 view -0
 1984              		.cfi_startproc
 124:src/MyName.c  **** {
 1985              		.loc 1 124 1 is_stmt 0 view .LVU571
 1986 0a0a F30F1EFA 		endbr64
 125:src/MyName.c  ****   if(Graphics == NULL)
 1987              		.loc 1 125 3 is_stmt 1 view .LVU572
 125:src/MyName.c  ****   if(Graphics == NULL)
 1988              		.loc 1 125 5 is_stmt 0 view .LVU573
 1989 0a0e 4885FF   		testq	%rdi, %rdi
 1990 0a11 0F844402 		je	.L124
 1990      0000
 130:src/MyName.c  ****   if(Graphics->NumberOfFrameBuffers == 0)
 1991              		.loc 1 130 3 is_stmt 1 view .LVU574
 130:src/MyName.c  ****   if(Graphics->NumberOfFrameBuffers == 0)
 1992              		.loc 1 130 5 is_stmt 0 view .LVU575
 1993 0a17 48837F08 		cmpq	$0, 8(%rdi)
 1993      00
 1994 0a1c 0F844402 		je	.L125
 1994      0000
 135:src/MyName.c  ****   EFI_GRAPHICS_OUTPUT_PROTOCOL_MODE *Mode = &Graphics->GPUArray[0];
 1995              		.loc 1 135 3 is_stmt 1 view .LVU576
 135:src/MyName.c  ****   EFI_GRAPHICS_OUTPUT_PROTOCOL_MODE *Mode = &Graphics->GPUArray[0];
 1996              		.loc 1 135 38 is_stmt 0 view .LVU577
 1997 0a22 488B07   		movq	(%rdi), %rax
 1998              	.LVL243:
 136:src/MyName.c  ****   if(Mode->Info == NULL || Mode->FrameBufferBase == 0)
 1999              		.loc 1 136 3 is_stmt 1 view .LVU578
 136:src/MyName.c  ****   if(Mode->Info == NULL || Mode->FrameBufferBase == 0)
 2000              		.loc 1 136 10 is_stmt 0 view .LVU579
 2001 0a25 488B5008 		movq	8(%rax), %rdx
 136:src/MyName.c  ****   if(Mode->Info == NULL || Mode->FrameBufferBase == 0)
 2002              		.loc 1 136 5 view .LVU580
 2003 0a29 4885D2   		testq	%rdx, %rdx
 2004 0a2c 0F843F02 		je	.L126
 2004      0000
 136:src/MyName.c  ****   if(Mode->Info == NULL || Mode->FrameBufferBase == 0)
 2005              		.loc 1 136 25 discriminator 1 view .LVU581
 2006 0a32 48837818 		cmpq	$0, 24(%rax)
 2006      00
 2007 0a37 0F843F02 		je	.L127
 2007      0000
 124:src/MyName.c  **** {
 2008              		.loc 1 124 1 view .LVU582
 2009 0a3d 4154     		pushq	%r12
 2010              		.cfi_def_cfa_offset 16
 2011              		.cfi_offset 12, -16
 2012 0a3f 55       		pushq	%rbp
 2013              		.cfi_def_cfa_offset 24
 2014              		.cfi_offset 6, -24
 2015 0a40 53       		pushq	%rbx
 2016              		.cfi_def_cfa_offset 32
 2017              		.cfi_offset 3, -32
 2018 0a41 4883EC60 		subq	$96, %rsp
 2019              		.cfi_def_cfa_offset 128
 141:src/MyName.c  ****   DRAW_CONTEXT Ctx;
 2020              		.loc 1 141 3 is_stmt 1 view .LVU583
 142:src/MyName.c  ****   Ctx.Width = Mode->Info->HorizontalResolution;
 2021              		.loc 1 142 3 view .LVU584
 142:src/MyName.c  ****   Ctx.Width = Mode->Info->HorizontalResolution;
 2022              		.loc 1 142 25 is_stmt 0 view .LVU585
 2023 0a45 8B4A04   		movl	4(%rdx), %ecx
 142:src/MyName.c  ****   Ctx.Width = Mode->Info->HorizontalResolution;
 2024              		.loc 1 142 13 view .LVU586
 2025 0a48 894C2430 		movl	%ecx, 48(%rsp)
 143:src/MyName.c  ****   Ctx.Height = Mode->Info->VerticalResolution;
 2026              		.loc 1 143 3 is_stmt 1 view .LVU587
 143:src/MyName.c  ****   Ctx.Height = Mode->Info->VerticalResolution;
 2027              		.loc 1 143 26 is_stmt 0 view .LVU588
 2028 0a4c 8B4A08   		movl	8(%rdx), %ecx
 143:src/MyName.c  ****   Ctx.Height = Mode->Info->VerticalResolution;
 2029              		.loc 1 143 14 view .LVU589
 2030 0a4f 894C2434 		movl	%ecx, 52(%rsp)
 144:src/MyName.c  ****   Ctx.PixelsPerScanLine = Mode->Info->PixelsPerScanLine;
 2031              		.loc 1 144 3 is_stmt 1 view .LVU590
 144:src/MyName.c  ****   Ctx.PixelsPerScanLine = Mode->Info->PixelsPerScanLine;
 2032              		.loc 1 144 37 is_stmt 0 view .LVU591
 2033 0a53 8B5220   		movl	32(%rdx), %edx
 144:src/MyName.c  ****   Ctx.PixelsPerScanLine = Mode->Info->PixelsPerScanLine;
 2034              		.loc 1 144 25 view .LVU592
 2035 0a56 89542438 		movl	%edx, 56(%rsp)
 145:src/MyName.c  ****   Ctx.PixelFormat = Mode->Info->PixelFormat;
 2036              		.loc 1 145 3 is_stmt 1 view .LVU593
 145:src/MyName.c  ****   Ctx.PixelFormat = Mode->Info->PixelFormat;
 2037              		.loc 1 145 25 is_stmt 0 view .LVU594
 2038 0a5a 488B5008 		movq	8(%rax), %rdx
 145:src/MyName.c  ****   Ctx.PixelFormat = Mode->Info->PixelFormat;
 2039              		.loc 1 145 31 view .LVU595
 2040 0a5e 8B520C   		movl	12(%rdx), %edx
 145:src/MyName.c  ****   Ctx.PixelFormat = Mode->Info->PixelFormat;
 2041              		.loc 1 145 19 view .LVU596
 2042 0a61 8954243C 		movl	%edx, 60(%rsp)
 146:src/MyName.c  ****   Ctx.PixelInfo = Mode->Info->PixelInformation;
 2043              		.loc 1 146 3 is_stmt 1 view .LVU597
 146:src/MyName.c  ****   Ctx.PixelInfo = Mode->Info->PixelInformation;
 2044              		.loc 1 146 23 is_stmt 0 view .LVU598
 2045 0a65 488B5008 		movq	8(%rax), %rdx
 146:src/MyName.c  ****   Ctx.PixelInfo = Mode->Info->PixelInformation;
 2046              		.loc 1 146 17 view .LVU599
 2047 0a69 F30F6F42 		movdqu	16(%rdx), %xmm0
 2047      10
 2048 0a6e 0F294424 		movaps	%xmm0, 64(%rsp)
 2048      40
 147:src/MyName.c  ****   Ctx.FrameBuffer = (UINT32*)(UINTN)Mode->FrameBufferBase;
 2049              		.loc 1 147 3 is_stmt 1 view .LVU600
 147:src/MyName.c  ****   Ctx.FrameBuffer = (UINT32*)(UINTN)Mode->FrameBufferBase;
 2050              		.loc 1 147 41 is_stmt 0 view .LVU601
 2051 0a73 488B4018 		movq	24(%rax), %rax
 2052              	.LVL244:
 147:src/MyName.c  ****   Ctx.FrameBuffer = (UINT32*)(UINTN)Mode->FrameBufferBase;
 2053              		.loc 1 147 19 view .LVU602
 2054 0a77 48894424 		movq	%rax, 80(%rsp)
 2054      50
 149:src/MyName.c  ****   MYNAME_TRANSFORM Transform = TRANSFORM_NORMAL;
 2055              		.loc 1 149 3 is_stmt 1 view .LVU603
 2056              	.LVL245:
 150:src/MyName.c  ****   INTN PosX = 0;
 2057              		.loc 1 150 3 view .LVU604
 150:src/MyName.c  ****   INTN PosX = 0;
 2058              		.loc 1 150 8 is_stmt 0 view .LVU605
 2059 0a7c 48C74424 		movq	$0, 40(%rsp)
 2059      28000000 
 2059      00
 151:src/MyName.c  ****   INTN PosY = 0;
 2060              		.loc 1 151 3 is_stmt 1 view .LVU606
 151:src/MyName.c  ****   INTN PosY = 0;
 2061              		.loc 1 151 8 is_stmt 0 view .LVU607
 2062 0a85 48C74424 		movq	$0, 32(%rsp)
 2062      20000000 
 2062      00
 153:src/MyName.c  ****   GetRandomPosition(&Ctx, NAME_1, NAME_2, LETTER_SCALE, Transform, &PosX, &PosY);
 2063              		.loc 1 153 3 is_stmt 1 view .LVU608
 2064 0a8e 488D5C24 		leaq	48(%rsp), %rbx
 2064      30
 2065 0a93 488D4424 		leaq	32(%rsp), %rax
 2065      20
 2066 0a98 48890424 		movq	%rax, (%rsp)
 2067 0a9c 4C8D4C24 		leaq	40(%rsp), %r9
 2067      28
 2068 0aa1 41B80000 		movl	$0, %r8d
 2068      0000
 2069 0aa7 B9060000 		movl	$6, %ecx
 2069      00
 2070 0aac 4C8D2500 		leaq	NAME_2(%rip), %r12
 2070      000000
 2071 0ab3 4C89E2   		movq	%r12, %rdx
 2072 0ab6 488D2D00 		leaq	NAME_1(%rip), %rbp
 2072      000000
 2073 0abd 4889EE   		movq	%rbp, %rsi
 2074 0ac0 4889DF   		movq	%rbx, %rdi
 2075              	.LVL246:
 153:src/MyName.c  ****   GetRandomPosition(&Ctx, NAME_1, NAME_2, LETTER_SCALE, Transform, &PosX, &PosY);
 2076              		.loc 1 153 3 is_stmt 0 view .LVU609
 2077 0ac3 E8000000 		call	GetRandomPosition
 2077      00
 2078              	.LVL247:
 154:src/MyName.c  ****   DrawScene(&Ctx, NAME_1, NAME_2, PosX, PosY, Transform);
 2079              		.loc 1 154 3 is_stmt 1 view .LVU610
 2080 0ac8 41B90000 		movl	$0, %r9d
 2080      0000
 2081 0ace 4C8B4424 		movq	32(%rsp), %r8
 2081      20
 2082 0ad3 488B4C24 		movq	40(%rsp), %rcx
 2082      28
 2083 0ad8 4C89E2   		movq	%r12, %rdx
 2084 0adb 4889EE   		movq	%rbp, %rsi
 2085 0ade 4889DF   		movq	%rbx, %rdi
 2086 0ae1 E8000000 		call	DrawScene
 2086      00
 2087              	.LVL248:
 2088 0ae6 EB58     		jmp	.L115
 2089              	.LVL249:
 2090              	.L133:
 2091              	.LBB28:
 172:src/MyName.c  ****       Transform = TRANSFORM_NORMAL;
 2092              		.loc 1 172 7 view .LVU611
 173:src/MyName.c  ****       GetRandomPosition(&Ctx, NAME_1, NAME_2, LETTER_SCALE, Transform, &PosX, &PosY);
 2093              		.loc 1 173 7 view .LVU612
 2094 0ae8 488D5C24 		leaq	48(%rsp), %rbx
 2094      30
 2095 0aed 488D4424 		leaq	32(%rsp), %rax
 2095      20
 2096 0af2 48890424 		movq	%rax, (%rsp)
 2097 0af6 4C8D4C24 		leaq	40(%rsp), %r9
 2097      28
 2098 0afb 41B80000 		movl	$0, %r8d
 2098      0000
 2099 0b01 B9060000 		movl	$6, %ecx
 2099      00
 2100 0b06 4C8D2500 		leaq	NAME_2(%rip), %r12
 2100      000000
 2101 0b0d 4C89E2   		movq	%r12, %rdx
 2102 0b10 488D2D00 		leaq	NAME_1(%rip), %rbp
 2102      000000
 2103 0b17 4889EE   		movq	%rbp, %rsi
 2104 0b1a 4889DF   		movq	%rbx, %rdi
 2105 0b1d E8000000 		call	GetRandomPosition
 2105      00
 2106              	.LVL250:
 174:src/MyName.c  ****       DrawScene(&Ctx, NAME_1, NAME_2, PosX, PosY, Transform);
 2107              		.loc 1 174 7 view .LVU613
 2108 0b22 41B90000 		movl	$0, %r9d
 2108      0000
 2109 0b28 4C8B4424 		movq	32(%rsp), %r8
 2109      20
 2110 0b2d 488B4C24 		movq	40(%rsp), %rcx
 2110      28
 2111 0b32 4C89E2   		movq	%r12, %rdx
 2112 0b35 4889EE   		movq	%rbp, %rsi
 2113 0b38 4889DF   		movq	%rbx, %rdi
 2114 0b3b E8000000 		call	DrawScene
 2114      00
 2115              	.LVL251:
 175:src/MyName.c  ****       continue;
 2116              		.loc 1 175 7 view .LVU614
 2117              	.L115:
 175:src/MyName.c  ****       continue;
 2118              		.loc 1 175 7 is_stmt 0 view .LVU615
 2119              	.LBE28:
 156:src/MyName.c  ****   while(1)
 2120              		.loc 1 156 3 is_stmt 1 view .LVU616
 2121              	.LBB29:
 158:src/MyName.c  ****     EFI_INPUT_KEY Key;
 2122              		.loc 1 158 5 view .LVU617
 159:src/MyName.c  ****     EFI_STATUS Status = WaitKey(&Key);
 2123              		.loc 1 159 5 view .LVU618
 159:src/MyName.c  ****     EFI_STATUS Status = WaitKey(&Key);
 2124              		.loc 1 159 25 is_stmt 0 view .LVU619
 2125 0b40 488D7C24 		leaq	28(%rsp), %rdi
 2125      1C
 2126 0b45 E8000000 		call	WaitKey
 2126      00
 2127              	.LVL252:
 160:src/MyName.c  ****     if(EFI_ERROR(Status))
 2128              		.loc 1 160 5 is_stmt 1 view .LVU620
 160:src/MyName.c  ****     if(EFI_ERROR(Status))
 2129              		.loc 1 160 7 is_stmt 0 view .LVU621
 2130 0b4a 4885C0   		testq	%rax, %rax
 2131 0b4d 0F88FF00 		js	.L113
 2131      0000
 165:src/MyName.c  ****     if(Key.ScanCode == SCAN_ESC)
 2132              		.loc 1 165 5 is_stmt 1 view .LVU622
 165:src/MyName.c  ****     if(Key.ScanCode == SCAN_ESC)
 2133              		.loc 1 165 11 is_stmt 0 view .LVU623
 2134 0b53 0FB74424 		movzwl	28(%rsp), %eax
 2134      1C
 2135              	.LVL253:
 165:src/MyName.c  ****     if(Key.ScanCode == SCAN_ESC)
 2136              		.loc 1 165 7 view .LVU624
 2137 0b58 6683F817 		cmpw	$23, %ax
 2138 0b5c 0F84EB00 		je	.L128
 2138      0000
 170:src/MyName.c  ****     if(Key.UnicodeChar == L'r' || Key.UnicodeChar == L'R')
 2139              		.loc 1 170 5 is_stmt 1 view .LVU625
 170:src/MyName.c  ****     if(Key.UnicodeChar == L'r' || Key.UnicodeChar == L'R')
 2140              		.loc 1 170 11 is_stmt 0 view .LVU626
 2141 0b62 0FB74C24 		movzwl	30(%rsp), %ecx
 2141      1E
 170:src/MyName.c  ****     if(Key.UnicodeChar == L'r' || Key.UnicodeChar == L'R')
 2142              		.loc 1 170 32 view .LVU627
 2143 0b67 6683F972 		cmpw	$114, %cx
 2144 0b6b 0F94C2   		sete	%dl
 2145 0b6e 6683F952 		cmpw	$82, %cx
 2146 0b72 0F94C1   		sete	%cl
 170:src/MyName.c  ****     if(Key.UnicodeChar == L'r' || Key.UnicodeChar == L'R')
 2147              		.loc 1 170 7 view .LVU628
 2148 0b75 08CA     		orb	%cl, %dl
 2149 0b77 0F856BFF 		jne	.L133
 2149      FFFF
 178:src/MyName.c  ****     if(Key.ScanCode == SCAN_LEFT)
 2150              		.loc 1 178 5 is_stmt 1 view .LVU629
 178:src/MyName.c  ****     if(Key.ScanCode == SCAN_LEFT)
 2151              		.loc 1 178 7 is_stmt 0 view .LVU630
 2152 0b7d 6683F804 		cmpw	$4, %ax
 2153 0b81 7443     		je	.L134
 185:src/MyName.c  ****     if(Key.ScanCode == SCAN_RIGHT)
 2154              		.loc 1 185 5 is_stmt 1 view .LVU631
 185:src/MyName.c  ****     if(Key.ScanCode == SCAN_RIGHT)
 2155              		.loc 1 185 7 is_stmt 0 view .LVU632
 2156 0b83 6683F803 		cmpw	$3, %ax
 2157 0b87 746A     		je	.L135
 192:src/MyName.c  ****     if(Key.ScanCode == SCAN_UP)
 2158              		.loc 1 192 5 is_stmt 1 view .LVU633
 192:src/MyName.c  ****     if(Key.ScanCode == SCAN_UP)
 2159              		.loc 1 192 7 is_stmt 0 view .LVU634
 2160 0b89 6683F801 		cmpw	$1, %ax
 2161 0b8d 0F848D00 		je	.L136
 2161      0000
 199:src/MyName.c  ****     if(Key.ScanCode == SCAN_DOWN)
 2162              		.loc 1 199 5 is_stmt 1 view .LVU635
 199:src/MyName.c  ****     if(Key.ScanCode == SCAN_DOWN)
 2163              		.loc 1 199 7 is_stmt 0 view .LVU636
 2164 0b93 6683F802 		cmpw	$2, %ax
 2165 0b97 75A7     		jne	.L115
 201:src/MyName.c  ****       Transform = TRANSFORM_ROT_180;
 2166              		.loc 1 201 7 is_stmt 1 view .LVU637
 2167              	.LVL254:
 202:src/MyName.c  ****       DrawScene(&Ctx, NAME_1, NAME_2, PosX, PosY, Transform);
 2168              		.loc 1 202 7 view .LVU638
 2169 0b99 488D7C24 		leaq	48(%rsp), %rdi
 2169      30
 2170 0b9e 41B90400 		movl	$4, %r9d
 2170      0000
 2171 0ba4 4C8B4424 		movq	32(%rsp), %r8
 2171      20
 2172 0ba9 488B4C24 		movq	40(%rsp), %rcx
 2172      28
 2173 0bae 488D1500 		leaq	NAME_2(%rip), %rdx
 2173      000000
 2174 0bb5 488D3500 		leaq	NAME_1(%rip), %rsi
 2174      000000
 2175 0bbc E8000000 		call	DrawScene
 2175      00
 2176              	.LVL255:
 203:src/MyName.c  ****       continue;
 2177              		.loc 1 203 7 view .LVU639
 2178 0bc1 E97AFFFF 		jmp	.L115
 2178      FF
 2179              	.LVL256:
 2180              	.L134:
 180:src/MyName.c  ****       Transform = TRANSFORM_ROT_LEFT_90;
 2181              		.loc 1 180 7 view .LVU640
 181:src/MyName.c  ****       DrawScene(&Ctx, NAME_1, NAME_2, PosX, PosY, Transform);
 2182              		.loc 1 181 7 view .LVU641
 2183 0bc6 488D7C24 		leaq	48(%rsp), %rdi
 2183      30
 2184 0bcb 41B90100 		movl	$1, %r9d
 2184      0000
 2185 0bd1 4C8B4424 		movq	32(%rsp), %r8
 2185      20
 2186 0bd6 488B4C24 		movq	40(%rsp), %rcx
 2186      28
 2187 0bdb 488D1500 		leaq	NAME_2(%rip), %rdx
 2187      000000
 2188 0be2 488D3500 		leaq	NAME_1(%rip), %rsi
 2188      000000
 2189 0be9 E8000000 		call	DrawScene
 2189      00
 2190              	.LVL257:
 182:src/MyName.c  ****       continue;
 2191              		.loc 1 182 7 view .LVU642
 2192 0bee E94DFFFF 		jmp	.L115
 2192      FF
 2193              	.LVL258:
 2194              	.L135:
 187:src/MyName.c  ****       Transform = TRANSFORM_ROT_RIGHT_90;
 2195              		.loc 1 187 7 view .LVU643
 188:src/MyName.c  ****       DrawScene(&Ctx, NAME_1, NAME_2, PosX, PosY, Transform);
 2196              		.loc 1 188 7 view .LVU644
 2197 0bf3 488D7C24 		leaq	48(%rsp), %rdi
 2197      30
 2198 0bf8 41B90200 		movl	$2, %r9d
 2198      0000
 2199 0bfe 4C8B4424 		movq	32(%rsp), %r8
 2199      20
 2200 0c03 488B4C24 		movq	40(%rsp), %rcx
 2200      28
 2201 0c08 488D1500 		leaq	NAME_2(%rip), %rdx
 2201      000000
 2202 0c0f 488D3500 		leaq	NAME_1(%rip), %rsi
 2202      000000
 2203 0c16 E8000000 		call	DrawScene
 2203      00
 2204              	.LVL259:
 189:src/MyName.c  ****       continue;
 2205              		.loc 1 189 7 view .LVU645
 2206 0c1b E920FFFF 		jmp	.L115
 2206      FF
 2207              	.LVL260:
 2208              	.L136:
 194:src/MyName.c  ****       Transform = TRANSFORM_FLIP_VERTICAL;
 2209              		.loc 1 194 7 view .LVU646
 195:src/MyName.c  ****       DrawScene(&Ctx, NAME_1, NAME_2, PosX, PosY, Transform);
 2210              		.loc 1 195 7 view .LVU647
 2211 0c20 488D7C24 		leaq	48(%rsp), %rdi
 2211      30
 2212 0c25 41B90300 		movl	$3, %r9d
 2212      0000
 2213 0c2b 4C8B4424 		movq	32(%rsp), %r8
 2213      20
 2214 0c30 488B4C24 		movq	40(%rsp), %rcx
 2214      28
 2215 0c35 488D1500 		leaq	NAME_2(%rip), %rdx
 2215      000000
 2216 0c3c 488D3500 		leaq	NAME_1(%rip), %rsi
 2216      000000
 2217 0c43 E8000000 		call	DrawScene
 2217      00
 2218              	.LVL261:
 196:src/MyName.c  ****       continue;
 2219              		.loc 1 196 7 view .LVU648
 2220 0c48 E9F3FEFF 		jmp	.L115
 2220      FF
 2221              	.LVL262:
 2222              	.L128:
 167:src/MyName.c  ****       return EFI_SUCCESS;
 2223              		.loc 1 167 14 is_stmt 0 view .LVU649
 2224 0c4d B8000000 		movl	$0, %eax
 2224      00
 2225              	.L113:
 2226              	.LBE29:
 206:src/MyName.c  **** }
 2227              		.loc 1 206 1 view .LVU650
 2228 0c52 4883C460 		addq	$96, %rsp
 2229              		.cfi_def_cfa_offset 32
 2230 0c56 5B       		popq	%rbx
 2231              		.cfi_restore 3
 2232              		.cfi_def_cfa_offset 24
 2233 0c57 5D       		popq	%rbp
 2234              		.cfi_restore 6
 2235              		.cfi_def_cfa_offset 16
 2236 0c58 415C     		popq	%r12
 2237              		.cfi_restore 12
 2238              		.cfi_def_cfa_offset 8
 2239 0c5a C3       		ret
 2240              	.LVL263:
 2241              	.L124:
 127:src/MyName.c  ****     return EFI_INVALID_PARAMETER;
 2242              		.loc 1 127 12 view .LVU651
 2243 0c5b 48B80200 		movabsq	$-9223372036854775806, %rax
 2243      00000000 
 2243      0080
 2244 0c65 C3       		ret
 2245              	.L125:
 132:src/MyName.c  ****     return EFI_NOT_FOUND;
 2246              		.loc 1 132 12 view .LVU652
 2247 0c66 48B80E00 		movabsq	$-9223372036854775794, %rax
 2247      00000000 
 2247      0080
 2248 0c70 C3       		ret
 2249              	.LVL264:
 2250              	.L126:
 138:src/MyName.c  ****     return EFI_NOT_READY;
 2251              		.loc 1 138 12 view .LVU653
 2252 0c71 48B80600 		movabsq	$-9223372036854775802, %rax
 2252      00000000 
 2252      0080
 2253              	.LVL265:
 138:src/MyName.c  ****     return EFI_NOT_READY;
 2254              		.loc 1 138 12 view .LVU654
 2255 0c7b C3       		ret
 2256              	.LVL266:
 2257              	.L127:
 138:src/MyName.c  ****     return EFI_NOT_READY;
 2258              		.loc 1 138 12 view .LVU655
 2259 0c7c 48B80600 		movabsq	$-9223372036854775802, %rax
 2259      00000000 
 2259      0080
 2260              	.LVL267:
 206:src/MyName.c  **** }
 2261              		.loc 1 206 1 view .LVU656
 2262 0c86 C3       		ret
 2263              		.cfi_endproc
 2264              	.LFE0:
 2266              		.globl	PutPixel
 2268              	PutPixel:
 2269              	.LVL268:
 2270              	.LFB13:
 533:src/MyName.c  **** {
 2271              		.loc 1 533 1 is_stmt 1 view -0
 2272              		.cfi_startproc
 533:src/MyName.c  **** {
 2273              		.loc 1 533 1 is_stmt 0 view .LVU658
 2274 0c87 F30F1EFA 		endbr64
 2275 0c8b 53       		pushq	%rbx
 2276              		.cfi_def_cfa_offset 16
 2277              		.cfi_offset 3, -16
 534:src/MyName.c  ****   if(X < 0 || Y < 0 || X >= (INTN)Ctx->Width || Y >= (INTN)Ctx->Height)
 2278              		.loc 1 534 3 is_stmt 1 view .LVU659
 534:src/MyName.c  ****   if(X < 0 || Y < 0 || X >= (INTN)Ctx->Width || Y >= (INTN)Ctx->Height)
 2279              		.loc 1 534 8 is_stmt 0 view .LVU660
 2280 0c8c 4889F3   		movq	%rsi, %rbx
 2281 0c8f 48C1EB3F 		shrq	$63, %rbx
 534:src/MyName.c  ****   if(X < 0 || Y < 0 || X >= (INTN)Ctx->Width || Y >= (INTN)Ctx->Height)
 2282              		.loc 1 534 17 view .LVU661
 2283 0c93 4989D3   		movq	%rdx, %r11
 2284 0c96 49C1EB3F 		shrq	$63, %r11
 534:src/MyName.c  ****   if(X < 0 || Y < 0 || X >= (INTN)Ctx->Width || Y >= (INTN)Ctx->Height)
 2285              		.loc 1 534 5 view .LVU662
 2286 0c9a 4108DB   		orb	%bl, %r11b
 2287 0c9d 7512     		jne	.L137
 2288 0c9f 4989D2   		movq	%rdx, %r10
 534:src/MyName.c  ****   if(X < 0 || Y < 0 || X >= (INTN)Ctx->Width || Y >= (INTN)Ctx->Height)
 2289              		.loc 1 534 29 discriminator 1 view .LVU663
 2290 0ca2 8B17     		movl	(%rdi), %edx
 2291              	.LVL269:
 534:src/MyName.c  ****   if(X < 0 || Y < 0 || X >= (INTN)Ctx->Width || Y >= (INTN)Ctx->Height)
 2292              		.loc 1 534 21 discriminator 1 view .LVU664
 2293 0ca4 4839F2   		cmpq	%rsi, %rdx
 2294 0ca7 7E08     		jle	.L137
 534:src/MyName.c  ****   if(X < 0 || Y < 0 || X >= (INTN)Ctx->Width || Y >= (INTN)Ctx->Height)
 2295              		.loc 1 534 54 discriminator 2 view .LVU665
 2296 0ca9 8B5704   		movl	4(%rdi), %edx
 534:src/MyName.c  ****   if(X < 0 || Y < 0 || X >= (INTN)Ctx->Width || Y >= (INTN)Ctx->Height)
 2297              		.loc 1 534 46 discriminator 2 view .LVU666
 2298 0cac 4C39D2   		cmpq	%r10, %rdx
 2299 0caf 7F02     		jg	.L140
 2300              	.LVL270:
 2301              	.L137:
 540:src/MyName.c  **** }
 2302              		.loc 1 540 1 view .LVU667
 2303 0cb1 5B       		popq	%rbx
 2304              		.cfi_remember_state
 2305              		.cfi_restore 3
 2306              		.cfi_def_cfa_offset 8
 2307 0cb2 C3       		ret
 2308              	.LVL271:
 2309              	.L140:
 2310              		.cfi_restore_state
 539:src/MyName.c  ****   Ctx->FrameBuffer[(UINTN)Y * Ctx->PixelsPerScanLine + (UINTN)X] = PackColor(Ctx, R, G, B);
 2311              		.loc 1 539 3 is_stmt 1 view .LVU668
 539:src/MyName.c  ****   Ctx->FrameBuffer[(UINTN)Y * Ctx->PixelsPerScanLine + (UINTN)X] = PackColor(Ctx, R, G, B);
 2312              		.loc 1 539 34 is_stmt 0 view .LVU669
 2313 0cb3 8B5F08   		movl	8(%rdi), %ebx
 539:src/MyName.c  ****   Ctx->FrameBuffer[(UINTN)Y * Ctx->PixelsPerScanLine + (UINTN)X] = PackColor(Ctx, R, G, B);
 2314              		.loc 1 539 29 view .LVU670
 2315 0cb6 490FAFDA 		imulq	%r10, %rbx
 539:src/MyName.c  ****   Ctx->FrameBuffer[(UINTN)Y * Ctx->PixelsPerScanLine + (UINTN)X] = PackColor(Ctx, R, G, B);
 2316              		.loc 1 539 54 view .LVU671
 2317 0cba 4801F3   		addq	%rsi, %rbx
 539:src/MyName.c  ****   Ctx->FrameBuffer[(UINTN)Y * Ctx->PixelsPerScanLine + (UINTN)X] = PackColor(Ctx, R, G, B);
 2318              		.loc 1 539 19 view .LVU672
 2319 0cbd 48C1E302 		salq	$2, %rbx
 2320 0cc1 48035F20 		addq	32(%rdi), %rbx
 539:src/MyName.c  ****   Ctx->FrameBuffer[(UINTN)Y * Ctx->PixelsPerScanLine + (UINTN)X] = PackColor(Ctx, R, G, B);
 2321              		.loc 1 539 68 view .LVU673
 2322 0cc5 450FB6C9 		movzbl	%r9b, %r9d
 539:src/MyName.c  ****   Ctx->FrameBuffer[(UINTN)Y * Ctx->PixelsPerScanLine + (UINTN)X] = PackColor(Ctx, R, G, B);
 2323              		.loc 1 539 68 view .LVU674
 2324 0cc9 410FB6D0 		movzbl	%r8b, %edx
 2325 0ccd 0FB6F1   		movzbl	%cl, %esi
 2326              	.LVL272:
 539:src/MyName.c  ****   Ctx->FrameBuffer[(UINTN)Y * Ctx->PixelsPerScanLine + (UINTN)X] = PackColor(Ctx, R, G, B);
 2327              		.loc 1 539 68 view .LVU675
 2328 0cd0 4489C9   		movl	%r9d, %ecx
 2329              	.LVL273:
 539:src/MyName.c  ****   Ctx->FrameBuffer[(UINTN)Y * Ctx->PixelsPerScanLine + (UINTN)X] = PackColor(Ctx, R, G, B);
 2330              		.loc 1 539 68 view .LVU676
 2331 0cd3 E8000000 		call	PackColor
 2331      00
 2332              	.LVL274:
 539:src/MyName.c  ****   Ctx->FrameBuffer[(UINTN)Y * Ctx->PixelsPerScanLine + (UINTN)X] = PackColor(Ctx, R, G, B);
 2333              		.loc 1 539 66 discriminator 1 view .LVU677
 2334 0cd8 8903     		movl	%eax, (%rbx)
 2335 0cda EBD5     		jmp	.L137
 2336              		.cfi_endproc
 2337              	.LFE13:
 2339              		.globl	FontTable
 2340              		.section	.rodata
 2341 003c 00000000 		.align 32
 2344              	FontTable:
 2345 0040 41       		.byte	65
 2346 0041 0E11111F 		.ascii	"\016\021\021\037\021\021\021"
 2346      111111
 2347 0048 42       		.byte	66
 2348 0049 1E11111E 		.ascii	"\036\021\021\036\021\021\036"
 2348      11111E
 2349 0050 43       		.byte	67
 2350 0051 0E111010 		.ascii	"\016\021\020\020\020\021\016"
 2350      10110E
 2351 0058 44       		.byte	68
 2352 0059 1E111111 		.ascii	"\036\021\021\021\021\021\036"
 2352      11111E
 2353 0060 45       		.byte	69
 2354 0061 1F10101E 		.ascii	"\037\020\020\036\020\020\037"
 2354      10101F
 2355 0068 46       		.byte	70
 2356 0069 1F10101E 		.ascii	"\037\020\020\036\020\020\020"
 2356      101010
 2357 0070 47       		.byte	71
 2358 0071 0E111010 		.ascii	"\016\021\020\020\023\021\016"
 2358      13110E
 2359 0078 48       		.byte	72
 2360 0079 1111111F 		.ascii	"\021\021\021\037\021\021\021"
 2360      111111
 2361 0080 49       		.byte	73
 2362 0081 1F040404 		.ascii	"\037\004\004\004\004\004\037"
 2362      04041F
 2363 0088 4A       		.byte	74
 2364 0089 01010101 		.ascii	"\001\001\001\001\021\021\016"
 2364      11110E
 2365 0090 4B       		.byte	75
 2366 0091 11121418 		.ascii	"\021\022\024\030\024\022\021"
 2366      141211
 2367 0098 4C       		.byte	76
 2368 0099 10101010 		.ascii	"\020\020\020\020\020\020\037"
 2368      10101F
 2369 00a0 4D       		.byte	77
 2370 00a1 111B1515 		.ascii	"\021\033\025\025\021\021\021"
 2370      111111
 2371 00a8 4E       		.byte	78
 2372 00a9 11111915 		.ascii	"\021\021\031\025\023\021\021"
 2372      131111
 2373 00b0 4F       		.byte	79
 2374 00b1 0E111111 		.ascii	"\016\021\021\021\021\021\016"
 2374      11110E
 2375 00b8 50       		.byte	80
 2376 00b9 1E11111E 		.ascii	"\036\021\021\036\020\020\020"
 2376      101010
 2377 00c0 51       		.byte	81
 2378 00c1 0E111111 		.ascii	"\016\021\021\021\025\022\r"
 2378      15120D
 2379 00c8 52       		.byte	82
 2380 00c9 1E11111E 		.ascii	"\036\021\021\036\024\022\021"
 2380      141211
 2381 00d0 53       		.byte	83
 2382 00d1 0F10100E 		.ascii	"\017\020\020\016\001\001\036"
 2382      01011E
 2383 00d8 54       		.byte	84
 2384 00d9 1F040404 		.ascii	"\037\004\004\004\004\004\004"
 2384      040404
 2385 00e0 55       		.byte	85
 2386 00e1 11111111 		.ascii	"\021\021\021\021\021\021\016"
 2386      11110E
 2387 00e8 56       		.byte	86
 2388 00e9 11111111 		.ascii	"\021\021\021\021\021\n\004"
 2388      110A04
 2389 00f0 57       		.byte	87
 2390 00f1 11111115 		.ascii	"\021\021\021\025\025\025\n"
 2390      15150A
 2391 00f8 58       		.byte	88
 2392 00f9 11110A04 		.ascii	"\021\021\n\004\n\021\021"
 2392      0A1111
 2393 0100 59       		.byte	89
 2394 0101 11110A04 		.ascii	"\021\021\n\004\004\004\004"
 2394      040404
 2395 0108 5A       		.byte	90
 2396 0109 1F010204 		.ascii	"\037\001\002\004\b\020\037"
 2396      08101F
 2397 0110 30       		.byte	48
 2398 0111 0E111315 		.ascii	"\016\021\023\025\031\021\016"
 2398      19110E
 2399 0118 31       		.byte	49
 2400 0119 040C0404 		.ascii	"\004\f\004\004\004\004\016"
 2400      04040E
 2401 0120 32       		.byte	50
 2402 0121 0E110102 		.ascii	"\016\021\001\002\004\b\037"
 2402      04081F
 2403 0128 33       		.byte	51
 2404 0129 1E010106 		.ascii	"\036\001\001\006\001\001\036"
 2404      01011E
 2405 0130 34       		.byte	52
 2406 0131 02060A12 		.ascii	"\002\006\n\022\037\002\002"
 2406      1F0202
 2407 0138 35       		.byte	53
 2408 0139 1F10101E 		.ascii	"\037\020\020\036\001\001\036"
 2408      01011E
 2409 0140 36       		.byte	54
 2410 0141 0E10101E 		.ascii	"\016\020\020\036\021\021\016"
 2410      11110E
 2411 0148 37       		.byte	55
 2412 0149 1F010204 		.ascii	"\037\001\002\004\b\b\b"
 2412      080808
 2413 0150 38       		.byte	56
 2414 0151 0E11110E 		.ascii	"\016\021\021\016\021\021\016"
 2414      11110E
 2415 0158 39       		.byte	57
 2416 0159 0E11110F 		.ascii	"\016\021\021\017\001\001\016"
 2416      01010E
 2417 0160 2D       		.byte	45
 2418 0161 00       		.string	""
 2419 0162 00       		.string	""
 2420 0163 00       		.string	""
 2421 0164 1F00     		.string	"\037"
 2422 0166 00       		.string	""
 2423 0167 00       		.string	""
 2424 0168 20       		.byte	32
 2425 0169 00       		.string	""
 2426 016a 00       		.string	""
 2427 016b 00       		.string	""
 2428 016c 00       		.string	""
 2429 016d 00       		.string	""
 2430 016e 00       		.string	""
 2431 016f 00       		.string	""
 2432 0170 00       		.byte	0
 2433 0171 00       		.string	""
 2434 0172 00       		.string	""
 2435 0173 00       		.string	""
 2436 0174 00       		.string	""
 2437 0175 00       		.string	""
 2438 0176 00       		.string	""
 2439 0177 00       		.string	""
 2440              		.globl	NAME_2
 2443              	NAME_2:
 2444 0178 4A4F5247 		.string	"JORGE"
 2444      4500
 2445              		.globl	NAME_1
 2446 017e 0000     		.align 8
 2449              	NAME_1:
 2450 0180 43485249 		.string	"CHRISTIAN"
 2450      53544941 
 2450      4E00
 2451              		.text
 2452              	.Letext0:
 2453              		.file 2 "/usr/lib/gcc/x86_64-linux-gnu/13/include/stdint-gcc.h"
 2454              		.file 3 "../Backend/gnu-efi-3.0.9/inc/x86_64/efibind.h"
 2455              		.file 4 "../Backend/gnu-efi-3.0.9/inc/efidef.h"
 2456              		.file 5 "../Backend/gnu-efi-3.0.9/inc/efidevp.h"
 2457              		.file 6 "../Backend/gnu-efi-3.0.9/inc/efiprot.h"
 2458              		.file 7 "../Backend/gnu-efi-3.0.9/inc/efiapi.h"
 2459              		.file 8 "../Backend/gnu-efi-3.0.9/inc/eficon.h"
 2460              		.file 9 "../Backend/gnu-efi-3.0.9/inc/efilib.h"
 2461              		.file 10 "/home/kokipc/Bootloader-Operativos/Simple_UEFI_Bootloader/inc/Bootloader.h"
 36870              		.section	.note.gnu.property,"a"
 36871              		.align 8
 36872 0000 04000000 		.long	1f - 0f
 36873 0004 10000000 		.long	4f - 1f
 36874 0008 05000000 		.long	5
 36875              	0:
 36876 000c 474E5500 		.string	"GNU"
 36877              	1:
 36878              		.align 8
 36879 0010 020000C0 		.long	0xc0000002
 36880 0014 04000000 		.long	3f - 2f
 36881              	2:
 36882 0018 03000000 		.long	0x3
 36883              	3:
 36884 001c 00000000 		.align 8
 36885              	4:
