   1              		.file	"dpath.c"
   2              		.text
   3              	.Ltext0:
   4              		.cfi_sections	.debug_frame
   5              		.file 0 "/home/kokipc/Downloads/Bootloader-Operativos-514eab6e99233e465cadca9e7789fbac7f66fa4f/Sim
   7              	IsNotNullIPv4:
   8              	.LVL0:
   9              	.LFB27:
  10              		.file 1 "../Backend/gnu-efi-3.0.9/lib/dpath.c"
   1:../Backend/gnu-efi-3.0.9/lib/dpath.c **** /*++
   2:../Backend/gnu-efi-3.0.9/lib/dpath.c **** 
   3:../Backend/gnu-efi-3.0.9/lib/dpath.c **** Copyright (c) 1998  Intel Corporation
   4:../Backend/gnu-efi-3.0.9/lib/dpath.c **** 
   5:../Backend/gnu-efi-3.0.9/lib/dpath.c **** Module Name:
   6:../Backend/gnu-efi-3.0.9/lib/dpath.c **** 
   7:../Backend/gnu-efi-3.0.9/lib/dpath.c ****     dpath.c
   8:../Backend/gnu-efi-3.0.9/lib/dpath.c **** 
   9:../Backend/gnu-efi-3.0.9/lib/dpath.c **** Abstract:
  10:../Backend/gnu-efi-3.0.9/lib/dpath.c ****     MBR & Device Path functions
  11:../Backend/gnu-efi-3.0.9/lib/dpath.c **** 
  12:../Backend/gnu-efi-3.0.9/lib/dpath.c **** 
  13:../Backend/gnu-efi-3.0.9/lib/dpath.c **** 
  14:../Backend/gnu-efi-3.0.9/lib/dpath.c **** Revision History
  15:../Backend/gnu-efi-3.0.9/lib/dpath.c **** 
  16:../Backend/gnu-efi-3.0.9/lib/dpath.c **** 2014/04 B.Burette - updated device path text representation, conforming to
  17:../Backend/gnu-efi-3.0.9/lib/dpath.c **** 	UEFI specification 2.4 (dec. 2013). More specifically:
  18:../Backend/gnu-efi-3.0.9/lib/dpath.c **** 	- § 9.3.5: added some media types ie. Sata()
  19:../Backend/gnu-efi-3.0.9/lib/dpath.c **** 	- § 9.6.1.2: Acpi(PNP0A03,0) makes more sense when displayed as PciRoot(0)
  20:../Backend/gnu-efi-3.0.9/lib/dpath.c **** 	- § 9.6.1.5: use commas (instead of '|') between option specific parameters
  21:../Backend/gnu-efi-3.0.9/lib/dpath.c **** 	- § 9.6.1.6: hex values in device paths must be preceded by "0x" or "0X"
  22:../Backend/gnu-efi-3.0.9/lib/dpath.c **** 
  23:../Backend/gnu-efi-3.0.9/lib/dpath.c **** --*/
  24:../Backend/gnu-efi-3.0.9/lib/dpath.c **** 
  25:../Backend/gnu-efi-3.0.9/lib/dpath.c **** #include "lib.h"
  26:../Backend/gnu-efi-3.0.9/lib/dpath.c **** 
  27:../Backend/gnu-efi-3.0.9/lib/dpath.c **** #define ALIGN_SIZE(a)   ((a % MIN_ALIGNMENT_SIZE) ? MIN_ALIGNMENT_SIZE - (a % MIN_ALIGNMENT_SIZE) :
  28:../Backend/gnu-efi-3.0.9/lib/dpath.c **** 
  29:../Backend/gnu-efi-3.0.9/lib/dpath.c **** 
  30:../Backend/gnu-efi-3.0.9/lib/dpath.c **** 
  31:../Backend/gnu-efi-3.0.9/lib/dpath.c **** EFI_DEVICE_PATH *
  32:../Backend/gnu-efi-3.0.9/lib/dpath.c **** DevicePathFromHandle (
  33:../Backend/gnu-efi-3.0.9/lib/dpath.c ****     IN EFI_HANDLE       Handle
  34:../Backend/gnu-efi-3.0.9/lib/dpath.c ****     )
  35:../Backend/gnu-efi-3.0.9/lib/dpath.c **** {
  36:../Backend/gnu-efi-3.0.9/lib/dpath.c ****     EFI_STATUS          Status;
  37:../Backend/gnu-efi-3.0.9/lib/dpath.c ****     EFI_DEVICE_PATH     *DevicePath;
  38:../Backend/gnu-efi-3.0.9/lib/dpath.c **** 
  39:../Backend/gnu-efi-3.0.9/lib/dpath.c **** //    Status = uefi_call_wrapper(BS->HandleProtocol, 3, Handle, &DevicePathProtocol, (VOID*)&Device
  40:../Backend/gnu-efi-3.0.9/lib/dpath.c ****     Status = uefi_call_wrapper(BS->OpenProtocol, 6, Handle, &DevicePathProtocol, (VOID*)&DevicePath
  41:../Backend/gnu-efi-3.0.9/lib/dpath.c ****     if (EFI_ERROR(Status)) {
  42:../Backend/gnu-efi-3.0.9/lib/dpath.c ****         DevicePath = NULL;
  43:../Backend/gnu-efi-3.0.9/lib/dpath.c ****     }
  44:../Backend/gnu-efi-3.0.9/lib/dpath.c **** 
  45:../Backend/gnu-efi-3.0.9/lib/dpath.c ****     return DevicePath;
  46:../Backend/gnu-efi-3.0.9/lib/dpath.c **** }
  47:../Backend/gnu-efi-3.0.9/lib/dpath.c **** 
  48:../Backend/gnu-efi-3.0.9/lib/dpath.c **** 
  49:../Backend/gnu-efi-3.0.9/lib/dpath.c **** EFI_DEVICE_PATH *
  50:../Backend/gnu-efi-3.0.9/lib/dpath.c **** DevicePathInstance (
  51:../Backend/gnu-efi-3.0.9/lib/dpath.c ****     IN OUT EFI_DEVICE_PATH  **DevicePath,
  52:../Backend/gnu-efi-3.0.9/lib/dpath.c ****     OUT UINTN               *Size
  53:../Backend/gnu-efi-3.0.9/lib/dpath.c ****     )
  54:../Backend/gnu-efi-3.0.9/lib/dpath.c **** {
  55:../Backend/gnu-efi-3.0.9/lib/dpath.c ****     EFI_DEVICE_PATH         *Start, *Next, *DevPath;
  56:../Backend/gnu-efi-3.0.9/lib/dpath.c ****     UINTN                   Count;
  57:../Backend/gnu-efi-3.0.9/lib/dpath.c **** 
  58:../Backend/gnu-efi-3.0.9/lib/dpath.c ****     DevPath = *DevicePath;
  59:../Backend/gnu-efi-3.0.9/lib/dpath.c ****     Start = DevPath;
  60:../Backend/gnu-efi-3.0.9/lib/dpath.c **** 
  61:../Backend/gnu-efi-3.0.9/lib/dpath.c ****     if (!DevPath) {
  62:../Backend/gnu-efi-3.0.9/lib/dpath.c ****         return NULL;
  63:../Backend/gnu-efi-3.0.9/lib/dpath.c ****     }
  64:../Backend/gnu-efi-3.0.9/lib/dpath.c **** 
  65:../Backend/gnu-efi-3.0.9/lib/dpath.c ****     //
  66:../Backend/gnu-efi-3.0.9/lib/dpath.c ****     // Check for end of device path type
  67:../Backend/gnu-efi-3.0.9/lib/dpath.c ****     //
  68:../Backend/gnu-efi-3.0.9/lib/dpath.c **** 
  69:../Backend/gnu-efi-3.0.9/lib/dpath.c ****     for (Count = 0; ; Count++) {
  70:../Backend/gnu-efi-3.0.9/lib/dpath.c ****         Next = NextDevicePathNode(DevPath);
  71:../Backend/gnu-efi-3.0.9/lib/dpath.c **** 
  72:../Backend/gnu-efi-3.0.9/lib/dpath.c ****         if (IsDevicePathEndType(DevPath)) {
  73:../Backend/gnu-efi-3.0.9/lib/dpath.c ****             break;
  74:../Backend/gnu-efi-3.0.9/lib/dpath.c ****         }
  75:../Backend/gnu-efi-3.0.9/lib/dpath.c **** 
  76:../Backend/gnu-efi-3.0.9/lib/dpath.c ****         if (Count > 01000) {
  77:../Backend/gnu-efi-3.0.9/lib/dpath.c ****             //
  78:../Backend/gnu-efi-3.0.9/lib/dpath.c ****             // BugBug: Debug code to catch bogus device paths
  79:../Backend/gnu-efi-3.0.9/lib/dpath.c ****             //
  80:../Backend/gnu-efi-3.0.9/lib/dpath.c ****             DEBUG((D_ERROR, "DevicePathInstance: DevicePath %x Size %d", *DevicePath, ((UINT8 *) De
  81:../Backend/gnu-efi-3.0.9/lib/dpath.c ****             DumpHex (0, 0, ((UINT8 *) DevPath) - ((UINT8 *) Start), Start);
  82:../Backend/gnu-efi-3.0.9/lib/dpath.c ****             break;
  83:../Backend/gnu-efi-3.0.9/lib/dpath.c ****         }
  84:../Backend/gnu-efi-3.0.9/lib/dpath.c **** 
  85:../Backend/gnu-efi-3.0.9/lib/dpath.c ****         DevPath = Next;
  86:../Backend/gnu-efi-3.0.9/lib/dpath.c ****     }
  87:../Backend/gnu-efi-3.0.9/lib/dpath.c **** 
  88:../Backend/gnu-efi-3.0.9/lib/dpath.c ****     ASSERT (DevicePathSubType(DevPath) == END_ENTIRE_DEVICE_PATH_SUBTYPE ||
  89:../Backend/gnu-efi-3.0.9/lib/dpath.c ****             DevicePathSubType(DevPath) == END_INSTANCE_DEVICE_PATH_SUBTYPE);
  90:../Backend/gnu-efi-3.0.9/lib/dpath.c **** 
  91:../Backend/gnu-efi-3.0.9/lib/dpath.c ****     //
  92:../Backend/gnu-efi-3.0.9/lib/dpath.c ****     // Set next position
  93:../Backend/gnu-efi-3.0.9/lib/dpath.c ****     //
  94:../Backend/gnu-efi-3.0.9/lib/dpath.c **** 
  95:../Backend/gnu-efi-3.0.9/lib/dpath.c ****     if (DevicePathSubType(DevPath) == END_ENTIRE_DEVICE_PATH_SUBTYPE) {
  96:../Backend/gnu-efi-3.0.9/lib/dpath.c ****         Next = NULL;
  97:../Backend/gnu-efi-3.0.9/lib/dpath.c ****     }
  98:../Backend/gnu-efi-3.0.9/lib/dpath.c **** 
  99:../Backend/gnu-efi-3.0.9/lib/dpath.c ****     *DevicePath = Next;
 100:../Backend/gnu-efi-3.0.9/lib/dpath.c **** 
 101:../Backend/gnu-efi-3.0.9/lib/dpath.c ****     //
 102:../Backend/gnu-efi-3.0.9/lib/dpath.c ****     // Return size and start of device path instance
 103:../Backend/gnu-efi-3.0.9/lib/dpath.c ****     //
 104:../Backend/gnu-efi-3.0.9/lib/dpath.c **** 
 105:../Backend/gnu-efi-3.0.9/lib/dpath.c ****     *Size = ((UINT8 *) DevPath) - ((UINT8 *) Start);
 106:../Backend/gnu-efi-3.0.9/lib/dpath.c ****     return Start;
 107:../Backend/gnu-efi-3.0.9/lib/dpath.c **** }
 108:../Backend/gnu-efi-3.0.9/lib/dpath.c **** 
 109:../Backend/gnu-efi-3.0.9/lib/dpath.c **** UINTN
 110:../Backend/gnu-efi-3.0.9/lib/dpath.c **** DevicePathInstanceCount (
 111:../Backend/gnu-efi-3.0.9/lib/dpath.c ****     IN EFI_DEVICE_PATH      *DevicePath
 112:../Backend/gnu-efi-3.0.9/lib/dpath.c ****     )
 113:../Backend/gnu-efi-3.0.9/lib/dpath.c **** {
 114:../Backend/gnu-efi-3.0.9/lib/dpath.c ****     UINTN       Count, Size;
 115:../Backend/gnu-efi-3.0.9/lib/dpath.c **** 
 116:../Backend/gnu-efi-3.0.9/lib/dpath.c ****     Count = 0;
 117:../Backend/gnu-efi-3.0.9/lib/dpath.c ****     while (DevicePathInstance(&DevicePath, &Size)) {
 118:../Backend/gnu-efi-3.0.9/lib/dpath.c ****         Count += 1;
 119:../Backend/gnu-efi-3.0.9/lib/dpath.c ****     }
 120:../Backend/gnu-efi-3.0.9/lib/dpath.c **** 
 121:../Backend/gnu-efi-3.0.9/lib/dpath.c ****     return Count;
 122:../Backend/gnu-efi-3.0.9/lib/dpath.c **** }
 123:../Backend/gnu-efi-3.0.9/lib/dpath.c **** 
 124:../Backend/gnu-efi-3.0.9/lib/dpath.c **** 
 125:../Backend/gnu-efi-3.0.9/lib/dpath.c **** EFI_DEVICE_PATH *
 126:../Backend/gnu-efi-3.0.9/lib/dpath.c **** AppendDevicePath (
 127:../Backend/gnu-efi-3.0.9/lib/dpath.c ****     IN EFI_DEVICE_PATH  *Src1,
 128:../Backend/gnu-efi-3.0.9/lib/dpath.c ****     IN EFI_DEVICE_PATH  *Src2
 129:../Backend/gnu-efi-3.0.9/lib/dpath.c ****     )
 130:../Backend/gnu-efi-3.0.9/lib/dpath.c **** // Src1 may have multiple "instances" and each instance is appended
 131:../Backend/gnu-efi-3.0.9/lib/dpath.c **** // Src2 is appended to each instance is Src1.  (E.g., it's possible
 132:../Backend/gnu-efi-3.0.9/lib/dpath.c **** // to append a new instance to the complete device path by passing
 133:../Backend/gnu-efi-3.0.9/lib/dpath.c **** // it in Src2)
 134:../Backend/gnu-efi-3.0.9/lib/dpath.c **** {
 135:../Backend/gnu-efi-3.0.9/lib/dpath.c ****     UINTN               Src1Size, Src1Inst, Src2Size, Size;
 136:../Backend/gnu-efi-3.0.9/lib/dpath.c ****     EFI_DEVICE_PATH     *Dst, *Inst;
 137:../Backend/gnu-efi-3.0.9/lib/dpath.c ****     UINT8               *DstPos;
 138:../Backend/gnu-efi-3.0.9/lib/dpath.c **** 
 139:../Backend/gnu-efi-3.0.9/lib/dpath.c ****     //
 140:../Backend/gnu-efi-3.0.9/lib/dpath.c ****     // If there's only 1 path, just duplicate it
 141:../Backend/gnu-efi-3.0.9/lib/dpath.c ****     //
 142:../Backend/gnu-efi-3.0.9/lib/dpath.c **** 
 143:../Backend/gnu-efi-3.0.9/lib/dpath.c ****     if (!Src1) {
 144:../Backend/gnu-efi-3.0.9/lib/dpath.c ****         ASSERT (!IsDevicePathUnpacked (Src2));
 145:../Backend/gnu-efi-3.0.9/lib/dpath.c ****         return DuplicateDevicePath (Src2);
 146:../Backend/gnu-efi-3.0.9/lib/dpath.c ****     }
 147:../Backend/gnu-efi-3.0.9/lib/dpath.c **** 
 148:../Backend/gnu-efi-3.0.9/lib/dpath.c ****     if (!Src2) {
 149:../Backend/gnu-efi-3.0.9/lib/dpath.c ****         ASSERT (!IsDevicePathUnpacked (Src1));
 150:../Backend/gnu-efi-3.0.9/lib/dpath.c ****         return DuplicateDevicePath (Src1);
 151:../Backend/gnu-efi-3.0.9/lib/dpath.c ****     }
 152:../Backend/gnu-efi-3.0.9/lib/dpath.c **** 
 153:../Backend/gnu-efi-3.0.9/lib/dpath.c ****     //
 154:../Backend/gnu-efi-3.0.9/lib/dpath.c ****     // Verify we're not working with unpacked paths
 155:../Backend/gnu-efi-3.0.9/lib/dpath.c ****     //
 156:../Backend/gnu-efi-3.0.9/lib/dpath.c **** 
 157:../Backend/gnu-efi-3.0.9/lib/dpath.c **** //    ASSERT (!IsDevicePathUnpacked (Src1));
 158:../Backend/gnu-efi-3.0.9/lib/dpath.c **** //    ASSERT (!IsDevicePathUnpacked (Src2));
 159:../Backend/gnu-efi-3.0.9/lib/dpath.c **** 
 160:../Backend/gnu-efi-3.0.9/lib/dpath.c ****     //
 161:../Backend/gnu-efi-3.0.9/lib/dpath.c ****     // Append Src2 to every instance in Src1
 162:../Backend/gnu-efi-3.0.9/lib/dpath.c ****     //
 163:../Backend/gnu-efi-3.0.9/lib/dpath.c **** 
 164:../Backend/gnu-efi-3.0.9/lib/dpath.c ****     Src1Size = DevicePathSize(Src1);
 165:../Backend/gnu-efi-3.0.9/lib/dpath.c ****     Src1Inst = DevicePathInstanceCount(Src1);
 166:../Backend/gnu-efi-3.0.9/lib/dpath.c ****     Src2Size = DevicePathSize(Src2);
 167:../Backend/gnu-efi-3.0.9/lib/dpath.c ****     Size = Src1Size * Src1Inst + Src2Size;
 168:../Backend/gnu-efi-3.0.9/lib/dpath.c **** 
 169:../Backend/gnu-efi-3.0.9/lib/dpath.c ****     Dst = AllocatePool (Size);
 170:../Backend/gnu-efi-3.0.9/lib/dpath.c ****     if (Dst) {
 171:../Backend/gnu-efi-3.0.9/lib/dpath.c ****         DstPos = (UINT8 *) Dst;
 172:../Backend/gnu-efi-3.0.9/lib/dpath.c **** 
 173:../Backend/gnu-efi-3.0.9/lib/dpath.c ****         //
 174:../Backend/gnu-efi-3.0.9/lib/dpath.c ****         // Copy all device path instances
 175:../Backend/gnu-efi-3.0.9/lib/dpath.c ****         //
 176:../Backend/gnu-efi-3.0.9/lib/dpath.c **** 
 177:../Backend/gnu-efi-3.0.9/lib/dpath.c ****         while ((Inst = DevicePathInstance (&Src1, &Size))) {
 178:../Backend/gnu-efi-3.0.9/lib/dpath.c **** 
 179:../Backend/gnu-efi-3.0.9/lib/dpath.c ****             CopyMem(DstPos, Inst, Size);
 180:../Backend/gnu-efi-3.0.9/lib/dpath.c ****             DstPos += Size;
 181:../Backend/gnu-efi-3.0.9/lib/dpath.c **** 
 182:../Backend/gnu-efi-3.0.9/lib/dpath.c ****             CopyMem(DstPos, Src2, Src2Size);
 183:../Backend/gnu-efi-3.0.9/lib/dpath.c ****             DstPos += Src2Size;
 184:../Backend/gnu-efi-3.0.9/lib/dpath.c **** 
 185:../Backend/gnu-efi-3.0.9/lib/dpath.c ****             CopyMem(DstPos, EndInstanceDevicePath, sizeof(EFI_DEVICE_PATH));
 186:../Backend/gnu-efi-3.0.9/lib/dpath.c ****             DstPos += sizeof(EFI_DEVICE_PATH);
 187:../Backend/gnu-efi-3.0.9/lib/dpath.c ****         }
 188:../Backend/gnu-efi-3.0.9/lib/dpath.c **** 
 189:../Backend/gnu-efi-3.0.9/lib/dpath.c ****         // Change last end marker
 190:../Backend/gnu-efi-3.0.9/lib/dpath.c ****         DstPos -= sizeof(EFI_DEVICE_PATH);
 191:../Backend/gnu-efi-3.0.9/lib/dpath.c ****         CopyMem(DstPos, EndDevicePath, sizeof(EFI_DEVICE_PATH));
 192:../Backend/gnu-efi-3.0.9/lib/dpath.c ****     }
 193:../Backend/gnu-efi-3.0.9/lib/dpath.c **** 
 194:../Backend/gnu-efi-3.0.9/lib/dpath.c ****     return Dst;
 195:../Backend/gnu-efi-3.0.9/lib/dpath.c **** }
 196:../Backend/gnu-efi-3.0.9/lib/dpath.c **** 
 197:../Backend/gnu-efi-3.0.9/lib/dpath.c **** 
 198:../Backend/gnu-efi-3.0.9/lib/dpath.c **** EFI_DEVICE_PATH *
 199:../Backend/gnu-efi-3.0.9/lib/dpath.c **** AppendDevicePathNode (
 200:../Backend/gnu-efi-3.0.9/lib/dpath.c ****     IN EFI_DEVICE_PATH  *Src1,
 201:../Backend/gnu-efi-3.0.9/lib/dpath.c ****     IN EFI_DEVICE_PATH  *Src2
 202:../Backend/gnu-efi-3.0.9/lib/dpath.c ****     )
 203:../Backend/gnu-efi-3.0.9/lib/dpath.c **** // Src1 may have multiple "instances" and each instance is appended
 204:../Backend/gnu-efi-3.0.9/lib/dpath.c **** // Src2 is a signal device path node (without a terminator) that is
 205:../Backend/gnu-efi-3.0.9/lib/dpath.c **** // appended to each instance is Src1.
 206:../Backend/gnu-efi-3.0.9/lib/dpath.c **** {
 207:../Backend/gnu-efi-3.0.9/lib/dpath.c ****     EFI_DEVICE_PATH     *Temp, *Eop;
 208:../Backend/gnu-efi-3.0.9/lib/dpath.c ****     UINTN               Length;
 209:../Backend/gnu-efi-3.0.9/lib/dpath.c **** 
 210:../Backend/gnu-efi-3.0.9/lib/dpath.c ****     //
 211:../Backend/gnu-efi-3.0.9/lib/dpath.c ****     // Build a Src2 that has a terminator on it
 212:../Backend/gnu-efi-3.0.9/lib/dpath.c ****     //
 213:../Backend/gnu-efi-3.0.9/lib/dpath.c **** 
 214:../Backend/gnu-efi-3.0.9/lib/dpath.c ****     Length = DevicePathNodeLength(Src2);
 215:../Backend/gnu-efi-3.0.9/lib/dpath.c ****     Temp = AllocatePool (Length + sizeof(EFI_DEVICE_PATH));
 216:../Backend/gnu-efi-3.0.9/lib/dpath.c ****     if (!Temp) {
 217:../Backend/gnu-efi-3.0.9/lib/dpath.c ****         return NULL;
 218:../Backend/gnu-efi-3.0.9/lib/dpath.c ****     }
 219:../Backend/gnu-efi-3.0.9/lib/dpath.c **** 
 220:../Backend/gnu-efi-3.0.9/lib/dpath.c ****     CopyMem (Temp, Src2, Length);
 221:../Backend/gnu-efi-3.0.9/lib/dpath.c ****     Eop = NextDevicePathNode(Temp);
 222:../Backend/gnu-efi-3.0.9/lib/dpath.c ****     SetDevicePathEndNode(Eop);
 223:../Backend/gnu-efi-3.0.9/lib/dpath.c **** 
 224:../Backend/gnu-efi-3.0.9/lib/dpath.c ****     //
 225:../Backend/gnu-efi-3.0.9/lib/dpath.c ****     // Append device paths
 226:../Backend/gnu-efi-3.0.9/lib/dpath.c ****     //
 227:../Backend/gnu-efi-3.0.9/lib/dpath.c **** 
 228:../Backend/gnu-efi-3.0.9/lib/dpath.c ****     Src1 = AppendDevicePath (Src1, Temp);
 229:../Backend/gnu-efi-3.0.9/lib/dpath.c ****     FreePool (Temp);
 230:../Backend/gnu-efi-3.0.9/lib/dpath.c ****     return Src1;
 231:../Backend/gnu-efi-3.0.9/lib/dpath.c **** }
 232:../Backend/gnu-efi-3.0.9/lib/dpath.c **** 
 233:../Backend/gnu-efi-3.0.9/lib/dpath.c **** 
 234:../Backend/gnu-efi-3.0.9/lib/dpath.c **** EFI_DEVICE_PATH *
 235:../Backend/gnu-efi-3.0.9/lib/dpath.c **** FileDevicePath (
 236:../Backend/gnu-efi-3.0.9/lib/dpath.c ****     IN EFI_HANDLE       Device  OPTIONAL,
 237:../Backend/gnu-efi-3.0.9/lib/dpath.c ****     IN CHAR16           *FileName
 238:../Backend/gnu-efi-3.0.9/lib/dpath.c ****     )
 239:../Backend/gnu-efi-3.0.9/lib/dpath.c **** /*++
 240:../Backend/gnu-efi-3.0.9/lib/dpath.c **** 
 241:../Backend/gnu-efi-3.0.9/lib/dpath.c ****     N.B. Results are allocated from pool.  The caller must FreePool
 242:../Backend/gnu-efi-3.0.9/lib/dpath.c ****     the resulting device path structure
 243:../Backend/gnu-efi-3.0.9/lib/dpath.c **** 
 244:../Backend/gnu-efi-3.0.9/lib/dpath.c **** --*/
 245:../Backend/gnu-efi-3.0.9/lib/dpath.c **** {
 246:../Backend/gnu-efi-3.0.9/lib/dpath.c ****     UINTN                   Size;
 247:../Backend/gnu-efi-3.0.9/lib/dpath.c ****     FILEPATH_DEVICE_PATH    *FilePath;
 248:../Backend/gnu-efi-3.0.9/lib/dpath.c ****     EFI_DEVICE_PATH         *Eop, *DevicePath;
 249:../Backend/gnu-efi-3.0.9/lib/dpath.c **** 
 250:../Backend/gnu-efi-3.0.9/lib/dpath.c ****     Size = StrSize(FileName);
 251:../Backend/gnu-efi-3.0.9/lib/dpath.c ****     FilePath = AllocateZeroPool (Size + SIZE_OF_FILEPATH_DEVICE_PATH + sizeof(EFI_DEVICE_PATH));
 252:../Backend/gnu-efi-3.0.9/lib/dpath.c ****     DevicePath = NULL;
 253:../Backend/gnu-efi-3.0.9/lib/dpath.c **** 
 254:../Backend/gnu-efi-3.0.9/lib/dpath.c ****     if (FilePath) {
 255:../Backend/gnu-efi-3.0.9/lib/dpath.c **** 
 256:../Backend/gnu-efi-3.0.9/lib/dpath.c ****         //
 257:../Backend/gnu-efi-3.0.9/lib/dpath.c ****         // Build a file path
 258:../Backend/gnu-efi-3.0.9/lib/dpath.c ****         //
 259:../Backend/gnu-efi-3.0.9/lib/dpath.c **** 
 260:../Backend/gnu-efi-3.0.9/lib/dpath.c ****         FilePath->Header.Type = MEDIA_DEVICE_PATH;
 261:../Backend/gnu-efi-3.0.9/lib/dpath.c ****         FilePath->Header.SubType = MEDIA_FILEPATH_DP;
 262:../Backend/gnu-efi-3.0.9/lib/dpath.c ****         SetDevicePathNodeLength (&FilePath->Header, Size + SIZE_OF_FILEPATH_DEVICE_PATH);
 263:../Backend/gnu-efi-3.0.9/lib/dpath.c ****         CopyMem (FilePath->PathName, FileName, Size);
 264:../Backend/gnu-efi-3.0.9/lib/dpath.c ****         Eop = NextDevicePathNode(&FilePath->Header);
 265:../Backend/gnu-efi-3.0.9/lib/dpath.c ****         SetDevicePathEndNode(Eop);
 266:../Backend/gnu-efi-3.0.9/lib/dpath.c **** 
 267:../Backend/gnu-efi-3.0.9/lib/dpath.c ****         //
 268:../Backend/gnu-efi-3.0.9/lib/dpath.c ****         // Append file path to device's device path
 269:../Backend/gnu-efi-3.0.9/lib/dpath.c ****         //
 270:../Backend/gnu-efi-3.0.9/lib/dpath.c **** 
 271:../Backend/gnu-efi-3.0.9/lib/dpath.c ****         DevicePath = (EFI_DEVICE_PATH *) FilePath;
 272:../Backend/gnu-efi-3.0.9/lib/dpath.c ****         if (Device) {
 273:../Backend/gnu-efi-3.0.9/lib/dpath.c ****             DevicePath = AppendDevicePath (
 274:../Backend/gnu-efi-3.0.9/lib/dpath.c ****                             DevicePathFromHandle(Device),
 275:../Backend/gnu-efi-3.0.9/lib/dpath.c ****                             DevicePath
 276:../Backend/gnu-efi-3.0.9/lib/dpath.c ****                             );
 277:../Backend/gnu-efi-3.0.9/lib/dpath.c **** 
 278:../Backend/gnu-efi-3.0.9/lib/dpath.c ****             FreePool(FilePath);
 279:../Backend/gnu-efi-3.0.9/lib/dpath.c ****         }
 280:../Backend/gnu-efi-3.0.9/lib/dpath.c ****     }
 281:../Backend/gnu-efi-3.0.9/lib/dpath.c **** 
 282:../Backend/gnu-efi-3.0.9/lib/dpath.c ****     return DevicePath;
 283:../Backend/gnu-efi-3.0.9/lib/dpath.c **** }
 284:../Backend/gnu-efi-3.0.9/lib/dpath.c **** 
 285:../Backend/gnu-efi-3.0.9/lib/dpath.c **** 
 286:../Backend/gnu-efi-3.0.9/lib/dpath.c **** 
 287:../Backend/gnu-efi-3.0.9/lib/dpath.c **** UINTN
 288:../Backend/gnu-efi-3.0.9/lib/dpath.c **** DevicePathSize (
 289:../Backend/gnu-efi-3.0.9/lib/dpath.c ****     IN EFI_DEVICE_PATH  *DevPath
 290:../Backend/gnu-efi-3.0.9/lib/dpath.c ****     )
 291:../Backend/gnu-efi-3.0.9/lib/dpath.c **** {
 292:../Backend/gnu-efi-3.0.9/lib/dpath.c ****     EFI_DEVICE_PATH     *Start;
 293:../Backend/gnu-efi-3.0.9/lib/dpath.c **** 
 294:../Backend/gnu-efi-3.0.9/lib/dpath.c ****     //
 295:../Backend/gnu-efi-3.0.9/lib/dpath.c ****     // Search for the end of the device path structure
 296:../Backend/gnu-efi-3.0.9/lib/dpath.c ****     //
 297:../Backend/gnu-efi-3.0.9/lib/dpath.c **** 
 298:../Backend/gnu-efi-3.0.9/lib/dpath.c ****     Start = DevPath;
 299:../Backend/gnu-efi-3.0.9/lib/dpath.c ****     while (!IsDevicePathEnd(DevPath)) {
 300:../Backend/gnu-efi-3.0.9/lib/dpath.c ****         DevPath = NextDevicePathNode(DevPath);
 301:../Backend/gnu-efi-3.0.9/lib/dpath.c ****     }
 302:../Backend/gnu-efi-3.0.9/lib/dpath.c **** 
 303:../Backend/gnu-efi-3.0.9/lib/dpath.c ****     //
 304:../Backend/gnu-efi-3.0.9/lib/dpath.c ****     // Compute the size
 305:../Backend/gnu-efi-3.0.9/lib/dpath.c ****     //
 306:../Backend/gnu-efi-3.0.9/lib/dpath.c **** 
 307:../Backend/gnu-efi-3.0.9/lib/dpath.c ****     return ((UINTN) DevPath - (UINTN) Start) + sizeof(EFI_DEVICE_PATH);
 308:../Backend/gnu-efi-3.0.9/lib/dpath.c **** }
 309:../Backend/gnu-efi-3.0.9/lib/dpath.c **** 
 310:../Backend/gnu-efi-3.0.9/lib/dpath.c **** EFI_DEVICE_PATH *
 311:../Backend/gnu-efi-3.0.9/lib/dpath.c **** DuplicateDevicePath (
 312:../Backend/gnu-efi-3.0.9/lib/dpath.c ****     IN EFI_DEVICE_PATH  *DevPath
 313:../Backend/gnu-efi-3.0.9/lib/dpath.c ****     )
 314:../Backend/gnu-efi-3.0.9/lib/dpath.c **** {
 315:../Backend/gnu-efi-3.0.9/lib/dpath.c ****     EFI_DEVICE_PATH     *NewDevPath;
 316:../Backend/gnu-efi-3.0.9/lib/dpath.c ****     UINTN               Size;
 317:../Backend/gnu-efi-3.0.9/lib/dpath.c **** 
 318:../Backend/gnu-efi-3.0.9/lib/dpath.c **** 
 319:../Backend/gnu-efi-3.0.9/lib/dpath.c ****     //
 320:../Backend/gnu-efi-3.0.9/lib/dpath.c ****     // Compute the size
 321:../Backend/gnu-efi-3.0.9/lib/dpath.c ****     //
 322:../Backend/gnu-efi-3.0.9/lib/dpath.c **** 
 323:../Backend/gnu-efi-3.0.9/lib/dpath.c ****     Size = DevicePathSize (DevPath);
 324:../Backend/gnu-efi-3.0.9/lib/dpath.c **** 
 325:../Backend/gnu-efi-3.0.9/lib/dpath.c ****     //
 326:../Backend/gnu-efi-3.0.9/lib/dpath.c ****     // Make a copy
 327:../Backend/gnu-efi-3.0.9/lib/dpath.c ****     //
 328:../Backend/gnu-efi-3.0.9/lib/dpath.c **** 
 329:../Backend/gnu-efi-3.0.9/lib/dpath.c ****     NewDevPath = AllocatePool (Size);
 330:../Backend/gnu-efi-3.0.9/lib/dpath.c ****     if (NewDevPath) {
 331:../Backend/gnu-efi-3.0.9/lib/dpath.c ****         CopyMem (NewDevPath, DevPath, Size);
 332:../Backend/gnu-efi-3.0.9/lib/dpath.c ****     }
 333:../Backend/gnu-efi-3.0.9/lib/dpath.c **** 
 334:../Backend/gnu-efi-3.0.9/lib/dpath.c ****     return NewDevPath;
 335:../Backend/gnu-efi-3.0.9/lib/dpath.c **** }
 336:../Backend/gnu-efi-3.0.9/lib/dpath.c **** 
 337:../Backend/gnu-efi-3.0.9/lib/dpath.c **** EFI_DEVICE_PATH *
 338:../Backend/gnu-efi-3.0.9/lib/dpath.c **** UnpackDevicePath (
 339:../Backend/gnu-efi-3.0.9/lib/dpath.c ****     IN EFI_DEVICE_PATH  *DevPath
 340:../Backend/gnu-efi-3.0.9/lib/dpath.c ****     )
 341:../Backend/gnu-efi-3.0.9/lib/dpath.c **** {
 342:../Backend/gnu-efi-3.0.9/lib/dpath.c ****     EFI_DEVICE_PATH     *Src, *Dest, *NewPath;
 343:../Backend/gnu-efi-3.0.9/lib/dpath.c ****     UINTN               Size;
 344:../Backend/gnu-efi-3.0.9/lib/dpath.c **** 
 345:../Backend/gnu-efi-3.0.9/lib/dpath.c ****     //
 346:../Backend/gnu-efi-3.0.9/lib/dpath.c ****     // Walk device path and round sizes to valid boundries
 347:../Backend/gnu-efi-3.0.9/lib/dpath.c ****     //
 348:../Backend/gnu-efi-3.0.9/lib/dpath.c **** 
 349:../Backend/gnu-efi-3.0.9/lib/dpath.c ****     Src = DevPath;
 350:../Backend/gnu-efi-3.0.9/lib/dpath.c ****     Size = 0;
 351:../Backend/gnu-efi-3.0.9/lib/dpath.c ****     for (; ;) {
 352:../Backend/gnu-efi-3.0.9/lib/dpath.c ****         Size += DevicePathNodeLength(Src);
 353:../Backend/gnu-efi-3.0.9/lib/dpath.c ****         Size += ALIGN_SIZE(Size);
 354:../Backend/gnu-efi-3.0.9/lib/dpath.c **** 
 355:../Backend/gnu-efi-3.0.9/lib/dpath.c ****         if (IsDevicePathEnd(Src)) {
 356:../Backend/gnu-efi-3.0.9/lib/dpath.c ****             break;
 357:../Backend/gnu-efi-3.0.9/lib/dpath.c ****         }
 358:../Backend/gnu-efi-3.0.9/lib/dpath.c **** 
 359:../Backend/gnu-efi-3.0.9/lib/dpath.c ****         Src = NextDevicePathNode(Src);
 360:../Backend/gnu-efi-3.0.9/lib/dpath.c ****     }
 361:../Backend/gnu-efi-3.0.9/lib/dpath.c **** 
 362:../Backend/gnu-efi-3.0.9/lib/dpath.c **** 
 363:../Backend/gnu-efi-3.0.9/lib/dpath.c ****     //
 364:../Backend/gnu-efi-3.0.9/lib/dpath.c ****     // Allocate space for the unpacked path
 365:../Backend/gnu-efi-3.0.9/lib/dpath.c ****     //
 366:../Backend/gnu-efi-3.0.9/lib/dpath.c **** 
 367:../Backend/gnu-efi-3.0.9/lib/dpath.c ****     NewPath = AllocateZeroPool (Size);
 368:../Backend/gnu-efi-3.0.9/lib/dpath.c ****     if (NewPath) {
 369:../Backend/gnu-efi-3.0.9/lib/dpath.c **** 
 370:../Backend/gnu-efi-3.0.9/lib/dpath.c ****         ASSERT (((UINTN)NewPath) % MIN_ALIGNMENT_SIZE == 0);
 371:../Backend/gnu-efi-3.0.9/lib/dpath.c **** 
 372:../Backend/gnu-efi-3.0.9/lib/dpath.c ****         //
 373:../Backend/gnu-efi-3.0.9/lib/dpath.c ****         // Copy each node
 374:../Backend/gnu-efi-3.0.9/lib/dpath.c ****         //
 375:../Backend/gnu-efi-3.0.9/lib/dpath.c **** 
 376:../Backend/gnu-efi-3.0.9/lib/dpath.c ****         Src = DevPath;
 377:../Backend/gnu-efi-3.0.9/lib/dpath.c ****         Dest = NewPath;
 378:../Backend/gnu-efi-3.0.9/lib/dpath.c ****         for (; ;) {
 379:../Backend/gnu-efi-3.0.9/lib/dpath.c ****             Size = DevicePathNodeLength(Src);
 380:../Backend/gnu-efi-3.0.9/lib/dpath.c ****             CopyMem (Dest, Src, Size);
 381:../Backend/gnu-efi-3.0.9/lib/dpath.c ****             Size += ALIGN_SIZE(Size);
 382:../Backend/gnu-efi-3.0.9/lib/dpath.c ****             SetDevicePathNodeLength (Dest, Size);
 383:../Backend/gnu-efi-3.0.9/lib/dpath.c **** //            Dest->Type |= EFI_DP_TYPE_UNPACKED; // !!!!!!!!!!!! What?! This completely breaks Dev
 384:../Backend/gnu-efi-3.0.9/lib/dpath.c ****             Dest = (EFI_DEVICE_PATH *) (((UINT8 *) Dest) + Size);
 385:../Backend/gnu-efi-3.0.9/lib/dpath.c **** 
 386:../Backend/gnu-efi-3.0.9/lib/dpath.c ****             if (IsDevicePathEnd(Src)) {
 387:../Backend/gnu-efi-3.0.9/lib/dpath.c ****                 break;
 388:../Backend/gnu-efi-3.0.9/lib/dpath.c ****             }
 389:../Backend/gnu-efi-3.0.9/lib/dpath.c **** 
 390:../Backend/gnu-efi-3.0.9/lib/dpath.c ****             Src = NextDevicePathNode(Src);
 391:../Backend/gnu-efi-3.0.9/lib/dpath.c ****         }
 392:../Backend/gnu-efi-3.0.9/lib/dpath.c ****     }
 393:../Backend/gnu-efi-3.0.9/lib/dpath.c **** 
 394:../Backend/gnu-efi-3.0.9/lib/dpath.c ****     return NewPath;
 395:../Backend/gnu-efi-3.0.9/lib/dpath.c **** }
 396:../Backend/gnu-efi-3.0.9/lib/dpath.c **** 
 397:../Backend/gnu-efi-3.0.9/lib/dpath.c **** 
 398:../Backend/gnu-efi-3.0.9/lib/dpath.c **** EFI_DEVICE_PATH*
 399:../Backend/gnu-efi-3.0.9/lib/dpath.c **** AppendDevicePathInstance (
 400:../Backend/gnu-efi-3.0.9/lib/dpath.c ****     IN EFI_DEVICE_PATH  *Src,
 401:../Backend/gnu-efi-3.0.9/lib/dpath.c ****     IN EFI_DEVICE_PATH  *Instance
 402:../Backend/gnu-efi-3.0.9/lib/dpath.c ****     )
 403:../Backend/gnu-efi-3.0.9/lib/dpath.c **** {
 404:../Backend/gnu-efi-3.0.9/lib/dpath.c ****     UINT8           *Ptr;
 405:../Backend/gnu-efi-3.0.9/lib/dpath.c ****     EFI_DEVICE_PATH *DevPath;
 406:../Backend/gnu-efi-3.0.9/lib/dpath.c ****     UINTN           SrcSize;
 407:../Backend/gnu-efi-3.0.9/lib/dpath.c ****     UINTN           InstanceSize;
 408:../Backend/gnu-efi-3.0.9/lib/dpath.c **** 
 409:../Backend/gnu-efi-3.0.9/lib/dpath.c ****     if (Src == NULL) {
 410:../Backend/gnu-efi-3.0.9/lib/dpath.c ****         return DuplicateDevicePath (Instance);
 411:../Backend/gnu-efi-3.0.9/lib/dpath.c ****     }
 412:../Backend/gnu-efi-3.0.9/lib/dpath.c ****     SrcSize = DevicePathSize(Src);
 413:../Backend/gnu-efi-3.0.9/lib/dpath.c ****     InstanceSize = DevicePathSize(Instance);
 414:../Backend/gnu-efi-3.0.9/lib/dpath.c ****     Ptr = AllocatePool (SrcSize + InstanceSize);
 415:../Backend/gnu-efi-3.0.9/lib/dpath.c ****     DevPath = (EFI_DEVICE_PATH *)Ptr;
 416:../Backend/gnu-efi-3.0.9/lib/dpath.c ****     ASSERT(DevPath);
 417:../Backend/gnu-efi-3.0.9/lib/dpath.c **** 
 418:../Backend/gnu-efi-3.0.9/lib/dpath.c ****     CopyMem (Ptr, Src, SrcSize);
 419:../Backend/gnu-efi-3.0.9/lib/dpath.c **** //    FreePool (Src);
 420:../Backend/gnu-efi-3.0.9/lib/dpath.c **** 
 421:../Backend/gnu-efi-3.0.9/lib/dpath.c ****     while (!IsDevicePathEnd(DevPath)) {
 422:../Backend/gnu-efi-3.0.9/lib/dpath.c ****         DevPath = NextDevicePathNode(DevPath);
 423:../Backend/gnu-efi-3.0.9/lib/dpath.c ****     }
 424:../Backend/gnu-efi-3.0.9/lib/dpath.c ****     //
 425:../Backend/gnu-efi-3.0.9/lib/dpath.c ****     // Convert the End to an End Instance, since we are
 426:../Backend/gnu-efi-3.0.9/lib/dpath.c ****     //  appending another instacne after this one its a good
 427:../Backend/gnu-efi-3.0.9/lib/dpath.c ****     //  idea.
 428:../Backend/gnu-efi-3.0.9/lib/dpath.c ****     //
 429:../Backend/gnu-efi-3.0.9/lib/dpath.c ****     DevPath->SubType = END_INSTANCE_DEVICE_PATH_SUBTYPE;
 430:../Backend/gnu-efi-3.0.9/lib/dpath.c **** 
 431:../Backend/gnu-efi-3.0.9/lib/dpath.c ****     DevPath = NextDevicePathNode(DevPath);
 432:../Backend/gnu-efi-3.0.9/lib/dpath.c ****     CopyMem (DevPath, Instance, InstanceSize);
 433:../Backend/gnu-efi-3.0.9/lib/dpath.c ****     return (EFI_DEVICE_PATH *)Ptr;
 434:../Backend/gnu-efi-3.0.9/lib/dpath.c **** }
 435:../Backend/gnu-efi-3.0.9/lib/dpath.c **** 
 436:../Backend/gnu-efi-3.0.9/lib/dpath.c **** EFI_STATUS
 437:../Backend/gnu-efi-3.0.9/lib/dpath.c **** LibDevicePathToInterface (
 438:../Backend/gnu-efi-3.0.9/lib/dpath.c ****     IN EFI_GUID             *Protocol,
 439:../Backend/gnu-efi-3.0.9/lib/dpath.c ****     IN EFI_DEVICE_PATH      *FilePath,
 440:../Backend/gnu-efi-3.0.9/lib/dpath.c ****     OUT VOID                **Interface
 441:../Backend/gnu-efi-3.0.9/lib/dpath.c ****     )
 442:../Backend/gnu-efi-3.0.9/lib/dpath.c **** {
 443:../Backend/gnu-efi-3.0.9/lib/dpath.c ****     EFI_STATUS              Status;
 444:../Backend/gnu-efi-3.0.9/lib/dpath.c ****     EFI_HANDLE              Device;
 445:../Backend/gnu-efi-3.0.9/lib/dpath.c **** 
 446:../Backend/gnu-efi-3.0.9/lib/dpath.c ****     Status = uefi_call_wrapper(BS->LocateDevicePath, 3, Protocol, &FilePath, &Device);
 447:../Backend/gnu-efi-3.0.9/lib/dpath.c **** 
 448:../Backend/gnu-efi-3.0.9/lib/dpath.c ****     if (!EFI_ERROR(Status)) {
 449:../Backend/gnu-efi-3.0.9/lib/dpath.c **** 
 450:../Backend/gnu-efi-3.0.9/lib/dpath.c ****         // If we didn't get a direct match return not found
 451:../Backend/gnu-efi-3.0.9/lib/dpath.c ****         Status = EFI_NOT_FOUND;
 452:../Backend/gnu-efi-3.0.9/lib/dpath.c **** 
 453:../Backend/gnu-efi-3.0.9/lib/dpath.c ****         if (IsDevicePathEnd(FilePath)) {
 454:../Backend/gnu-efi-3.0.9/lib/dpath.c **** 
 455:../Backend/gnu-efi-3.0.9/lib/dpath.c ****             //
 456:../Backend/gnu-efi-3.0.9/lib/dpath.c ****             // It was a direct match, lookup the protocol interface
 457:../Backend/gnu-efi-3.0.9/lib/dpath.c ****             //
 458:../Backend/gnu-efi-3.0.9/lib/dpath.c **** 
 459:../Backend/gnu-efi-3.0.9/lib/dpath.c **** //            Status = uefi_call_wrapper(BS->HandleProtocol, 3, Device, Protocol, Interface); // Le
 460:../Backend/gnu-efi-3.0.9/lib/dpath.c ****             Status = uefi_call_wrapper(BS->OpenProtocol, 6, Device, Protocol, Interface, NULL, NULL
 461:../Backend/gnu-efi-3.0.9/lib/dpath.c ****         }
 462:../Backend/gnu-efi-3.0.9/lib/dpath.c ****     }
 463:../Backend/gnu-efi-3.0.9/lib/dpath.c **** 
 464:../Backend/gnu-efi-3.0.9/lib/dpath.c ****     //
 465:../Backend/gnu-efi-3.0.9/lib/dpath.c ****     // If there was an error, do not return an interface
 466:../Backend/gnu-efi-3.0.9/lib/dpath.c ****     //
 467:../Backend/gnu-efi-3.0.9/lib/dpath.c **** 
 468:../Backend/gnu-efi-3.0.9/lib/dpath.c ****     if (EFI_ERROR(Status)) {
 469:../Backend/gnu-efi-3.0.9/lib/dpath.c ****         *Interface = NULL;
 470:../Backend/gnu-efi-3.0.9/lib/dpath.c ****     }
 471:../Backend/gnu-efi-3.0.9/lib/dpath.c **** 
 472:../Backend/gnu-efi-3.0.9/lib/dpath.c ****     return Status;
 473:../Backend/gnu-efi-3.0.9/lib/dpath.c **** }
 474:../Backend/gnu-efi-3.0.9/lib/dpath.c **** 
 475:../Backend/gnu-efi-3.0.9/lib/dpath.c **** static VOID
 476:../Backend/gnu-efi-3.0.9/lib/dpath.c **** _DevPathPci (
 477:../Backend/gnu-efi-3.0.9/lib/dpath.c ****     IN OUT POOL_PRINT       *Str,
 478:../Backend/gnu-efi-3.0.9/lib/dpath.c ****     IN VOID                 *DevPath
 479:../Backend/gnu-efi-3.0.9/lib/dpath.c ****     )
 480:../Backend/gnu-efi-3.0.9/lib/dpath.c **** {
 481:../Backend/gnu-efi-3.0.9/lib/dpath.c ****     PCI_DEVICE_PATH         *Pci;
 482:../Backend/gnu-efi-3.0.9/lib/dpath.c **** 
 483:../Backend/gnu-efi-3.0.9/lib/dpath.c ****     Pci = DevPath;
 484:../Backend/gnu-efi-3.0.9/lib/dpath.c ****     CatPrint(Str, L"Pci(0x%x,0x%x)", Pci->Device, Pci->Function);
 485:../Backend/gnu-efi-3.0.9/lib/dpath.c **** }
 486:../Backend/gnu-efi-3.0.9/lib/dpath.c **** 
 487:../Backend/gnu-efi-3.0.9/lib/dpath.c **** static VOID
 488:../Backend/gnu-efi-3.0.9/lib/dpath.c **** _DevPathPccard (
 489:../Backend/gnu-efi-3.0.9/lib/dpath.c ****     IN OUT POOL_PRINT       *Str,
 490:../Backend/gnu-efi-3.0.9/lib/dpath.c ****     IN VOID                 *DevPath
 491:../Backend/gnu-efi-3.0.9/lib/dpath.c ****     )
 492:../Backend/gnu-efi-3.0.9/lib/dpath.c **** {
 493:../Backend/gnu-efi-3.0.9/lib/dpath.c ****     PCCARD_DEVICE_PATH      *Pccard;
 494:../Backend/gnu-efi-3.0.9/lib/dpath.c **** 
 495:../Backend/gnu-efi-3.0.9/lib/dpath.c ****     Pccard = DevPath;
 496:../Backend/gnu-efi-3.0.9/lib/dpath.c ****     CatPrint(Str, L"Pccard(0x%x)", Pccard-> FunctionNumber );
 497:../Backend/gnu-efi-3.0.9/lib/dpath.c **** }
 498:../Backend/gnu-efi-3.0.9/lib/dpath.c **** 
 499:../Backend/gnu-efi-3.0.9/lib/dpath.c **** static VOID
 500:../Backend/gnu-efi-3.0.9/lib/dpath.c **** _DevPathMemMap (
 501:../Backend/gnu-efi-3.0.9/lib/dpath.c ****     IN OUT POOL_PRINT       *Str,
 502:../Backend/gnu-efi-3.0.9/lib/dpath.c ****     IN VOID                 *DevPath
 503:../Backend/gnu-efi-3.0.9/lib/dpath.c ****     )
 504:../Backend/gnu-efi-3.0.9/lib/dpath.c **** {
 505:../Backend/gnu-efi-3.0.9/lib/dpath.c ****     MEMMAP_DEVICE_PATH      *MemMap;
 506:../Backend/gnu-efi-3.0.9/lib/dpath.c **** 
 507:../Backend/gnu-efi-3.0.9/lib/dpath.c ****     MemMap = DevPath;
 508:../Backend/gnu-efi-3.0.9/lib/dpath.c ****     CatPrint(Str, L"MemMap(%d,0x%x,0x%x)",
 509:../Backend/gnu-efi-3.0.9/lib/dpath.c ****         MemMap->MemoryType,
 510:../Backend/gnu-efi-3.0.9/lib/dpath.c ****         MemMap->StartingAddress,
 511:../Backend/gnu-efi-3.0.9/lib/dpath.c ****         MemMap->EndingAddress
 512:../Backend/gnu-efi-3.0.9/lib/dpath.c ****         );
 513:../Backend/gnu-efi-3.0.9/lib/dpath.c **** }
 514:../Backend/gnu-efi-3.0.9/lib/dpath.c **** 
 515:../Backend/gnu-efi-3.0.9/lib/dpath.c **** static VOID
 516:../Backend/gnu-efi-3.0.9/lib/dpath.c **** _DevPathController (
 517:../Backend/gnu-efi-3.0.9/lib/dpath.c ****     IN OUT POOL_PRINT       *Str,
 518:../Backend/gnu-efi-3.0.9/lib/dpath.c ****     IN VOID                 *DevPath
 519:../Backend/gnu-efi-3.0.9/lib/dpath.c ****     )
 520:../Backend/gnu-efi-3.0.9/lib/dpath.c **** {
 521:../Backend/gnu-efi-3.0.9/lib/dpath.c ****     CONTROLLER_DEVICE_PATH  *Controller;
 522:../Backend/gnu-efi-3.0.9/lib/dpath.c **** 
 523:../Backend/gnu-efi-3.0.9/lib/dpath.c ****     Controller = DevPath;
 524:../Backend/gnu-efi-3.0.9/lib/dpath.c ****     CatPrint(Str, L"Ctrl(%d)",
 525:../Backend/gnu-efi-3.0.9/lib/dpath.c ****         Controller->Controller
 526:../Backend/gnu-efi-3.0.9/lib/dpath.c ****         );
 527:../Backend/gnu-efi-3.0.9/lib/dpath.c **** }
 528:../Backend/gnu-efi-3.0.9/lib/dpath.c **** 
 529:../Backend/gnu-efi-3.0.9/lib/dpath.c **** static VOID
 530:../Backend/gnu-efi-3.0.9/lib/dpath.c **** _DevPathVendor (
 531:../Backend/gnu-efi-3.0.9/lib/dpath.c ****     IN OUT POOL_PRINT       *Str,
 532:../Backend/gnu-efi-3.0.9/lib/dpath.c ****     IN VOID                 *DevPath
 533:../Backend/gnu-efi-3.0.9/lib/dpath.c ****     )
 534:../Backend/gnu-efi-3.0.9/lib/dpath.c **** {
 535:../Backend/gnu-efi-3.0.9/lib/dpath.c ****     VENDOR_DEVICE_PATH                  *Vendor;
 536:../Backend/gnu-efi-3.0.9/lib/dpath.c ****     CHAR16                              *Type;
 537:../Backend/gnu-efi-3.0.9/lib/dpath.c ****     UNKNOWN_DEVICE_VENDOR_DEVICE_PATH   *UnknownDevPath;
 538:../Backend/gnu-efi-3.0.9/lib/dpath.c **** 
 539:../Backend/gnu-efi-3.0.9/lib/dpath.c ****     Vendor = DevPath;
 540:../Backend/gnu-efi-3.0.9/lib/dpath.c ****     switch (DevicePathType(&Vendor->Header)) {
 541:../Backend/gnu-efi-3.0.9/lib/dpath.c ****     case HARDWARE_DEVICE_PATH:  Type = L"Hw";        break;
 542:../Backend/gnu-efi-3.0.9/lib/dpath.c ****     case MESSAGING_DEVICE_PATH: Type = L"Msg";       break;
 543:../Backend/gnu-efi-3.0.9/lib/dpath.c ****     case MEDIA_DEVICE_PATH:     Type = L"Media";     break;
 544:../Backend/gnu-efi-3.0.9/lib/dpath.c ****     default:                    Type = L"?";         break;
 545:../Backend/gnu-efi-3.0.9/lib/dpath.c ****     }
 546:../Backend/gnu-efi-3.0.9/lib/dpath.c **** 
 547:../Backend/gnu-efi-3.0.9/lib/dpath.c ****     CatPrint(Str, L"Ven%s(%g", Type, &Vendor->Guid);
 548:../Backend/gnu-efi-3.0.9/lib/dpath.c ****     if (CompareGuid (&Vendor->Guid, &UnknownDevice) == 0) {
 549:../Backend/gnu-efi-3.0.9/lib/dpath.c ****         //
 550:../Backend/gnu-efi-3.0.9/lib/dpath.c ****         // GUID used by EFI to enumerate an EDD 1.1 device
 551:../Backend/gnu-efi-3.0.9/lib/dpath.c ****         //
 552:../Backend/gnu-efi-3.0.9/lib/dpath.c ****         UnknownDevPath = (UNKNOWN_DEVICE_VENDOR_DEVICE_PATH *)Vendor;
 553:../Backend/gnu-efi-3.0.9/lib/dpath.c ****         CatPrint(Str, L":%02x)", UnknownDevPath->LegacyDriveLetter);
 554:../Backend/gnu-efi-3.0.9/lib/dpath.c ****     } else {
 555:../Backend/gnu-efi-3.0.9/lib/dpath.c ****         CatPrint(Str, L")");
 556:../Backend/gnu-efi-3.0.9/lib/dpath.c ****     }
 557:../Backend/gnu-efi-3.0.9/lib/dpath.c **** }
 558:../Backend/gnu-efi-3.0.9/lib/dpath.c **** 
 559:../Backend/gnu-efi-3.0.9/lib/dpath.c **** // ACPI ADR Type (Type 2, Subtype 3)
 560:../Backend/gnu-efi-3.0.9/lib/dpath.c **** static VOID
 561:../Backend/gnu-efi-3.0.9/lib/dpath.c **** _DevPathAcpiAdr (
 562:../Backend/gnu-efi-3.0.9/lib/dpath.c ****     IN OUT POOL_PRINT       *Str,
 563:../Backend/gnu-efi-3.0.9/lib/dpath.c ****     IN VOID                 *DevPath
 564:../Backend/gnu-efi-3.0.9/lib/dpath.c ****     )
 565:../Backend/gnu-efi-3.0.9/lib/dpath.c **** {
 566:../Backend/gnu-efi-3.0.9/lib/dpath.c ****   ACPI_ADR_DEVICE_PATH *AcpiAdr;
 567:../Backend/gnu-efi-3.0.9/lib/dpath.c **** 
 568:../Backend/gnu-efi-3.0.9/lib/dpath.c ****   AcpiAdr = DevPath;
 569:../Backend/gnu-efi-3.0.9/lib/dpath.c ****   if( DevicePathNodeLength(&AcpiAdr->Header) == sizeof(ACPI_ADR_DEVICE_PATH))
 570:../Backend/gnu-efi-3.0.9/lib/dpath.c ****   { // Only one ADR entry
 571:../Backend/gnu-efi-3.0.9/lib/dpath.c ****     CatPrint(Str, L"AcpiADR(0x%X)", AcpiAdr->ADR);
 572:../Backend/gnu-efi-3.0.9/lib/dpath.c ****   }
 573:../Backend/gnu-efi-3.0.9/lib/dpath.c ****   else
 574:../Backend/gnu-efi-3.0.9/lib/dpath.c ****   {
 575:../Backend/gnu-efi-3.0.9/lib/dpath.c ****     UINTN NumADREntries = (DevicePathNodeLength(&AcpiAdr->Header) % 4) - 1; // Header is also 4 byt
 576:../Backend/gnu-efi-3.0.9/lib/dpath.c **** 
 577:../Backend/gnu-efi-3.0.9/lib/dpath.c ****     CatPrint(Str, L"AcpiADR_0(0x%X)", AcpiAdr->ADR);
 578:../Backend/gnu-efi-3.0.9/lib/dpath.c **** 
 579:../Backend/gnu-efi-3.0.9/lib/dpath.c ****     for(UINTN Entry = 1; Entry < NumADREntries; Entry++)
 580:../Backend/gnu-efi-3.0.9/lib/dpath.c ****     {
 581:../Backend/gnu-efi-3.0.9/lib/dpath.c ****       CatPrint(Str, L"AcpiADR_%d(0x%X)", Entry, *(((UINT32*)AcpiAdr) + Entry + 1) ); // 0th UINT32 
 582:../Backend/gnu-efi-3.0.9/lib/dpath.c ****     }
 583:../Backend/gnu-efi-3.0.9/lib/dpath.c ****   }
 584:../Backend/gnu-efi-3.0.9/lib/dpath.c **** }
 585:../Backend/gnu-efi-3.0.9/lib/dpath.c **** // End ADR addition
 586:../Backend/gnu-efi-3.0.9/lib/dpath.c **** 
 587:../Backend/gnu-efi-3.0.9/lib/dpath.c **** // ACPI Expanded (Type 2, Subtype 2)
 588:../Backend/gnu-efi-3.0.9/lib/dpath.c **** 
 589:../Backend/gnu-efi-3.0.9/lib/dpath.c **** static VOID
 590:../Backend/gnu-efi-3.0.9/lib/dpath.c **** _DevPathAcpiExpanded (
 591:../Backend/gnu-efi-3.0.9/lib/dpath.c ****     IN OUT POOL_PRINT       *Str,
 592:../Backend/gnu-efi-3.0.9/lib/dpath.c ****     IN VOID                 *DevPath
 593:../Backend/gnu-efi-3.0.9/lib/dpath.c ****     )
 594:../Backend/gnu-efi-3.0.9/lib/dpath.c **** {
 595:../Backend/gnu-efi-3.0.9/lib/dpath.c ****     EXPANDED_ACPI_HID_DEVICE_PATH        *AcpiExpanded;
 596:../Backend/gnu-efi-3.0.9/lib/dpath.c **** 
 597:../Backend/gnu-efi-3.0.9/lib/dpath.c ****     AcpiExpanded = DevPath;
 598:../Backend/gnu-efi-3.0.9/lib/dpath.c ****     if ((AcpiExpanded->HID & PNP_EISA_ID_MASK) == PNP_EISA_ID_CONST) {
 599:../Backend/gnu-efi-3.0.9/lib/dpath.c ****         switch ( EISA_ID_TO_NUM( AcpiExpanded-> HID ) ) {
 600:../Backend/gnu-efi-3.0.9/lib/dpath.c ****             case 0x301 : {
 601:../Backend/gnu-efi-3.0.9/lib/dpath.c ****                 CatPrint( Str , L"Keyboard(%d)" , AcpiExpanded-> UID ) ;
 602:../Backend/gnu-efi-3.0.9/lib/dpath.c ****                 break ;
 603:../Backend/gnu-efi-3.0.9/lib/dpath.c ****             }
 604:../Backend/gnu-efi-3.0.9/lib/dpath.c ****             case 0x401 : {
 605:../Backend/gnu-efi-3.0.9/lib/dpath.c ****                 CatPrint( Str , L"ParallelPort(%d)" , AcpiExpanded-> UID ) ;
 606:../Backend/gnu-efi-3.0.9/lib/dpath.c ****                 break ;
 607:../Backend/gnu-efi-3.0.9/lib/dpath.c ****             }
 608:../Backend/gnu-efi-3.0.9/lib/dpath.c ****             case 0x501 : {
 609:../Backend/gnu-efi-3.0.9/lib/dpath.c ****                 CatPrint( Str , L"Serial(%d)" , AcpiExpanded-> UID ) ;
 610:../Backend/gnu-efi-3.0.9/lib/dpath.c ****                 break ;
 611:../Backend/gnu-efi-3.0.9/lib/dpath.c ****             }
 612:../Backend/gnu-efi-3.0.9/lib/dpath.c ****             case 0x604 : {
 613:../Backend/gnu-efi-3.0.9/lib/dpath.c ****                 CatPrint( Str , L"Floppy(%d)" , AcpiExpanded-> UID ) ;
 614:../Backend/gnu-efi-3.0.9/lib/dpath.c ****                 break ;
 615:../Backend/gnu-efi-3.0.9/lib/dpath.c ****             }
 616:../Backend/gnu-efi-3.0.9/lib/dpath.c ****             case 0xa03 : {
 617:../Backend/gnu-efi-3.0.9/lib/dpath.c ****                 CatPrint( Str , L"PciRoot(%d)" , AcpiExpanded-> UID ) ;
 618:../Backend/gnu-efi-3.0.9/lib/dpath.c ****                 break ;
 619:../Backend/gnu-efi-3.0.9/lib/dpath.c ****             }
 620:../Backend/gnu-efi-3.0.9/lib/dpath.c ****             case 0xa08 : {
 621:../Backend/gnu-efi-3.0.9/lib/dpath.c ****                 CatPrint( Str , L"PcieRoot(%d)" , AcpiExpanded-> UID ) ;
 622:../Backend/gnu-efi-3.0.9/lib/dpath.c ****                 break ;
 623:../Backend/gnu-efi-3.0.9/lib/dpath.c ****             }
 624:../Backend/gnu-efi-3.0.9/lib/dpath.c ****             default : {
 625:../Backend/gnu-efi-3.0.9/lib/dpath.c ****                 CatPrint( Str , L"AcpiEx(PNP%04x" , EISA_ID_TO_NUM( AcpiExpanded-> HID ) ) ;
 626:../Backend/gnu-efi-3.0.9/lib/dpath.c ****                 if ( AcpiExpanded-> UID )
 627:../Backend/gnu-efi-3.0.9/lib/dpath.c ****                 {
 628:../Backend/gnu-efi-3.0.9/lib/dpath.c ****                   CatPrint( Str , L",%d" , AcpiExpanded-> UID ) ;
 629:../Backend/gnu-efi-3.0.9/lib/dpath.c ****                 }
 630:../Backend/gnu-efi-3.0.9/lib/dpath.c ****                 else
 631:../Backend/gnu-efi-3.0.9/lib/dpath.c ****                 {
 632:../Backend/gnu-efi-3.0.9/lib/dpath.c ****                   CatPrint( Str , L",0" );
 633:../Backend/gnu-efi-3.0.9/lib/dpath.c ****                 }
 634:../Backend/gnu-efi-3.0.9/lib/dpath.c ****                 if ( AcpiExpanded-> CID )
 635:../Backend/gnu-efi-3.0.9/lib/dpath.c ****                 {
 636:../Backend/gnu-efi-3.0.9/lib/dpath.c ****                   CatPrint( Str , L",0x%x" , AcpiExpanded-> CID ) ;
 637:../Backend/gnu-efi-3.0.9/lib/dpath.c ****                 }
 638:../Backend/gnu-efi-3.0.9/lib/dpath.c ****                 else
 639:../Backend/gnu-efi-3.0.9/lib/dpath.c ****                 {
 640:../Backend/gnu-efi-3.0.9/lib/dpath.c ****                   CatPrint( Str , L",0" );
 641:../Backend/gnu-efi-3.0.9/lib/dpath.c ****                 }
 642:../Backend/gnu-efi-3.0.9/lib/dpath.c ****                 if( DevicePathNodeLength(&AcpiExpanded->Header) > 19) // Known size
 643:../Backend/gnu-efi-3.0.9/lib/dpath.c ****                 {
 644:../Backend/gnu-efi-3.0.9/lib/dpath.c ****                   UINTN bytelength = 0;
 645:../Backend/gnu-efi-3.0.9/lib/dpath.c **** 
 646:../Backend/gnu-efi-3.0.9/lib/dpath.c ****                   if(AcpiExpanded->HidStr[0]) // Hidstr has something
 647:../Backend/gnu-efi-3.0.9/lib/dpath.c ****                   {
 648:../Backend/gnu-efi-3.0.9/lib/dpath.c ****                     CatPrint( Str , L",%a", AcpiExpanded->HidStr);
 649:../Backend/gnu-efi-3.0.9/lib/dpath.c **** 
 650:../Backend/gnu-efi-3.0.9/lib/dpath.c ****                     UINT8 byte = 0x01;
 651:../Backend/gnu-efi-3.0.9/lib/dpath.c ****                     while(byte != 0x00)
 652:../Backend/gnu-efi-3.0.9/lib/dpath.c ****                     {
 653:../Backend/gnu-efi-3.0.9/lib/dpath.c ****                       byte = (AcpiExpanded->HidStr + bytelength)[0];
 654:../Backend/gnu-efi-3.0.9/lib/dpath.c ****                       bytelength++;
 655:../Backend/gnu-efi-3.0.9/lib/dpath.c ****                     }
 656:../Backend/gnu-efi-3.0.9/lib/dpath.c ****                   }
 657:../Backend/gnu-efi-3.0.9/lib/dpath.c ****                   else // Nothing
 658:../Backend/gnu-efi-3.0.9/lib/dpath.c ****                   {
 659:../Backend/gnu-efi-3.0.9/lib/dpath.c ****                     CatPrint( Str , L",0" );
 660:../Backend/gnu-efi-3.0.9/lib/dpath.c ****                     bytelength++;
 661:../Backend/gnu-efi-3.0.9/lib/dpath.c ****                   }
 662:../Backend/gnu-efi-3.0.9/lib/dpath.c **** 
 663:../Backend/gnu-efi-3.0.9/lib/dpath.c ****                   if( (AcpiExpanded->HidStr + bytelength)[0] ) // Uidstr has something
 664:../Backend/gnu-efi-3.0.9/lib/dpath.c ****                   {
 665:../Backend/gnu-efi-3.0.9/lib/dpath.c ****                     CatPrint( Str , L",%a", AcpiExpanded->HidStr + bytelength);
 666:../Backend/gnu-efi-3.0.9/lib/dpath.c **** 
 667:../Backend/gnu-efi-3.0.9/lib/dpath.c ****                     UINT8 byte = 0x01;
 668:../Backend/gnu-efi-3.0.9/lib/dpath.c ****                     while(byte != 0x00)
 669:../Backend/gnu-efi-3.0.9/lib/dpath.c ****                     {
 670:../Backend/gnu-efi-3.0.9/lib/dpath.c ****                       byte = (AcpiExpanded->HidStr + bytelength)[0];
 671:../Backend/gnu-efi-3.0.9/lib/dpath.c ****                       bytelength++;
 672:../Backend/gnu-efi-3.0.9/lib/dpath.c ****                     }
 673:../Backend/gnu-efi-3.0.9/lib/dpath.c ****                   }
 674:../Backend/gnu-efi-3.0.9/lib/dpath.c ****                   else // Nothing
 675:../Backend/gnu-efi-3.0.9/lib/dpath.c ****                   {
 676:../Backend/gnu-efi-3.0.9/lib/dpath.c ****                     CatPrint( Str , L",0" );
 677:../Backend/gnu-efi-3.0.9/lib/dpath.c ****                     bytelength++;
 678:../Backend/gnu-efi-3.0.9/lib/dpath.c ****                   }
 679:../Backend/gnu-efi-3.0.9/lib/dpath.c **** 
 680:../Backend/gnu-efi-3.0.9/lib/dpath.c ****                   if( (AcpiExpanded->HidStr + bytelength)[0] ) // Cidstr has something
 681:../Backend/gnu-efi-3.0.9/lib/dpath.c ****                   {
 682:../Backend/gnu-efi-3.0.9/lib/dpath.c ****                     CatPrint( Str , L",%a", AcpiExpanded->HidStr + bytelength);
 683:../Backend/gnu-efi-3.0.9/lib/dpath.c ****                   }
 684:../Backend/gnu-efi-3.0.9/lib/dpath.c ****                   else // Nothing
 685:../Backend/gnu-efi-3.0.9/lib/dpath.c ****                   {
 686:../Backend/gnu-efi-3.0.9/lib/dpath.c ****                     CatPrint( Str , L",0" );
 687:../Backend/gnu-efi-3.0.9/lib/dpath.c ****                   }
 688:../Backend/gnu-efi-3.0.9/lib/dpath.c **** 
 689:../Backend/gnu-efi-3.0.9/lib/dpath.c ****                 }
 690:../Backend/gnu-efi-3.0.9/lib/dpath.c ****                 CatPrint( Str , L")" ) ;
 691:../Backend/gnu-efi-3.0.9/lib/dpath.c ****                 break ;
 692:../Backend/gnu-efi-3.0.9/lib/dpath.c ****             }
 693:../Backend/gnu-efi-3.0.9/lib/dpath.c **** 	}
 694:../Backend/gnu-efi-3.0.9/lib/dpath.c ****     } else {
 695:../Backend/gnu-efi-3.0.9/lib/dpath.c ****         CatPrint( Str , L"AcpiEx(" );
 696:../Backend/gnu-efi-3.0.9/lib/dpath.c ****         if ( AcpiExpanded-> HID )
 697:../Backend/gnu-efi-3.0.9/lib/dpath.c ****         {
 698:../Backend/gnu-efi-3.0.9/lib/dpath.c ****           CatPrint( Str , L"0x%X", AcpiExpanded-> HID ) ;
 699:../Backend/gnu-efi-3.0.9/lib/dpath.c ****         }
 700:../Backend/gnu-efi-3.0.9/lib/dpath.c ****         else
 701:../Backend/gnu-efi-3.0.9/lib/dpath.c ****         {
 702:../Backend/gnu-efi-3.0.9/lib/dpath.c ****           CatPrint( Str , L"0" );
 703:../Backend/gnu-efi-3.0.9/lib/dpath.c ****         }
 704:../Backend/gnu-efi-3.0.9/lib/dpath.c ****         if ( AcpiExpanded-> UID )
 705:../Backend/gnu-efi-3.0.9/lib/dpath.c ****         {
 706:../Backend/gnu-efi-3.0.9/lib/dpath.c ****           CatPrint( Str , L",%d" , AcpiExpanded-> UID ) ;
 707:../Backend/gnu-efi-3.0.9/lib/dpath.c ****         }
 708:../Backend/gnu-efi-3.0.9/lib/dpath.c ****         else
 709:../Backend/gnu-efi-3.0.9/lib/dpath.c ****         {
 710:../Backend/gnu-efi-3.0.9/lib/dpath.c ****           CatPrint( Str , L",0" );
 711:../Backend/gnu-efi-3.0.9/lib/dpath.c ****         }
 712:../Backend/gnu-efi-3.0.9/lib/dpath.c ****         if ( AcpiExpanded-> CID )
 713:../Backend/gnu-efi-3.0.9/lib/dpath.c ****         {
 714:../Backend/gnu-efi-3.0.9/lib/dpath.c ****           CatPrint( Str , L",0x%x" , AcpiExpanded-> CID ) ;
 715:../Backend/gnu-efi-3.0.9/lib/dpath.c ****         }
 716:../Backend/gnu-efi-3.0.9/lib/dpath.c ****         else
 717:../Backend/gnu-efi-3.0.9/lib/dpath.c ****         {
 718:../Backend/gnu-efi-3.0.9/lib/dpath.c ****           CatPrint( Str , L",0" );
 719:../Backend/gnu-efi-3.0.9/lib/dpath.c ****         }
 720:../Backend/gnu-efi-3.0.9/lib/dpath.c ****         if( DevicePathNodeLength(&AcpiExpanded->Header) > 19) // Known size
 721:../Backend/gnu-efi-3.0.9/lib/dpath.c ****         {
 722:../Backend/gnu-efi-3.0.9/lib/dpath.c ****           UINTN bytelength = 0;
 723:../Backend/gnu-efi-3.0.9/lib/dpath.c **** 
 724:../Backend/gnu-efi-3.0.9/lib/dpath.c ****           if(AcpiExpanded->HidStr[0]) // Hidstr has something
 725:../Backend/gnu-efi-3.0.9/lib/dpath.c ****           {
 726:../Backend/gnu-efi-3.0.9/lib/dpath.c ****             CatPrint( Str , L",%a", AcpiExpanded->HidStr);
 727:../Backend/gnu-efi-3.0.9/lib/dpath.c **** 
 728:../Backend/gnu-efi-3.0.9/lib/dpath.c ****             UINT8 byte = 0x01;
 729:../Backend/gnu-efi-3.0.9/lib/dpath.c ****             while(byte != 0x00)
 730:../Backend/gnu-efi-3.0.9/lib/dpath.c ****             {
 731:../Backend/gnu-efi-3.0.9/lib/dpath.c ****               byte = (AcpiExpanded->HidStr + bytelength)[0];
 732:../Backend/gnu-efi-3.0.9/lib/dpath.c ****               bytelength++;
 733:../Backend/gnu-efi-3.0.9/lib/dpath.c ****             }
 734:../Backend/gnu-efi-3.0.9/lib/dpath.c **** 
 735:../Backend/gnu-efi-3.0.9/lib/dpath.c ****           }
 736:../Backend/gnu-efi-3.0.9/lib/dpath.c ****           else // Nothing
 737:../Backend/gnu-efi-3.0.9/lib/dpath.c ****           {
 738:../Backend/gnu-efi-3.0.9/lib/dpath.c ****             CatPrint( Str , L",0" );
 739:../Backend/gnu-efi-3.0.9/lib/dpath.c ****             bytelength++;
 740:../Backend/gnu-efi-3.0.9/lib/dpath.c ****           }
 741:../Backend/gnu-efi-3.0.9/lib/dpath.c **** 
 742:../Backend/gnu-efi-3.0.9/lib/dpath.c ****           if( (AcpiExpanded->HidStr + bytelength)[0] ) // Uidstr has something
 743:../Backend/gnu-efi-3.0.9/lib/dpath.c ****           {
 744:../Backend/gnu-efi-3.0.9/lib/dpath.c ****             CatPrint( Str , L",%a", AcpiExpanded->HidStr + bytelength);
 745:../Backend/gnu-efi-3.0.9/lib/dpath.c **** 
 746:../Backend/gnu-efi-3.0.9/lib/dpath.c ****             UINT8 byte = 0x01;
 747:../Backend/gnu-efi-3.0.9/lib/dpath.c ****             while(byte != 0x00)
 748:../Backend/gnu-efi-3.0.9/lib/dpath.c ****             {
 749:../Backend/gnu-efi-3.0.9/lib/dpath.c ****               byte = (AcpiExpanded->HidStr + bytelength)[0];
 750:../Backend/gnu-efi-3.0.9/lib/dpath.c ****               bytelength++;
 751:../Backend/gnu-efi-3.0.9/lib/dpath.c ****             }
 752:../Backend/gnu-efi-3.0.9/lib/dpath.c ****           }
 753:../Backend/gnu-efi-3.0.9/lib/dpath.c ****           else // Nothing
 754:../Backend/gnu-efi-3.0.9/lib/dpath.c ****           {
 755:../Backend/gnu-efi-3.0.9/lib/dpath.c ****             CatPrint( Str , L",0" );
 756:../Backend/gnu-efi-3.0.9/lib/dpath.c ****             bytelength++;
 757:../Backend/gnu-efi-3.0.9/lib/dpath.c ****           }
 758:../Backend/gnu-efi-3.0.9/lib/dpath.c **** 
 759:../Backend/gnu-efi-3.0.9/lib/dpath.c ****           if( (AcpiExpanded->HidStr + bytelength)[0] ) // Cidstr has something
 760:../Backend/gnu-efi-3.0.9/lib/dpath.c ****           {
 761:../Backend/gnu-efi-3.0.9/lib/dpath.c ****             CatPrint( Str , L",%a", AcpiExpanded->HidStr + bytelength);
 762:../Backend/gnu-efi-3.0.9/lib/dpath.c ****           }
 763:../Backend/gnu-efi-3.0.9/lib/dpath.c ****           else // Nothing
 764:../Backend/gnu-efi-3.0.9/lib/dpath.c ****           {
 765:../Backend/gnu-efi-3.0.9/lib/dpath.c ****             CatPrint( Str , L",0" );
 766:../Backend/gnu-efi-3.0.9/lib/dpath.c ****           }
 767:../Backend/gnu-efi-3.0.9/lib/dpath.c **** 
 768:../Backend/gnu-efi-3.0.9/lib/dpath.c ****         }
 769:../Backend/gnu-efi-3.0.9/lib/dpath.c ****         CatPrint( Str , L")" ) ;
 770:../Backend/gnu-efi-3.0.9/lib/dpath.c ****     }
 771:../Backend/gnu-efi-3.0.9/lib/dpath.c **** 
 772:../Backend/gnu-efi-3.0.9/lib/dpath.c **** }
 773:../Backend/gnu-efi-3.0.9/lib/dpath.c **** // End ACPI Expanded addition
 774:../Backend/gnu-efi-3.0.9/lib/dpath.c **** 
 775:../Backend/gnu-efi-3.0.9/lib/dpath.c **** /*
 776:../Backend/gnu-efi-3.0.9/lib/dpath.c ****   Type: 2 (ACPI Device Path) SubType: 1 (ACPI Device Path)
 777:../Backend/gnu-efi-3.0.9/lib/dpath.c ****  */
 778:../Backend/gnu-efi-3.0.9/lib/dpath.c **** static VOID
 779:../Backend/gnu-efi-3.0.9/lib/dpath.c **** _DevPathAcpi (
 780:../Backend/gnu-efi-3.0.9/lib/dpath.c ****     IN OUT POOL_PRINT       *Str,
 781:../Backend/gnu-efi-3.0.9/lib/dpath.c ****     IN VOID                 *DevPath
 782:../Backend/gnu-efi-3.0.9/lib/dpath.c ****     )
 783:../Backend/gnu-efi-3.0.9/lib/dpath.c **** {
 784:../Backend/gnu-efi-3.0.9/lib/dpath.c ****     ACPI_HID_DEVICE_PATH        *Acpi;
 785:../Backend/gnu-efi-3.0.9/lib/dpath.c **** 
 786:../Backend/gnu-efi-3.0.9/lib/dpath.c ****     Acpi = DevPath;
 787:../Backend/gnu-efi-3.0.9/lib/dpath.c ****     if ((Acpi->HID & PNP_EISA_ID_MASK) == PNP_EISA_ID_CONST) {
 788:../Backend/gnu-efi-3.0.9/lib/dpath.c ****         switch ( EISA_ID_TO_NUM( Acpi-> HID ) ) {
 789:../Backend/gnu-efi-3.0.9/lib/dpath.c ****             case 0x301 : {
 790:../Backend/gnu-efi-3.0.9/lib/dpath.c ****                 CatPrint( Str , L"Keyboard(%d)" , Acpi-> UID ) ;
 791:../Backend/gnu-efi-3.0.9/lib/dpath.c ****                 break ;
 792:../Backend/gnu-efi-3.0.9/lib/dpath.c ****             }
 793:../Backend/gnu-efi-3.0.9/lib/dpath.c ****             case 0x401 : {
 794:../Backend/gnu-efi-3.0.9/lib/dpath.c ****                 CatPrint( Str , L"ParallelPort(%d)" , Acpi-> UID ) ;
 795:../Backend/gnu-efi-3.0.9/lib/dpath.c ****                 break ;
 796:../Backend/gnu-efi-3.0.9/lib/dpath.c ****             }
 797:../Backend/gnu-efi-3.0.9/lib/dpath.c ****             case 0x501 : {
 798:../Backend/gnu-efi-3.0.9/lib/dpath.c ****                 CatPrint( Str , L"Serial(%d)" , Acpi-> UID ) ;
 799:../Backend/gnu-efi-3.0.9/lib/dpath.c ****                 break ;
 800:../Backend/gnu-efi-3.0.9/lib/dpath.c ****             }
 801:../Backend/gnu-efi-3.0.9/lib/dpath.c ****             case 0x604 : {
 802:../Backend/gnu-efi-3.0.9/lib/dpath.c ****                 CatPrint( Str , L"Floppy(%d)" , Acpi-> UID ) ;
 803:../Backend/gnu-efi-3.0.9/lib/dpath.c ****                 break ;
 804:../Backend/gnu-efi-3.0.9/lib/dpath.c ****             }
 805:../Backend/gnu-efi-3.0.9/lib/dpath.c ****             case 0xa03 : {
 806:../Backend/gnu-efi-3.0.9/lib/dpath.c ****                 CatPrint( Str , L"PciRoot(%d)" , Acpi-> UID ) ;
 807:../Backend/gnu-efi-3.0.9/lib/dpath.c ****                 break ;
 808:../Backend/gnu-efi-3.0.9/lib/dpath.c ****             }
 809:../Backend/gnu-efi-3.0.9/lib/dpath.c ****             case 0xa08 : {
 810:../Backend/gnu-efi-3.0.9/lib/dpath.c ****                 CatPrint( Str , L"PcieRoot(%d)" , Acpi-> UID ) ;
 811:../Backend/gnu-efi-3.0.9/lib/dpath.c ****                 break ;
 812:../Backend/gnu-efi-3.0.9/lib/dpath.c ****             }
 813:../Backend/gnu-efi-3.0.9/lib/dpath.c ****             default : {
 814:../Backend/gnu-efi-3.0.9/lib/dpath.c ****                 CatPrint( Str , L"Acpi(PNP%04x" , EISA_ID_TO_NUM( Acpi-> HID ) ) ;
 815:../Backend/gnu-efi-3.0.9/lib/dpath.c ****                 if ( Acpi-> UID ) CatPrint( Str , L",%d" , Acpi-> UID ) ;
 816:../Backend/gnu-efi-3.0.9/lib/dpath.c ****                 CatPrint( Str , L")" ) ;
 817:../Backend/gnu-efi-3.0.9/lib/dpath.c ****                 break ;
 818:../Backend/gnu-efi-3.0.9/lib/dpath.c ****             }
 819:../Backend/gnu-efi-3.0.9/lib/dpath.c **** 	}
 820:../Backend/gnu-efi-3.0.9/lib/dpath.c ****     } else {
 821:../Backend/gnu-efi-3.0.9/lib/dpath.c ****         CatPrint( Str , L"Acpi(0x%X" , Acpi-> HID ) ;
 822:../Backend/gnu-efi-3.0.9/lib/dpath.c ****         if ( Acpi-> UID ) CatPrint( Str , L",%d" , Acpi-> UID ) ;
 823:../Backend/gnu-efi-3.0.9/lib/dpath.c ****         CatPrint( Str , L")" ) ; // Hmm... This was originally CatPrint( Str , L")" , Acpi-> HID , 
 824:../Backend/gnu-efi-3.0.9/lib/dpath.c ****     }
 825:../Backend/gnu-efi-3.0.9/lib/dpath.c **** }
 826:../Backend/gnu-efi-3.0.9/lib/dpath.c **** 
 827:../Backend/gnu-efi-3.0.9/lib/dpath.c **** 
 828:../Backend/gnu-efi-3.0.9/lib/dpath.c **** static VOID
 829:../Backend/gnu-efi-3.0.9/lib/dpath.c **** _DevPathAtapi (
 830:../Backend/gnu-efi-3.0.9/lib/dpath.c ****     IN OUT POOL_PRINT       *Str,
 831:../Backend/gnu-efi-3.0.9/lib/dpath.c ****     IN VOID                 *DevPath
 832:../Backend/gnu-efi-3.0.9/lib/dpath.c ****     )
 833:../Backend/gnu-efi-3.0.9/lib/dpath.c **** {
 834:../Backend/gnu-efi-3.0.9/lib/dpath.c ****     ATAPI_DEVICE_PATH       *Atapi;
 835:../Backend/gnu-efi-3.0.9/lib/dpath.c **** 
 836:../Backend/gnu-efi-3.0.9/lib/dpath.c ****     Atapi = DevPath;
 837:../Backend/gnu-efi-3.0.9/lib/dpath.c ****     CatPrint(Str, L"Ata(%s,%s)",
 838:../Backend/gnu-efi-3.0.9/lib/dpath.c ****         Atapi->PrimarySecondary ? L"Secondary" : L"Primary",
 839:../Backend/gnu-efi-3.0.9/lib/dpath.c ****         Atapi->SlaveMaster ? L"Slave" : L"Master"
 840:../Backend/gnu-efi-3.0.9/lib/dpath.c ****         );
 841:../Backend/gnu-efi-3.0.9/lib/dpath.c **** }
 842:../Backend/gnu-efi-3.0.9/lib/dpath.c **** 
 843:../Backend/gnu-efi-3.0.9/lib/dpath.c **** static VOID
 844:../Backend/gnu-efi-3.0.9/lib/dpath.c **** _DevPathScsi (
 845:../Backend/gnu-efi-3.0.9/lib/dpath.c ****     IN OUT POOL_PRINT       *Str,
 846:../Backend/gnu-efi-3.0.9/lib/dpath.c ****     IN VOID                 *DevPath
 847:../Backend/gnu-efi-3.0.9/lib/dpath.c ****     )
 848:../Backend/gnu-efi-3.0.9/lib/dpath.c **** {
 849:../Backend/gnu-efi-3.0.9/lib/dpath.c ****     SCSI_DEVICE_PATH        *Scsi;
 850:../Backend/gnu-efi-3.0.9/lib/dpath.c **** 
 851:../Backend/gnu-efi-3.0.9/lib/dpath.c ****     Scsi = DevPath;
 852:../Backend/gnu-efi-3.0.9/lib/dpath.c ****     CatPrint(Str, L"Scsi(%d,%d)", Scsi->Pun, Scsi->Lun);
 853:../Backend/gnu-efi-3.0.9/lib/dpath.c **** }
 854:../Backend/gnu-efi-3.0.9/lib/dpath.c **** 
 855:../Backend/gnu-efi-3.0.9/lib/dpath.c **** 
 856:../Backend/gnu-efi-3.0.9/lib/dpath.c **** static VOID
 857:../Backend/gnu-efi-3.0.9/lib/dpath.c **** _DevPathFibre (
 858:../Backend/gnu-efi-3.0.9/lib/dpath.c ****     IN OUT POOL_PRINT       *Str,
 859:../Backend/gnu-efi-3.0.9/lib/dpath.c ****     IN VOID                 *DevPath
 860:../Backend/gnu-efi-3.0.9/lib/dpath.c ****     )
 861:../Backend/gnu-efi-3.0.9/lib/dpath.c **** {
 862:../Backend/gnu-efi-3.0.9/lib/dpath.c ****     FIBRECHANNEL_DEVICE_PATH    *Fibre;
 863:../Backend/gnu-efi-3.0.9/lib/dpath.c **** 
 864:../Backend/gnu-efi-3.0.9/lib/dpath.c ****     Fibre = DevPath;
 865:../Backend/gnu-efi-3.0.9/lib/dpath.c ****     CatPrint( Str , L"Fibre%s(0x%016lx,0x%016lx)" ,
 866:../Backend/gnu-efi-3.0.9/lib/dpath.c ****         DevicePathType( & Fibre-> Header ) == MSG_FIBRECHANNEL_DP ? L"" : L"Ex" ,
 867:../Backend/gnu-efi-3.0.9/lib/dpath.c ****         Fibre-> WWN , Fibre-> Lun ) ;
 868:../Backend/gnu-efi-3.0.9/lib/dpath.c **** }
 869:../Backend/gnu-efi-3.0.9/lib/dpath.c **** 
 870:../Backend/gnu-efi-3.0.9/lib/dpath.c **** static VOID
 871:../Backend/gnu-efi-3.0.9/lib/dpath.c **** _DevPath1394 (
 872:../Backend/gnu-efi-3.0.9/lib/dpath.c ****     IN OUT POOL_PRINT       *Str,
 873:../Backend/gnu-efi-3.0.9/lib/dpath.c ****     IN VOID                 *DevPath
 874:../Backend/gnu-efi-3.0.9/lib/dpath.c ****     )
 875:../Backend/gnu-efi-3.0.9/lib/dpath.c **** {
 876:../Backend/gnu-efi-3.0.9/lib/dpath.c ****     F1394_DEVICE_PATH       *F1394;
 877:../Backend/gnu-efi-3.0.9/lib/dpath.c **** 
 878:../Backend/gnu-efi-3.0.9/lib/dpath.c ****     F1394 = DevPath;
 879:../Backend/gnu-efi-3.0.9/lib/dpath.c ****     CatPrint(Str, L"1394(%g)", &F1394->Guid);
 880:../Backend/gnu-efi-3.0.9/lib/dpath.c **** }
 881:../Backend/gnu-efi-3.0.9/lib/dpath.c **** 
 882:../Backend/gnu-efi-3.0.9/lib/dpath.c **** 
 883:../Backend/gnu-efi-3.0.9/lib/dpath.c **** 
 884:../Backend/gnu-efi-3.0.9/lib/dpath.c **** static VOID
 885:../Backend/gnu-efi-3.0.9/lib/dpath.c **** _DevPathUsb (
 886:../Backend/gnu-efi-3.0.9/lib/dpath.c ****     IN OUT POOL_PRINT       *Str,
 887:../Backend/gnu-efi-3.0.9/lib/dpath.c ****     IN VOID                 *DevPath
 888:../Backend/gnu-efi-3.0.9/lib/dpath.c ****     )
 889:../Backend/gnu-efi-3.0.9/lib/dpath.c **** {
 890:../Backend/gnu-efi-3.0.9/lib/dpath.c ****     USB_DEVICE_PATH         *Usb;
 891:../Backend/gnu-efi-3.0.9/lib/dpath.c **** 
 892:../Backend/gnu-efi-3.0.9/lib/dpath.c ****     Usb = DevPath;
 893:../Backend/gnu-efi-3.0.9/lib/dpath.c ****     CatPrint( Str , L"Usb(0x%x,0x%x)" , Usb-> Port , Usb-> Endpoint ) ;
 894:../Backend/gnu-efi-3.0.9/lib/dpath.c **** }
 895:../Backend/gnu-efi-3.0.9/lib/dpath.c **** 
 896:../Backend/gnu-efi-3.0.9/lib/dpath.c **** 
 897:../Backend/gnu-efi-3.0.9/lib/dpath.c **** static VOID
 898:../Backend/gnu-efi-3.0.9/lib/dpath.c **** _DevPathI2O (
 899:../Backend/gnu-efi-3.0.9/lib/dpath.c ****     IN OUT POOL_PRINT       *Str,
 900:../Backend/gnu-efi-3.0.9/lib/dpath.c ****     IN VOID                 *DevPath
 901:../Backend/gnu-efi-3.0.9/lib/dpath.c ****     )
 902:../Backend/gnu-efi-3.0.9/lib/dpath.c **** {
 903:../Backend/gnu-efi-3.0.9/lib/dpath.c ****     I2O_DEVICE_PATH         *I2O;
 904:../Backend/gnu-efi-3.0.9/lib/dpath.c **** 
 905:../Backend/gnu-efi-3.0.9/lib/dpath.c ****     I2O = DevPath;
 906:../Backend/gnu-efi-3.0.9/lib/dpath.c ****     CatPrint(Str, L"I2O(0x%X)", I2O->Tid);
 907:../Backend/gnu-efi-3.0.9/lib/dpath.c **** }
 908:../Backend/gnu-efi-3.0.9/lib/dpath.c **** 
 909:../Backend/gnu-efi-3.0.9/lib/dpath.c **** static VOID
 910:../Backend/gnu-efi-3.0.9/lib/dpath.c **** _DevPathMacAddr (
 911:../Backend/gnu-efi-3.0.9/lib/dpath.c ****     IN OUT POOL_PRINT       *Str,
 912:../Backend/gnu-efi-3.0.9/lib/dpath.c ****     IN VOID                 *DevPath
 913:../Backend/gnu-efi-3.0.9/lib/dpath.c ****     )
 914:../Backend/gnu-efi-3.0.9/lib/dpath.c **** {
 915:../Backend/gnu-efi-3.0.9/lib/dpath.c ****     MAC_ADDR_DEVICE_PATH    *MAC;
 916:../Backend/gnu-efi-3.0.9/lib/dpath.c ****     UINTN                   HwAddressSize;
 917:../Backend/gnu-efi-3.0.9/lib/dpath.c ****     UINTN                   Index;
 918:../Backend/gnu-efi-3.0.9/lib/dpath.c **** 
 919:../Backend/gnu-efi-3.0.9/lib/dpath.c ****     MAC = DevPath;
 920:../Backend/gnu-efi-3.0.9/lib/dpath.c **** 
 921:../Backend/gnu-efi-3.0.9/lib/dpath.c ****     /* HwAddressSize = sizeof(EFI_MAC_ADDRESS); */
 922:../Backend/gnu-efi-3.0.9/lib/dpath.c ****     HwAddressSize = DevicePathNodeLength( & MAC-> Header ) ;
 923:../Backend/gnu-efi-3.0.9/lib/dpath.c ****     HwAddressSize -= sizeof( MAC-> Header ) ;
 924:../Backend/gnu-efi-3.0.9/lib/dpath.c ****     HwAddressSize -= sizeof( MAC-> IfType ) ;
 925:../Backend/gnu-efi-3.0.9/lib/dpath.c ****     if (MAC->IfType == 0x01 || MAC->IfType == 0x00) {
 926:../Backend/gnu-efi-3.0.9/lib/dpath.c ****         HwAddressSize = 6;
 927:../Backend/gnu-efi-3.0.9/lib/dpath.c ****     }
 928:../Backend/gnu-efi-3.0.9/lib/dpath.c **** 
 929:../Backend/gnu-efi-3.0.9/lib/dpath.c ****     CatPrint(Str, L"Mac(");
 930:../Backend/gnu-efi-3.0.9/lib/dpath.c **** 
 931:../Backend/gnu-efi-3.0.9/lib/dpath.c ****     for(Index = 0; Index < HwAddressSize; Index++) {
 932:../Backend/gnu-efi-3.0.9/lib/dpath.c ****         CatPrint(Str, L"%02x",MAC->MacAddress.Addr[Index]);
 933:../Backend/gnu-efi-3.0.9/lib/dpath.c ****     }
 934:../Backend/gnu-efi-3.0.9/lib/dpath.c ****     if ( MAC-> IfType != 0 ) {
 935:../Backend/gnu-efi-3.0.9/lib/dpath.c ****         CatPrint(Str, L",%d" , MAC-> IfType ) ;
 936:../Backend/gnu-efi-3.0.9/lib/dpath.c ****     }
 937:../Backend/gnu-efi-3.0.9/lib/dpath.c ****     CatPrint(Str, L")");
 938:../Backend/gnu-efi-3.0.9/lib/dpath.c **** }
 939:../Backend/gnu-efi-3.0.9/lib/dpath.c **** 
 940:../Backend/gnu-efi-3.0.9/lib/dpath.c **** static VOID
 941:../Backend/gnu-efi-3.0.9/lib/dpath.c **** CatPrintIPv4(
 942:../Backend/gnu-efi-3.0.9/lib/dpath.c ****     IN OUT POOL_PRINT * Str ,
 943:../Backend/gnu-efi-3.0.9/lib/dpath.c ****     IN EFI_IPv4_ADDRESS * Address
 944:../Backend/gnu-efi-3.0.9/lib/dpath.c ****     )
 945:../Backend/gnu-efi-3.0.9/lib/dpath.c **** {
 946:../Backend/gnu-efi-3.0.9/lib/dpath.c ****     CatPrint( Str , L"%d.%d.%d.%d" , Address-> Addr[ 0 ] , Address-> Addr[ 1 ] ,
 947:../Backend/gnu-efi-3.0.9/lib/dpath.c ****         Address-> Addr[ 2 ] , Address-> Addr[ 3 ] ) ;
 948:../Backend/gnu-efi-3.0.9/lib/dpath.c **** }
 949:../Backend/gnu-efi-3.0.9/lib/dpath.c **** 
 950:../Backend/gnu-efi-3.0.9/lib/dpath.c **** static BOOLEAN
 951:../Backend/gnu-efi-3.0.9/lib/dpath.c **** IsNotNullIPv4(
 952:../Backend/gnu-efi-3.0.9/lib/dpath.c ****     IN EFI_IPv4_ADDRESS * Address
 953:../Backend/gnu-efi-3.0.9/lib/dpath.c ****     )
 954:../Backend/gnu-efi-3.0.9/lib/dpath.c **** {
  11              		.loc 1 954 1 view -0
  12              		.cfi_startproc
 955:../Backend/gnu-efi-3.0.9/lib/dpath.c ****     UINT8 val ;
  13              		.loc 1 955 5 view .LVU1
 956:../Backend/gnu-efi-3.0.9/lib/dpath.c ****     val = Address-> Addr[ 0 ] | Address-> Addr[ 1 ] ;
  14              		.loc 1 956 5 view .LVU2
  15              		.loc 1 956 47 is_stmt 0 view .LVU3
  16 0000 0FB65701 		movzbl	1(%rdi), %edx
  17              		.loc 1 956 9 view .LVU4
  18 0004 0A17     		orb	(%rdi), %dl
  19              	.LVL1:
 957:../Backend/gnu-efi-3.0.9/lib/dpath.c ****     val |= Address-> Addr[ 2 ] | Address-> Addr[ 3 ] ;
  20              		.loc 1 957 5 is_stmt 1 view .LVU5
  21              		.loc 1 957 48 is_stmt 0 view .LVU6
  22 0006 0FB64703 		movzbl	3(%rdi), %eax
  23              		.loc 1 957 9 view .LVU7
  24 000a 0A4702   		orb	2(%rdi), %al
  25              	.LVL2:
 958:../Backend/gnu-efi-3.0.9/lib/dpath.c ****     return val != 0 ;
  26              		.loc 1 958 5 is_stmt 1 view .LVU8
  27              		.loc 1 958 16 is_stmt 0 view .LVU9
  28 000d 08D0     		orb	%dl, %al
  29              	.LVL3:
  30              		.loc 1 958 16 view .LVU10
  31 000f 0F95C0   		setne	%al
 959:../Backend/gnu-efi-3.0.9/lib/dpath.c **** }
  32              		.loc 1 959 1 view .LVU11
  33 0012 C3       		ret
  34              		.cfi_endproc
  35              	.LFE27:
  37              		.section	.rodata
  38              		.align 2
  39              	.LC0:
  40 0000 2C00     		.string	","
  41 0002 00       		.string	""
  42 0003 00       		.string	""
  43              		.text
  45              	_DevPathEndInstance:
  46              	.LVL4:
  47              	.LFB41:
 960:../Backend/gnu-efi-3.0.9/lib/dpath.c **** 
 961:../Backend/gnu-efi-3.0.9/lib/dpath.c **** static VOID
 962:../Backend/gnu-efi-3.0.9/lib/dpath.c **** CatPrintNetworkProtocol(
 963:../Backend/gnu-efi-3.0.9/lib/dpath.c ****     IN OUT POOL_PRINT * Str ,
 964:../Backend/gnu-efi-3.0.9/lib/dpath.c ****     IN UINT16 Proto
 965:../Backend/gnu-efi-3.0.9/lib/dpath.c ****     )
 966:../Backend/gnu-efi-3.0.9/lib/dpath.c **** {
 967:../Backend/gnu-efi-3.0.9/lib/dpath.c ****     if ( Proto == 6 ) {
 968:../Backend/gnu-efi-3.0.9/lib/dpath.c ****         CatPrint( Str , L"TCP" ) ;
 969:../Backend/gnu-efi-3.0.9/lib/dpath.c ****     } else if ( Proto == 17 ) {
 970:../Backend/gnu-efi-3.0.9/lib/dpath.c ****         CatPrint( Str , L"UDP" ) ;
 971:../Backend/gnu-efi-3.0.9/lib/dpath.c ****     } else {
 972:../Backend/gnu-efi-3.0.9/lib/dpath.c ****         CatPrint( Str , L"%d" , Proto ) ;
 973:../Backend/gnu-efi-3.0.9/lib/dpath.c ****     }
 974:../Backend/gnu-efi-3.0.9/lib/dpath.c **** }
 975:../Backend/gnu-efi-3.0.9/lib/dpath.c **** 
 976:../Backend/gnu-efi-3.0.9/lib/dpath.c **** static VOID
 977:../Backend/gnu-efi-3.0.9/lib/dpath.c **** _DevPathIPv4 (
 978:../Backend/gnu-efi-3.0.9/lib/dpath.c ****     IN OUT POOL_PRINT       *Str,
 979:../Backend/gnu-efi-3.0.9/lib/dpath.c ****     IN VOID                 *DevPath
 980:../Backend/gnu-efi-3.0.9/lib/dpath.c ****     )
 981:../Backend/gnu-efi-3.0.9/lib/dpath.c **** {
 982:../Backend/gnu-efi-3.0.9/lib/dpath.c ****     IPv4_DEVICE_PATH     *IP;
 983:../Backend/gnu-efi-3.0.9/lib/dpath.c ****     BOOLEAN show ;
 984:../Backend/gnu-efi-3.0.9/lib/dpath.c **** 
 985:../Backend/gnu-efi-3.0.9/lib/dpath.c ****     IP = DevPath;
 986:../Backend/gnu-efi-3.0.9/lib/dpath.c ****     CatPrint( Str , L"IPv4(") ;
 987:../Backend/gnu-efi-3.0.9/lib/dpath.c ****     CatPrintIPv4( Str , & IP-> RemoteIpAddress ) ;
 988:../Backend/gnu-efi-3.0.9/lib/dpath.c ****     CatPrint( Str , L",") ;
 989:../Backend/gnu-efi-3.0.9/lib/dpath.c ****     CatPrintNetworkProtocol( Str , IP-> Protocol ) ;
 990:../Backend/gnu-efi-3.0.9/lib/dpath.c ****     CatPrint( Str , L",%s" , IP-> StaticIpAddress ? L"Static" : L"DHCP" ) ;
 991:../Backend/gnu-efi-3.0.9/lib/dpath.c ****     show = IsNotNullIPv4( & IP-> LocalIpAddress ) ;
 992:../Backend/gnu-efi-3.0.9/lib/dpath.c ****     if ( ! show && DevicePathNodeLength( & IP-> Header ) == sizeof( IPv4_DEVICE_PATH ) ) {
 993:../Backend/gnu-efi-3.0.9/lib/dpath.c ****         /* only version 2 includes gateway and netmask */
 994:../Backend/gnu-efi-3.0.9/lib/dpath.c ****         show |= IsNotNullIPv4( & IP-> GatewayIpAddress ) ;
 995:../Backend/gnu-efi-3.0.9/lib/dpath.c ****         show |= IsNotNullIPv4( & IP-> SubnetMask  ) ;
 996:../Backend/gnu-efi-3.0.9/lib/dpath.c ****     }
 997:../Backend/gnu-efi-3.0.9/lib/dpath.c ****     if ( show ) {
 998:../Backend/gnu-efi-3.0.9/lib/dpath.c ****         CatPrint( Str , L"," ) ;
 999:../Backend/gnu-efi-3.0.9/lib/dpath.c ****         CatPrintIPv4( Str , & IP-> LocalIpAddress ) ;
1000:../Backend/gnu-efi-3.0.9/lib/dpath.c ****         if ( DevicePathNodeLength( & IP-> Header ) == sizeof( IPv4_DEVICE_PATH ) ) {
1001:../Backend/gnu-efi-3.0.9/lib/dpath.c ****             /* only version 2 includes gateway and netmask */
1002:../Backend/gnu-efi-3.0.9/lib/dpath.c ****             show = IsNotNullIPv4( & IP-> GatewayIpAddress ) ;
1003:../Backend/gnu-efi-3.0.9/lib/dpath.c ****             show |= IsNotNullIPv4( & IP-> SubnetMask ) ;
1004:../Backend/gnu-efi-3.0.9/lib/dpath.c ****             if ( show ) {
1005:../Backend/gnu-efi-3.0.9/lib/dpath.c ****                 CatPrint( Str , L",") ;
1006:../Backend/gnu-efi-3.0.9/lib/dpath.c ****                 CatPrintIPv4( Str , & IP-> GatewayIpAddress ) ;
1007:../Backend/gnu-efi-3.0.9/lib/dpath.c ****                 if ( IsNotNullIPv4( & IP-> SubnetMask ) ) {
1008:../Backend/gnu-efi-3.0.9/lib/dpath.c ****                     CatPrint( Str , L",") ;
1009:../Backend/gnu-efi-3.0.9/lib/dpath.c ****                     CatPrintIPv4( Str , & IP-> SubnetMask ) ;
1010:../Backend/gnu-efi-3.0.9/lib/dpath.c ****                 }
1011:../Backend/gnu-efi-3.0.9/lib/dpath.c ****             }
1012:../Backend/gnu-efi-3.0.9/lib/dpath.c ****         }
1013:../Backend/gnu-efi-3.0.9/lib/dpath.c ****     }
1014:../Backend/gnu-efi-3.0.9/lib/dpath.c ****     CatPrint( Str , L")") ;
1015:../Backend/gnu-efi-3.0.9/lib/dpath.c **** }
1016:../Backend/gnu-efi-3.0.9/lib/dpath.c **** 
1017:../Backend/gnu-efi-3.0.9/lib/dpath.c **** #define CatPrintIPv6_ADD( x , y ) ( ( (UINT16) ( x ) ) << 8 | ( y ) )
1018:../Backend/gnu-efi-3.0.9/lib/dpath.c **** static VOID
1019:../Backend/gnu-efi-3.0.9/lib/dpath.c **** CatPrintIPv6(
1020:../Backend/gnu-efi-3.0.9/lib/dpath.c ****     IN OUT POOL_PRINT * Str ,
1021:../Backend/gnu-efi-3.0.9/lib/dpath.c ****     IN EFI_IPv6_ADDRESS * Address
1022:../Backend/gnu-efi-3.0.9/lib/dpath.c ****     )
1023:../Backend/gnu-efi-3.0.9/lib/dpath.c **** {
1024:../Backend/gnu-efi-3.0.9/lib/dpath.c ****     CatPrint( Str , L"%x:%x:%x:%x:%x:%x:%x:%x" ,
1025:../Backend/gnu-efi-3.0.9/lib/dpath.c ****         CatPrintIPv6_ADD( Address-> Addr[ 0 ] , Address-> Addr[ 1 ] ) ,
1026:../Backend/gnu-efi-3.0.9/lib/dpath.c ****         CatPrintIPv6_ADD( Address-> Addr[ 2 ] , Address-> Addr[ 3 ] ) ,
1027:../Backend/gnu-efi-3.0.9/lib/dpath.c ****         CatPrintIPv6_ADD( Address-> Addr[ 4 ] , Address-> Addr[ 5 ] ) ,
1028:../Backend/gnu-efi-3.0.9/lib/dpath.c ****         CatPrintIPv6_ADD( Address-> Addr[ 6 ] , Address-> Addr[ 7 ] ) ,
1029:../Backend/gnu-efi-3.0.9/lib/dpath.c ****         CatPrintIPv6_ADD( Address-> Addr[ 8 ] , Address-> Addr[ 9 ] ) ,
1030:../Backend/gnu-efi-3.0.9/lib/dpath.c ****         CatPrintIPv6_ADD( Address-> Addr[ 10 ] , Address-> Addr[ 11 ] ) ,
1031:../Backend/gnu-efi-3.0.9/lib/dpath.c ****         CatPrintIPv6_ADD( Address-> Addr[ 12 ] , Address-> Addr[ 13 ] ) ,
1032:../Backend/gnu-efi-3.0.9/lib/dpath.c ****         CatPrintIPv6_ADD( Address-> Addr[ 14 ] , Address-> Addr[ 15 ] ) ) ;
1033:../Backend/gnu-efi-3.0.9/lib/dpath.c **** }
1034:../Backend/gnu-efi-3.0.9/lib/dpath.c **** 
1035:../Backend/gnu-efi-3.0.9/lib/dpath.c **** static VOID
1036:../Backend/gnu-efi-3.0.9/lib/dpath.c **** _DevPathIPv6 (
1037:../Backend/gnu-efi-3.0.9/lib/dpath.c ****     IN OUT POOL_PRINT       *Str,
1038:../Backend/gnu-efi-3.0.9/lib/dpath.c ****     IN VOID                 *DevPath
1039:../Backend/gnu-efi-3.0.9/lib/dpath.c ****     )
1040:../Backend/gnu-efi-3.0.9/lib/dpath.c **** {
1041:../Backend/gnu-efi-3.0.9/lib/dpath.c ****     IPv6_DEVICE_PATH     *IP;
1042:../Backend/gnu-efi-3.0.9/lib/dpath.c **** 
1043:../Backend/gnu-efi-3.0.9/lib/dpath.c ****     IP = DevPath;
1044:../Backend/gnu-efi-3.0.9/lib/dpath.c ****     CatPrint( Str , L"IPv6(") ;
1045:../Backend/gnu-efi-3.0.9/lib/dpath.c ****     CatPrintIPv6( Str , & IP-> RemoteIpAddress ) ;
1046:../Backend/gnu-efi-3.0.9/lib/dpath.c ****     CatPrint( Str , L",") ;
1047:../Backend/gnu-efi-3.0.9/lib/dpath.c ****     CatPrintNetworkProtocol( Str, IP-> Protocol ) ;
1048:../Backend/gnu-efi-3.0.9/lib/dpath.c ****     CatPrint( Str , L",%s," , IP-> IPAddressOrigin ?
1049:../Backend/gnu-efi-3.0.9/lib/dpath.c ****         ( IP-> IPAddressOrigin == 1 ? L"StatelessAutoConfigure" :
1050:../Backend/gnu-efi-3.0.9/lib/dpath.c ****         L"StatefulAutoConfigure" ) : L"Static" ) ;
1051:../Backend/gnu-efi-3.0.9/lib/dpath.c ****     CatPrintIPv6( Str , & IP-> LocalIpAddress ) ;
1052:../Backend/gnu-efi-3.0.9/lib/dpath.c ****     if ( DevicePathNodeLength( & IP-> Header ) == sizeof( IPv6_DEVICE_PATH ) ) {
1053:../Backend/gnu-efi-3.0.9/lib/dpath.c ****         CatPrint( Str , L",") ;
1054:../Backend/gnu-efi-3.0.9/lib/dpath.c ****         CatPrintIPv6( Str , & IP-> GatewayIpAddress ) ;
1055:../Backend/gnu-efi-3.0.9/lib/dpath.c ****         CatPrint( Str , L",") ;
1056:../Backend/gnu-efi-3.0.9/lib/dpath.c ****         CatPrint( Str , L"%d" , & IP-> PrefixLength ) ;
1057:../Backend/gnu-efi-3.0.9/lib/dpath.c ****     }
1058:../Backend/gnu-efi-3.0.9/lib/dpath.c ****     CatPrint( Str , L")") ;
1059:../Backend/gnu-efi-3.0.9/lib/dpath.c **** }
1060:../Backend/gnu-efi-3.0.9/lib/dpath.c **** 
1061:../Backend/gnu-efi-3.0.9/lib/dpath.c **** static VOID
1062:../Backend/gnu-efi-3.0.9/lib/dpath.c **** _DevPathUri (
1063:../Backend/gnu-efi-3.0.9/lib/dpath.c ****     IN OUT POOL_PRINT       *Str,
1064:../Backend/gnu-efi-3.0.9/lib/dpath.c ****     IN VOID                 *DevPath
1065:../Backend/gnu-efi-3.0.9/lib/dpath.c ****     )
1066:../Backend/gnu-efi-3.0.9/lib/dpath.c **** {
1067:../Backend/gnu-efi-3.0.9/lib/dpath.c ****     URI_DEVICE_PATH  *Uri;
1068:../Backend/gnu-efi-3.0.9/lib/dpath.c **** 
1069:../Backend/gnu-efi-3.0.9/lib/dpath.c ****     Uri = DevPath;
1070:../Backend/gnu-efi-3.0.9/lib/dpath.c **** 
1071:../Backend/gnu-efi-3.0.9/lib/dpath.c ****     CatPrint( Str, L"Uri(%a)", Uri->Uri );
1072:../Backend/gnu-efi-3.0.9/lib/dpath.c **** }
1073:../Backend/gnu-efi-3.0.9/lib/dpath.c **** 
1074:../Backend/gnu-efi-3.0.9/lib/dpath.c **** static VOID
1075:../Backend/gnu-efi-3.0.9/lib/dpath.c **** _DevPathInfiniBand (
1076:../Backend/gnu-efi-3.0.9/lib/dpath.c ****     IN OUT POOL_PRINT       *Str,
1077:../Backend/gnu-efi-3.0.9/lib/dpath.c ****     IN VOID                 *DevPath
1078:../Backend/gnu-efi-3.0.9/lib/dpath.c ****     )
1079:../Backend/gnu-efi-3.0.9/lib/dpath.c **** {
1080:../Backend/gnu-efi-3.0.9/lib/dpath.c ****     INFINIBAND_DEVICE_PATH  *InfiniBand;
1081:../Backend/gnu-efi-3.0.9/lib/dpath.c **** 
1082:../Backend/gnu-efi-3.0.9/lib/dpath.c ****     InfiniBand = DevPath;
1083:../Backend/gnu-efi-3.0.9/lib/dpath.c ****     CatPrint( Str , L"Infiniband(0x%x,%g,0x%lx,0x%lx,0x%lx)" ,
1084:../Backend/gnu-efi-3.0.9/lib/dpath.c ****         InfiniBand-> ResourceFlags , InfiniBand-> PortGid , InfiniBand-> ServiceId ,
1085:../Backend/gnu-efi-3.0.9/lib/dpath.c ****         InfiniBand-> TargetPortId , InfiniBand-> DeviceId ) ;
1086:../Backend/gnu-efi-3.0.9/lib/dpath.c **** }
1087:../Backend/gnu-efi-3.0.9/lib/dpath.c **** 
1088:../Backend/gnu-efi-3.0.9/lib/dpath.c **** static VOID
1089:../Backend/gnu-efi-3.0.9/lib/dpath.c **** _DevPathUart (
1090:../Backend/gnu-efi-3.0.9/lib/dpath.c ****     IN OUT POOL_PRINT       *Str,
1091:../Backend/gnu-efi-3.0.9/lib/dpath.c ****     IN VOID                 *DevPath
1092:../Backend/gnu-efi-3.0.9/lib/dpath.c ****     )
1093:../Backend/gnu-efi-3.0.9/lib/dpath.c **** {
1094:../Backend/gnu-efi-3.0.9/lib/dpath.c ****     UART_DEVICE_PATH  *Uart;
1095:../Backend/gnu-efi-3.0.9/lib/dpath.c ****     CHAR8             Parity;
1096:../Backend/gnu-efi-3.0.9/lib/dpath.c **** 
1097:../Backend/gnu-efi-3.0.9/lib/dpath.c ****     Uart = DevPath;
1098:../Backend/gnu-efi-3.0.9/lib/dpath.c ****     switch (Uart->Parity) {
1099:../Backend/gnu-efi-3.0.9/lib/dpath.c ****         case 0  : Parity = 'D'; break;
1100:../Backend/gnu-efi-3.0.9/lib/dpath.c ****         case 1  : Parity = 'N'; break;
1101:../Backend/gnu-efi-3.0.9/lib/dpath.c ****         case 2  : Parity = 'E'; break;
1102:../Backend/gnu-efi-3.0.9/lib/dpath.c ****         case 3  : Parity = 'O'; break;
1103:../Backend/gnu-efi-3.0.9/lib/dpath.c ****         case 4  : Parity = 'M'; break;
1104:../Backend/gnu-efi-3.0.9/lib/dpath.c ****         case 5  : Parity = 'S'; break;
1105:../Backend/gnu-efi-3.0.9/lib/dpath.c ****         default : Parity = 'x'; break;
1106:../Backend/gnu-efi-3.0.9/lib/dpath.c ****     }
1107:../Backend/gnu-efi-3.0.9/lib/dpath.c **** 
1108:../Backend/gnu-efi-3.0.9/lib/dpath.c ****     if (Uart->BaudRate == 0) {
1109:../Backend/gnu-efi-3.0.9/lib/dpath.c ****         CatPrint(Str, L"Uart(DEFAULT %c",Uart->BaudRate,Parity);
1110:../Backend/gnu-efi-3.0.9/lib/dpath.c ****     } else {
1111:../Backend/gnu-efi-3.0.9/lib/dpath.c ****         CatPrint(Str, L"Uart(%d %c",Uart->BaudRate,Parity);
1112:../Backend/gnu-efi-3.0.9/lib/dpath.c ****     }
1113:../Backend/gnu-efi-3.0.9/lib/dpath.c **** 
1114:../Backend/gnu-efi-3.0.9/lib/dpath.c ****     if (Uart->DataBits == 0) {
1115:../Backend/gnu-efi-3.0.9/lib/dpath.c ****         CatPrint(Str, L"D");
1116:../Backend/gnu-efi-3.0.9/lib/dpath.c ****     } else {
1117:../Backend/gnu-efi-3.0.9/lib/dpath.c ****         CatPrint(Str, L"%d",Uart->DataBits);
1118:../Backend/gnu-efi-3.0.9/lib/dpath.c ****     }
1119:../Backend/gnu-efi-3.0.9/lib/dpath.c **** 
1120:../Backend/gnu-efi-3.0.9/lib/dpath.c ****     switch (Uart->StopBits) {
1121:../Backend/gnu-efi-3.0.9/lib/dpath.c ****         case 0  : CatPrint(Str, L"D)");   break;
1122:../Backend/gnu-efi-3.0.9/lib/dpath.c ****         case 1  : CatPrint(Str, L"1)");   break;
1123:../Backend/gnu-efi-3.0.9/lib/dpath.c ****         case 2  : CatPrint(Str, L"1.5)"); break;
1124:../Backend/gnu-efi-3.0.9/lib/dpath.c ****         case 3  : CatPrint(Str, L"2)");   break;
1125:../Backend/gnu-efi-3.0.9/lib/dpath.c ****         default : CatPrint(Str, L"x)");   break;
1126:../Backend/gnu-efi-3.0.9/lib/dpath.c ****     }
1127:../Backend/gnu-efi-3.0.9/lib/dpath.c **** }
1128:../Backend/gnu-efi-3.0.9/lib/dpath.c **** 
1129:../Backend/gnu-efi-3.0.9/lib/dpath.c **** static VOID
1130:../Backend/gnu-efi-3.0.9/lib/dpath.c **** _DevPathSata (
1131:../Backend/gnu-efi-3.0.9/lib/dpath.c ****     IN OUT POOL_PRINT       *Str,
1132:../Backend/gnu-efi-3.0.9/lib/dpath.c ****     IN VOID                 *DevPath
1133:../Backend/gnu-efi-3.0.9/lib/dpath.c ****     )
1134:../Backend/gnu-efi-3.0.9/lib/dpath.c **** {
1135:../Backend/gnu-efi-3.0.9/lib/dpath.c ****     SATA_DEVICE_PATH * Sata ;
1136:../Backend/gnu-efi-3.0.9/lib/dpath.c **** 
1137:../Backend/gnu-efi-3.0.9/lib/dpath.c ****     Sata = DevPath;
1138:../Backend/gnu-efi-3.0.9/lib/dpath.c ****     CatPrint( Str , L"Sata(0x%x,0x%x,0x%x)" , Sata-> HBAPortNumber ,
1139:../Backend/gnu-efi-3.0.9/lib/dpath.c ****         Sata-> PortMultiplierPortNumber , Sata-> Lun ) ;
1140:../Backend/gnu-efi-3.0.9/lib/dpath.c **** }
1141:../Backend/gnu-efi-3.0.9/lib/dpath.c **** 
1142:../Backend/gnu-efi-3.0.9/lib/dpath.c **** static VOID
1143:../Backend/gnu-efi-3.0.9/lib/dpath.c **** _DevPathHardDrive (
1144:../Backend/gnu-efi-3.0.9/lib/dpath.c ****     IN OUT POOL_PRINT       *Str,
1145:../Backend/gnu-efi-3.0.9/lib/dpath.c ****     IN VOID                 *DevPath
1146:../Backend/gnu-efi-3.0.9/lib/dpath.c ****     )
1147:../Backend/gnu-efi-3.0.9/lib/dpath.c **** {
1148:../Backend/gnu-efi-3.0.9/lib/dpath.c ****     HARDDRIVE_DEVICE_PATH   *Hd;
1149:../Backend/gnu-efi-3.0.9/lib/dpath.c **** 
1150:../Backend/gnu-efi-3.0.9/lib/dpath.c ****     Hd = DevPath;
1151:../Backend/gnu-efi-3.0.9/lib/dpath.c ****     switch (Hd->SignatureType) {
1152:../Backend/gnu-efi-3.0.9/lib/dpath.c ****         case SIGNATURE_TYPE_MBR:
1153:../Backend/gnu-efi-3.0.9/lib/dpath.c ****             CatPrint(Str, L"HD(Part%d,Sig%08X)",
1154:../Backend/gnu-efi-3.0.9/lib/dpath.c ****                 Hd->PartitionNumber,
1155:../Backend/gnu-efi-3.0.9/lib/dpath.c ****                 *((UINT32 *)(&(Hd->Signature[0])))
1156:../Backend/gnu-efi-3.0.9/lib/dpath.c ****                 );
1157:../Backend/gnu-efi-3.0.9/lib/dpath.c ****             break;
1158:../Backend/gnu-efi-3.0.9/lib/dpath.c ****         case SIGNATURE_TYPE_GUID:
1159:../Backend/gnu-efi-3.0.9/lib/dpath.c ****             CatPrint(Str, L"HD(Part%d,Sig%g)",
1160:../Backend/gnu-efi-3.0.9/lib/dpath.c ****                 Hd->PartitionNumber,
1161:../Backend/gnu-efi-3.0.9/lib/dpath.c ****                 (EFI_GUID *) &(Hd->Signature[0])
1162:../Backend/gnu-efi-3.0.9/lib/dpath.c ****                 );
1163:../Backend/gnu-efi-3.0.9/lib/dpath.c ****             break;
1164:../Backend/gnu-efi-3.0.9/lib/dpath.c ****         default:
1165:../Backend/gnu-efi-3.0.9/lib/dpath.c ****             CatPrint(Str, L"HD(Part%d,MBRType=%02x,SigType=%02x)",
1166:../Backend/gnu-efi-3.0.9/lib/dpath.c ****                 Hd->PartitionNumber,
1167:../Backend/gnu-efi-3.0.9/lib/dpath.c ****                 Hd->MBRType,
1168:../Backend/gnu-efi-3.0.9/lib/dpath.c ****                 Hd->SignatureType
1169:../Backend/gnu-efi-3.0.9/lib/dpath.c ****                 );
1170:../Backend/gnu-efi-3.0.9/lib/dpath.c ****             break;
1171:../Backend/gnu-efi-3.0.9/lib/dpath.c ****     }
1172:../Backend/gnu-efi-3.0.9/lib/dpath.c **** }
1173:../Backend/gnu-efi-3.0.9/lib/dpath.c **** 
1174:../Backend/gnu-efi-3.0.9/lib/dpath.c **** static VOID
1175:../Backend/gnu-efi-3.0.9/lib/dpath.c **** _DevPathCDROM (
1176:../Backend/gnu-efi-3.0.9/lib/dpath.c ****     IN OUT POOL_PRINT       *Str,
1177:../Backend/gnu-efi-3.0.9/lib/dpath.c ****     IN VOID                 *DevPath
1178:../Backend/gnu-efi-3.0.9/lib/dpath.c ****     )
1179:../Backend/gnu-efi-3.0.9/lib/dpath.c **** {
1180:../Backend/gnu-efi-3.0.9/lib/dpath.c ****     CDROM_DEVICE_PATH       *Cd;
1181:../Backend/gnu-efi-3.0.9/lib/dpath.c **** 
1182:../Backend/gnu-efi-3.0.9/lib/dpath.c ****     Cd = DevPath;
1183:../Backend/gnu-efi-3.0.9/lib/dpath.c ****     CatPrint( Str , L"CDROM(0x%x)" , Cd-> BootEntry ) ;
1184:../Backend/gnu-efi-3.0.9/lib/dpath.c **** }
1185:../Backend/gnu-efi-3.0.9/lib/dpath.c **** 
1186:../Backend/gnu-efi-3.0.9/lib/dpath.c **** static VOID
1187:../Backend/gnu-efi-3.0.9/lib/dpath.c **** _DevPathFilePath (
1188:../Backend/gnu-efi-3.0.9/lib/dpath.c ****     IN OUT POOL_PRINT       *Str,
1189:../Backend/gnu-efi-3.0.9/lib/dpath.c ****     IN VOID                 *DevPath
1190:../Backend/gnu-efi-3.0.9/lib/dpath.c ****     )
1191:../Backend/gnu-efi-3.0.9/lib/dpath.c **** {
1192:../Backend/gnu-efi-3.0.9/lib/dpath.c ****     FILEPATH_DEVICE_PATH    *Fp;
1193:../Backend/gnu-efi-3.0.9/lib/dpath.c **** 
1194:../Backend/gnu-efi-3.0.9/lib/dpath.c ****     Fp = DevPath;
1195:../Backend/gnu-efi-3.0.9/lib/dpath.c ****     CatPrint(Str, L"%s", Fp->PathName);
1196:../Backend/gnu-efi-3.0.9/lib/dpath.c **** }
1197:../Backend/gnu-efi-3.0.9/lib/dpath.c **** 
1198:../Backend/gnu-efi-3.0.9/lib/dpath.c **** static VOID
1199:../Backend/gnu-efi-3.0.9/lib/dpath.c **** _DevPathMediaProtocol (
1200:../Backend/gnu-efi-3.0.9/lib/dpath.c ****     IN OUT POOL_PRINT       *Str,
1201:../Backend/gnu-efi-3.0.9/lib/dpath.c ****     IN VOID                 *DevPath
1202:../Backend/gnu-efi-3.0.9/lib/dpath.c ****     )
1203:../Backend/gnu-efi-3.0.9/lib/dpath.c **** {
1204:../Backend/gnu-efi-3.0.9/lib/dpath.c ****     MEDIA_PROTOCOL_DEVICE_PATH  *MediaProt;
1205:../Backend/gnu-efi-3.0.9/lib/dpath.c **** 
1206:../Backend/gnu-efi-3.0.9/lib/dpath.c ****     MediaProt = DevPath;
1207:../Backend/gnu-efi-3.0.9/lib/dpath.c ****     CatPrint(Str, L"%g", &MediaProt->Protocol);
1208:../Backend/gnu-efi-3.0.9/lib/dpath.c **** }
1209:../Backend/gnu-efi-3.0.9/lib/dpath.c **** 
1210:../Backend/gnu-efi-3.0.9/lib/dpath.c **** static VOID
1211:../Backend/gnu-efi-3.0.9/lib/dpath.c **** _DevPathBssBss (
1212:../Backend/gnu-efi-3.0.9/lib/dpath.c ****     IN OUT POOL_PRINT       *Str,
1213:../Backend/gnu-efi-3.0.9/lib/dpath.c ****     IN VOID                 *DevPath
1214:../Backend/gnu-efi-3.0.9/lib/dpath.c ****     )
1215:../Backend/gnu-efi-3.0.9/lib/dpath.c **** {
1216:../Backend/gnu-efi-3.0.9/lib/dpath.c ****     BBS_BBS_DEVICE_PATH     *Bss;
1217:../Backend/gnu-efi-3.0.9/lib/dpath.c ****     CHAR16                  *Type;
1218:../Backend/gnu-efi-3.0.9/lib/dpath.c **** 
1219:../Backend/gnu-efi-3.0.9/lib/dpath.c ****     Bss = DevPath;
1220:../Backend/gnu-efi-3.0.9/lib/dpath.c ****     switch (Bss->DeviceType) {
1221:../Backend/gnu-efi-3.0.9/lib/dpath.c ****     case BBS_TYPE_FLOPPY:               Type = L"Floppy";       break;
1222:../Backend/gnu-efi-3.0.9/lib/dpath.c ****     case BBS_TYPE_HARDDRIVE:            Type = L"Harddrive";    break;
1223:../Backend/gnu-efi-3.0.9/lib/dpath.c ****     case BBS_TYPE_CDROM:                Type = L"CDROM";        break;
1224:../Backend/gnu-efi-3.0.9/lib/dpath.c ****     case BBS_TYPE_PCMCIA:               Type = L"PCMCIA";       break;
1225:../Backend/gnu-efi-3.0.9/lib/dpath.c ****     case BBS_TYPE_USB:                  Type = L"Usb";          break;
1226:../Backend/gnu-efi-3.0.9/lib/dpath.c ****     case BBS_TYPE_EMBEDDED_NETWORK:     Type = L"Net";          break;
1227:../Backend/gnu-efi-3.0.9/lib/dpath.c ****     default:                            Type = L"?";            break;
1228:../Backend/gnu-efi-3.0.9/lib/dpath.c ****     }
1229:../Backend/gnu-efi-3.0.9/lib/dpath.c **** 
1230:../Backend/gnu-efi-3.0.9/lib/dpath.c ****     CatPrint(Str, L"Bss-%s(%a)", Type, Bss->String);
1231:../Backend/gnu-efi-3.0.9/lib/dpath.c **** }
1232:../Backend/gnu-efi-3.0.9/lib/dpath.c **** 
1233:../Backend/gnu-efi-3.0.9/lib/dpath.c **** 
1234:../Backend/gnu-efi-3.0.9/lib/dpath.c **** static VOID
1235:../Backend/gnu-efi-3.0.9/lib/dpath.c **** _DevPathEndInstance (
1236:../Backend/gnu-efi-3.0.9/lib/dpath.c ****     IN OUT POOL_PRINT       *Str,
1237:../Backend/gnu-efi-3.0.9/lib/dpath.c ****     IN VOID                 *DevPath EFI_UNUSED
1238:../Backend/gnu-efi-3.0.9/lib/dpath.c ****     )
1239:../Backend/gnu-efi-3.0.9/lib/dpath.c **** {
  48              		.loc 1 1239 1 is_stmt 1 view -0
  49              		.cfi_startproc
  50              		.loc 1 1239 1 is_stmt 0 view .LVU13
  51 0013 F30F1EFA 		endbr64
  52 0017 4883EC08 		subq	$8, %rsp
  53              		.cfi_def_cfa_offset 16
1240:../Backend/gnu-efi-3.0.9/lib/dpath.c ****     CatPrint(Str, L",");
  54              		.loc 1 1240 5 is_stmt 1 view .LVU14
  55 001b 488D3500 		leaq	.LC0(%rip), %rsi
  55      000000
  56              	.LVL5:
  57              		.loc 1 1240 5 is_stmt 0 view .LVU15
  58 0022 B8000000 		movl	$0, %eax
  58      00
  59 0027 E8000000 		call	CatPrint
  59      00
  60              	.LVL6:
1241:../Backend/gnu-efi-3.0.9/lib/dpath.c **** }
  61              		.loc 1 1241 1 view .LVU16
  62 002c 4883C408 		addq	$8, %rsp
  63              		.cfi_def_cfa_offset 8
  64 0030 C3       		ret
  65              		.cfi_endproc
  66              	.LFE41:
  68              		.section	.rodata
  69              		.align 2
  70              	.LC1:
  71 0004 4600     		.string	"F"
  72 0006 6C00     		.string	"l"
  73 0008 6F00     		.string	"o"
  74 000a 7000     		.string	"p"
  75 000c 7000     		.string	"p"
  76 000e 7900     		.string	"y"
  77 0010 00       		.string	""
  78 0011 00       		.string	""
  79              		.align 2
  80              	.LC2:
  81 0012 4800     		.string	"H"
  82 0014 6100     		.string	"a"
  83 0016 7200     		.string	"r"
  84 0018 6400     		.string	"d"
  85 001a 6400     		.string	"d"
  86 001c 7200     		.string	"r"
  87 001e 6900     		.string	"i"
  88 0020 7600     		.string	"v"
  89 0022 6500     		.string	"e"
  90 0024 00       		.string	""
  91 0025 00       		.string	""
  92              		.align 2
  93              	.LC3:
  94 0026 4300     		.string	"C"
  95 0028 4400     		.string	"D"
  96 002a 5200     		.string	"R"
  97 002c 4F00     		.string	"O"
  98 002e 4D00     		.string	"M"
  99 0030 00       		.string	""
 100 0031 00       		.string	""
 101              		.align 2
 102              	.LC4:
 103 0032 5000     		.string	"P"
 104 0034 4300     		.string	"C"
 105 0036 4D00     		.string	"M"
 106 0038 4300     		.string	"C"
 107 003a 4900     		.string	"I"
 108 003c 4100     		.string	"A"
 109 003e 00       		.string	""
 110 003f 00       		.string	""
 111              		.align 2
 112              	.LC5:
 113 0040 5500     		.string	"U"
 114 0042 7300     		.string	"s"
 115 0044 6200     		.string	"b"
 116 0046 00       		.string	""
 117 0047 00       		.string	""
 118              		.align 2
 119              	.LC6:
 120 0048 4E00     		.string	"N"
 121 004a 6500     		.string	"e"
 122 004c 7400     		.string	"t"
 123 004e 00       		.string	""
 124 004f 00       		.string	""
 125              		.align 2
 126              	.LC7:
 127 0050 3F00     		.string	"?"
 128 0052 00       		.string	""
 129 0053 00       		.string	""
 130              		.align 2
 131              	.LC8:
 132 0054 4200     		.string	"B"
 133 0056 7300     		.string	"s"
 134 0058 7300     		.string	"s"
 135 005a 2D00     		.string	"-"
 136 005c 2500     		.string	"%"
 137 005e 7300     		.string	"s"
 138 0060 2800     		.string	"("
 139 0062 2500     		.string	"%"
 140 0064 6100     		.string	"a"
 141 0066 2900     		.string	")"
 142 0068 00       		.string	""
 143 0069 00       		.string	""
 144              		.text
 146              	_DevPathBssBss:
 147              	.LVL7:
 148              	.LFB40:
1215:../Backend/gnu-efi-3.0.9/lib/dpath.c ****     BBS_BBS_DEVICE_PATH     *Bss;
 149              		.loc 1 1215 1 is_stmt 1 view -0
 150              		.cfi_startproc
1215:../Backend/gnu-efi-3.0.9/lib/dpath.c ****     BBS_BBS_DEVICE_PATH     *Bss;
 151              		.loc 1 1215 1 is_stmt 0 view .LVU18
 152 0031 F30F1EFA 		endbr64
 153 0035 4883EC08 		subq	$8, %rsp
 154              		.cfi_def_cfa_offset 16
1216:../Backend/gnu-efi-3.0.9/lib/dpath.c ****     CHAR16                  *Type;
 155              		.loc 1 1216 5 is_stmt 1 view .LVU19
1217:../Backend/gnu-efi-3.0.9/lib/dpath.c **** 
 156              		.loc 1 1217 5 view .LVU20
1219:../Backend/gnu-efi-3.0.9/lib/dpath.c ****     switch (Bss->DeviceType) {
 157              		.loc 1 1219 5 view .LVU21
 158              	.LVL8:
1220:../Backend/gnu-efi-3.0.9/lib/dpath.c ****     case BBS_TYPE_FLOPPY:               Type = L"Floppy";       break;
 159              		.loc 1 1220 5 view .LVU22
1220:../Backend/gnu-efi-3.0.9/lib/dpath.c ****     case BBS_TYPE_FLOPPY:               Type = L"Floppy";       break;
 160              		.loc 1 1220 16 is_stmt 0 view .LVU23
 161 0039 0FB74604 		movzwl	4(%rsi), %eax
1220:../Backend/gnu-efi-3.0.9/lib/dpath.c ****     case BBS_TYPE_FLOPPY:               Type = L"Floppy";       break;
 162              		.loc 1 1220 5 view .LVU24
 163 003d 6683F806 		cmpw	$6, %ax
 164 0041 7759     		ja	.L5
 165 0043 0FB7C0   		movzwl	%ax, %eax
 166 0046 488D1500 		leaq	.L7(%rip), %rdx
 166      000000
 167 004d 48630482 		movslq	(%rdx,%rax,4), %rax
 168 0051 4801D0   		addq	%rdx, %rax
 169 0054 3EFFE0   		notrack jmp	*%rax
 170              		.section	.rodata
 171 006a 0000     		.align 4
 172              		.align 4
 173              	.L7:
 174 006c 00000000 		.long	.L5-.L7
 175 0070 00000000 		.long	.L12-.L7
 176 0074 00000000 		.long	.L13-.L7
 177 0078 00000000 		.long	.L10-.L7
 178 007c 00000000 		.long	.L9-.L7
 179 0080 00000000 		.long	.L8-.L7
 180 0084 00000000 		.long	.L6-.L7
 181              		.text
 182              	.L12:
 183 0057 488D1500 		leaq	.LC1(%rip), %rdx
 183      000000
 184              	.L11:
 185              	.LVL9:
1230:../Backend/gnu-efi-3.0.9/lib/dpath.c **** }
 186              		.loc 1 1230 5 is_stmt 1 view .LVU25
1230:../Backend/gnu-efi-3.0.9/lib/dpath.c **** }
 187              		.loc 1 1230 43 is_stmt 0 view .LVU26
 188 005e 488D4E08 		leaq	8(%rsi), %rcx
1230:../Backend/gnu-efi-3.0.9/lib/dpath.c **** }
 189              		.loc 1 1230 5 view .LVU27
 190 0062 488D3500 		leaq	.LC8(%rip), %rsi
 190      000000
 191              	.LVL10:
1230:../Backend/gnu-efi-3.0.9/lib/dpath.c **** }
 192              		.loc 1 1230 5 view .LVU28
 193 0069 B8000000 		movl	$0, %eax
 193      00
 194 006e E8000000 		call	CatPrint
 194      00
 195              	.LVL11:
1231:../Backend/gnu-efi-3.0.9/lib/dpath.c **** 
 196              		.loc 1 1231 1 view .LVU29
 197 0073 4883C408 		addq	$8, %rsp
 198              		.cfi_remember_state
 199              		.cfi_def_cfa_offset 8
 200 0077 C3       		ret
 201              	.LVL12:
 202              	.L10:
 203              		.cfi_restore_state
1223:../Backend/gnu-efi-3.0.9/lib/dpath.c ****     case BBS_TYPE_PCMCIA:               Type = L"PCMCIA";       break;
 204              		.loc 1 1223 41 is_stmt 1 view .LVU30
1223:../Backend/gnu-efi-3.0.9/lib/dpath.c ****     case BBS_TYPE_PCMCIA:               Type = L"PCMCIA";       break;
 205              		.loc 1 1223 65 view .LVU31
1223:../Backend/gnu-efi-3.0.9/lib/dpath.c ****     case BBS_TYPE_PCMCIA:               Type = L"PCMCIA";       break;
 206              		.loc 1 1223 46 is_stmt 0 view .LVU32
 207 0078 488D1500 		leaq	.LC3(%rip), %rdx
 207      000000
1223:../Backend/gnu-efi-3.0.9/lib/dpath.c ****     case BBS_TYPE_PCMCIA:               Type = L"PCMCIA";       break;
 208              		.loc 1 1223 65 view .LVU33
 209 007f EBDD     		jmp	.L11
 210              	.LVL13:
 211              	.L9:
1224:../Backend/gnu-efi-3.0.9/lib/dpath.c ****     case BBS_TYPE_USB:                  Type = L"Usb";          break;
 212              		.loc 1 1224 41 is_stmt 1 view .LVU34
1224:../Backend/gnu-efi-3.0.9/lib/dpath.c ****     case BBS_TYPE_USB:                  Type = L"Usb";          break;
 213              		.loc 1 1224 65 view .LVU35
1224:../Backend/gnu-efi-3.0.9/lib/dpath.c ****     case BBS_TYPE_USB:                  Type = L"Usb";          break;
 214              		.loc 1 1224 46 is_stmt 0 view .LVU36
 215 0081 488D1500 		leaq	.LC4(%rip), %rdx
 215      000000
1224:../Backend/gnu-efi-3.0.9/lib/dpath.c ****     case BBS_TYPE_USB:                  Type = L"Usb";          break;
 216              		.loc 1 1224 65 view .LVU37
 217 0088 EBD4     		jmp	.L11
 218              	.LVL14:
 219              	.L8:
1225:../Backend/gnu-efi-3.0.9/lib/dpath.c ****     case BBS_TYPE_EMBEDDED_NETWORK:     Type = L"Net";          break;
 220              		.loc 1 1225 41 is_stmt 1 view .LVU38
1225:../Backend/gnu-efi-3.0.9/lib/dpath.c ****     case BBS_TYPE_EMBEDDED_NETWORK:     Type = L"Net";          break;
 221              		.loc 1 1225 65 view .LVU39
1225:../Backend/gnu-efi-3.0.9/lib/dpath.c ****     case BBS_TYPE_EMBEDDED_NETWORK:     Type = L"Net";          break;
 222              		.loc 1 1225 46 is_stmt 0 view .LVU40
 223 008a 488D1500 		leaq	.LC5(%rip), %rdx
 223      000000
1225:../Backend/gnu-efi-3.0.9/lib/dpath.c ****     case BBS_TYPE_EMBEDDED_NETWORK:     Type = L"Net";          break;
 224              		.loc 1 1225 65 view .LVU41
 225 0091 EBCB     		jmp	.L11
 226              	.LVL15:
 227              	.L6:
1226:../Backend/gnu-efi-3.0.9/lib/dpath.c ****     default:                            Type = L"?";            break;
 228              		.loc 1 1226 41 is_stmt 1 view .LVU42
1226:../Backend/gnu-efi-3.0.9/lib/dpath.c ****     default:                            Type = L"?";            break;
 229              		.loc 1 1226 65 view .LVU43
1226:../Backend/gnu-efi-3.0.9/lib/dpath.c ****     default:                            Type = L"?";            break;
 230              		.loc 1 1226 46 is_stmt 0 view .LVU44
 231 0093 488D1500 		leaq	.LC6(%rip), %rdx
 231      000000
1226:../Backend/gnu-efi-3.0.9/lib/dpath.c ****     default:                            Type = L"?";            break;
 232              		.loc 1 1226 65 view .LVU45
 233 009a EBC2     		jmp	.L11
 234              	.LVL16:
 235              	.L5:
1227:../Backend/gnu-efi-3.0.9/lib/dpath.c ****     }
 236              		.loc 1 1227 41 is_stmt 1 view .LVU46
1227:../Backend/gnu-efi-3.0.9/lib/dpath.c ****     }
 237              		.loc 1 1227 65 view .LVU47
1227:../Backend/gnu-efi-3.0.9/lib/dpath.c ****     }
 238              		.loc 1 1227 46 is_stmt 0 view .LVU48
 239 009c 488D1500 		leaq	.LC7(%rip), %rdx
 239      000000
1227:../Backend/gnu-efi-3.0.9/lib/dpath.c ****     }
 240              		.loc 1 1227 65 view .LVU49
 241 00a3 EBB9     		jmp	.L11
 242              	.LVL17:
 243              	.L13:
1222:../Backend/gnu-efi-3.0.9/lib/dpath.c ****     case BBS_TYPE_CDROM:                Type = L"CDROM";        break;
 244              		.loc 1 1222 46 view .LVU50
 245 00a5 488D1500 		leaq	.LC2(%rip), %rdx
 245      000000
 246 00ac EBB0     		jmp	.L11
 247              		.cfi_endproc
 248              	.LFE40:
 250              		.section	.rodata
 251              		.align 2
 252              	.LC9:
 253 0088 2500     		.string	"%"
 254 008a 6700     		.string	"g"
 255 008c 00       		.string	""
 256 008d 00       		.string	""
 257              		.text
 259              	_DevPathMediaProtocol:
 260              	.LVL18:
 261              	.LFB39:
1203:../Backend/gnu-efi-3.0.9/lib/dpath.c ****     MEDIA_PROTOCOL_DEVICE_PATH  *MediaProt;
 262              		.loc 1 1203 1 is_stmt 1 view -0
 263              		.cfi_startproc
1203:../Backend/gnu-efi-3.0.9/lib/dpath.c ****     MEDIA_PROTOCOL_DEVICE_PATH  *MediaProt;
 264              		.loc 1 1203 1 is_stmt 0 view .LVU52
 265 00ae F30F1EFA 		endbr64
 266 00b2 4883EC08 		subq	$8, %rsp
 267              		.cfi_def_cfa_offset 16
1204:../Backend/gnu-efi-3.0.9/lib/dpath.c **** 
 268              		.loc 1 1204 5 is_stmt 1 view .LVU53
1206:../Backend/gnu-efi-3.0.9/lib/dpath.c ****     CatPrint(Str, L"%g", &MediaProt->Protocol);
 269              		.loc 1 1206 5 view .LVU54
 270              	.LVL19:
1207:../Backend/gnu-efi-3.0.9/lib/dpath.c **** }
 271              		.loc 1 1207 5 view .LVU55
 272 00b6 488D5604 		leaq	4(%rsi), %rdx
 273 00ba 488D3500 		leaq	.LC9(%rip), %rsi
 273      000000
 274              	.LVL20:
1207:../Backend/gnu-efi-3.0.9/lib/dpath.c **** }
 275              		.loc 1 1207 5 is_stmt 0 view .LVU56
 276 00c1 B8000000 		movl	$0, %eax
 276      00
 277 00c6 E8000000 		call	CatPrint
 277      00
 278              	.LVL21:
1208:../Backend/gnu-efi-3.0.9/lib/dpath.c **** 
 279              		.loc 1 1208 1 view .LVU57
 280 00cb 4883C408 		addq	$8, %rsp
 281              		.cfi_def_cfa_offset 8
 282 00cf C3       		ret
 283              		.cfi_endproc
 284              	.LFE39:
 286              		.section	.rodata
 287              		.align 2
 288              	.LC10:
 289 008e 2500     		.string	"%"
 290 0090 7300     		.string	"s"
 291 0092 00       		.string	""
 292 0093 00       		.string	""
 293              		.text
 295              	_DevPathFilePath:
 296              	.LVL22:
 297              	.LFB38:
1191:../Backend/gnu-efi-3.0.9/lib/dpath.c ****     FILEPATH_DEVICE_PATH    *Fp;
 298              		.loc 1 1191 1 is_stmt 1 view -0
 299              		.cfi_startproc
1191:../Backend/gnu-efi-3.0.9/lib/dpath.c ****     FILEPATH_DEVICE_PATH    *Fp;
 300              		.loc 1 1191 1 is_stmt 0 view .LVU59
 301 00d0 F30F1EFA 		endbr64
 302 00d4 4883EC08 		subq	$8, %rsp
 303              		.cfi_def_cfa_offset 16
1192:../Backend/gnu-efi-3.0.9/lib/dpath.c **** 
 304              		.loc 1 1192 5 is_stmt 1 view .LVU60
1194:../Backend/gnu-efi-3.0.9/lib/dpath.c ****     CatPrint(Str, L"%s", Fp->PathName);
 305              		.loc 1 1194 5 view .LVU61
 306              	.LVL23:
1195:../Backend/gnu-efi-3.0.9/lib/dpath.c **** }
 307              		.loc 1 1195 5 view .LVU62
1195:../Backend/gnu-efi-3.0.9/lib/dpath.c **** }
 308              		.loc 1 1195 28 is_stmt 0 view .LVU63
 309 00d8 488D5604 		leaq	4(%rsi), %rdx
1195:../Backend/gnu-efi-3.0.9/lib/dpath.c **** }
 310              		.loc 1 1195 5 view .LVU64
 311 00dc 488D3500 		leaq	.LC10(%rip), %rsi
 311      000000
 312              	.LVL24:
1195:../Backend/gnu-efi-3.0.9/lib/dpath.c **** }
 313              		.loc 1 1195 5 view .LVU65
 314 00e3 B8000000 		movl	$0, %eax
 314      00
 315 00e8 E8000000 		call	CatPrint
 315      00
 316              	.LVL25:
1196:../Backend/gnu-efi-3.0.9/lib/dpath.c **** 
 317              		.loc 1 1196 1 view .LVU66
 318 00ed 4883C408 		addq	$8, %rsp
 319              		.cfi_def_cfa_offset 8
 320 00f1 C3       		ret
 321              		.cfi_endproc
 322              	.LFE38:
 324              		.section	.rodata
 325              		.align 2
 326              	.LC11:
 327 0094 4300     		.string	"C"
 328 0096 4400     		.string	"D"
 329 0098 5200     		.string	"R"
 330 009a 4F00     		.string	"O"
 331 009c 4D00     		.string	"M"
 332 009e 2800     		.string	"("
 333 00a0 3000     		.string	"0"
 334 00a2 7800     		.string	"x"
 335 00a4 2500     		.string	"%"
 336 00a6 7800     		.string	"x"
 337 00a8 2900     		.string	")"
 338 00aa 00       		.string	""
 339 00ab 00       		.string	""
 340              		.text
 342              	_DevPathCDROM:
 343              	.LVL26:
 344              	.LFB37:
1179:../Backend/gnu-efi-3.0.9/lib/dpath.c ****     CDROM_DEVICE_PATH       *Cd;
 345              		.loc 1 1179 1 is_stmt 1 view -0
 346              		.cfi_startproc
1179:../Backend/gnu-efi-3.0.9/lib/dpath.c ****     CDROM_DEVICE_PATH       *Cd;
 347              		.loc 1 1179 1 is_stmt 0 view .LVU68
 348 00f2 F30F1EFA 		endbr64
 349 00f6 4883EC08 		subq	$8, %rsp
 350              		.cfi_def_cfa_offset 16
1180:../Backend/gnu-efi-3.0.9/lib/dpath.c **** 
 351              		.loc 1 1180 5 is_stmt 1 view .LVU69
1182:../Backend/gnu-efi-3.0.9/lib/dpath.c ****     CatPrint( Str , L"CDROM(0x%x)" , Cd-> BootEntry ) ;
 352              		.loc 1 1182 5 view .LVU70
 353              	.LVL27:
1183:../Backend/gnu-efi-3.0.9/lib/dpath.c **** }
 354              		.loc 1 1183 5 view .LVU71
 355 00fa 8B5604   		movl	4(%rsi), %edx
 356 00fd 488D3500 		leaq	.LC11(%rip), %rsi
 356      000000
 357              	.LVL28:
1183:../Backend/gnu-efi-3.0.9/lib/dpath.c **** }
 358              		.loc 1 1183 5 is_stmt 0 view .LVU72
 359 0104 B8000000 		movl	$0, %eax
 359      00
 360 0109 E8000000 		call	CatPrint
 360      00
 361              	.LVL29:
1184:../Backend/gnu-efi-3.0.9/lib/dpath.c **** 
 362              		.loc 1 1184 1 view .LVU73
 363 010e 4883C408 		addq	$8, %rsp
 364              		.cfi_def_cfa_offset 8
 365 0112 C3       		ret
 366              		.cfi_endproc
 367              	.LFE37:
 369              		.section	.rodata
 370 00ac 00000000 		.align 8
 371              	.LC12:
 372 00b0 4800     		.string	"H"
 373 00b2 4400     		.string	"D"
 374 00b4 2800     		.string	"("
 375 00b6 5000     		.string	"P"
 376 00b8 6100     		.string	"a"
 377 00ba 7200     		.string	"r"
 378 00bc 7400     		.string	"t"
 379 00be 2500     		.string	"%"
 380 00c0 6400     		.string	"d"
 381 00c2 2C00     		.string	","
 382 00c4 5300     		.string	"S"
 383 00c6 6900     		.string	"i"
 384 00c8 6700     		.string	"g"
 385 00ca 2500     		.string	"%"
 386 00cc 3000     		.string	"0"
 387 00ce 3800     		.string	"8"
 388 00d0 5800     		.string	"X"
 389 00d2 2900     		.string	")"
 390 00d4 00       		.string	""
 391 00d5 00       		.string	""
 392 00d6 0000     		.align 8
 393              	.LC13:
 394 00d8 4800     		.string	"H"
 395 00da 4400     		.string	"D"
 396 00dc 2800     		.string	"("
 397 00de 5000     		.string	"P"
 398 00e0 6100     		.string	"a"
 399 00e2 7200     		.string	"r"
 400 00e4 7400     		.string	"t"
 401 00e6 2500     		.string	"%"
 402 00e8 6400     		.string	"d"
 403 00ea 2C00     		.string	","
 404 00ec 5300     		.string	"S"
 405 00ee 6900     		.string	"i"
 406 00f0 6700     		.string	"g"
 407 00f2 2500     		.string	"%"
 408 00f4 6700     		.string	"g"
 409 00f6 2900     		.string	")"
 410 00f8 00       		.string	""
 411 00f9 00       		.string	""
 412 00fa 00000000 		.align 8
 412      0000
 413              	.LC14:
 414 0100 4800     		.string	"H"
 415 0102 4400     		.string	"D"
 416 0104 2800     		.string	"("
 417 0106 5000     		.string	"P"
 418 0108 6100     		.string	"a"
 419 010a 7200     		.string	"r"
 420 010c 7400     		.string	"t"
 421 010e 2500     		.string	"%"
 422 0110 6400     		.string	"d"
 423 0112 2C00     		.string	","
 424 0114 4D00     		.string	"M"
 425 0116 4200     		.string	"B"
 426 0118 5200     		.string	"R"
 427 011a 5400     		.string	"T"
 428 011c 7900     		.string	"y"
 429 011e 7000     		.string	"p"
 430 0120 6500     		.string	"e"
 431 0122 3D00     		.string	"="
 432 0124 2500     		.string	"%"
 433 0126 3000     		.string	"0"
 434 0128 3200     		.string	"2"
 435 012a 7800     		.string	"x"
 436 012c 2C00     		.string	","
 437 012e 5300     		.string	"S"
 438 0130 6900     		.string	"i"
 439 0132 6700     		.string	"g"
 440 0134 5400     		.string	"T"
 441 0136 7900     		.string	"y"
 442 0138 7000     		.string	"p"
 443 013a 6500     		.string	"e"
 444 013c 3D00     		.string	"="
 445 013e 2500     		.string	"%"
 446 0140 3000     		.string	"0"
 447 0142 3200     		.string	"2"
 448 0144 7800     		.string	"x"
 449 0146 2900     		.string	")"
 450 0148 00       		.string	""
 451 0149 00       		.string	""
 452              		.text
 454              	_DevPathHardDrive:
 455              	.LVL30:
 456              	.LFB36:
1147:../Backend/gnu-efi-3.0.9/lib/dpath.c ****     HARDDRIVE_DEVICE_PATH   *Hd;
 457              		.loc 1 1147 1 is_stmt 1 view -0
 458              		.cfi_startproc
1147:../Backend/gnu-efi-3.0.9/lib/dpath.c ****     HARDDRIVE_DEVICE_PATH   *Hd;
 459              		.loc 1 1147 1 is_stmt 0 view .LVU75
 460 0113 F30F1EFA 		endbr64
 461 0117 4883EC08 		subq	$8, %rsp
 462              		.cfi_def_cfa_offset 16
1148:../Backend/gnu-efi-3.0.9/lib/dpath.c **** 
 463              		.loc 1 1148 5 is_stmt 1 view .LVU76
1150:../Backend/gnu-efi-3.0.9/lib/dpath.c ****     switch (Hd->SignatureType) {
 464              		.loc 1 1150 5 view .LVU77
 465              	.LVL31:
1151:../Backend/gnu-efi-3.0.9/lib/dpath.c ****         case SIGNATURE_TYPE_MBR:
 466              		.loc 1 1151 5 view .LVU78
1151:../Backend/gnu-efi-3.0.9/lib/dpath.c ****         case SIGNATURE_TYPE_MBR:
 467              		.loc 1 1151 15 is_stmt 0 view .LVU79
 468 011b 440FB646 		movzbl	41(%rsi), %r8d
 468      29
1151:../Backend/gnu-efi-3.0.9/lib/dpath.c ****         case SIGNATURE_TYPE_MBR:
 469              		.loc 1 1151 5 view .LVU80
 470 0120 4180F801 		cmpb	$1, %r8b
 471 0124 7424     		je	.L22
 472 0126 4180F802 		cmpb	$2, %r8b
 473 012a 743A     		je	.L23
1165:../Backend/gnu-efi-3.0.9/lib/dpath.c ****                 Hd->PartitionNumber,
 474              		.loc 1 1165 13 is_stmt 1 view .LVU81
 475 012c 0FB64E28 		movzbl	40(%rsi), %ecx
 476 0130 8B5604   		movl	4(%rsi), %edx
 477 0133 450FB6C0 		movzbl	%r8b, %r8d
 478 0137 488D3500 		leaq	.LC14(%rip), %rsi
 478      000000
 479              	.LVL32:
1165:../Backend/gnu-efi-3.0.9/lib/dpath.c ****                 Hd->PartitionNumber,
 480              		.loc 1 1165 13 is_stmt 0 view .LVU82
 481 013e B8000000 		movl	$0, %eax
 481      00
 482 0143 E8000000 		call	CatPrint
 482      00
 483              	.LVL33:
1170:../Backend/gnu-efi-3.0.9/lib/dpath.c ****     }
 484              		.loc 1 1170 13 is_stmt 1 view .LVU83
1172:../Backend/gnu-efi-3.0.9/lib/dpath.c **** 
 485              		.loc 1 1172 1 is_stmt 0 view .LVU84
 486 0148 EB17     		jmp	.L21
 487              	.LVL34:
 488              	.L22:
1153:../Backend/gnu-efi-3.0.9/lib/dpath.c ****                 Hd->PartitionNumber,
 489              		.loc 1 1153 13 is_stmt 1 view .LVU85
 490 014a 8B4E18   		movl	24(%rsi), %ecx
 491 014d 8B5604   		movl	4(%rsi), %edx
 492 0150 488D3500 		leaq	.LC12(%rip), %rsi
 492      000000
 493              	.LVL35:
1153:../Backend/gnu-efi-3.0.9/lib/dpath.c ****                 Hd->PartitionNumber,
 494              		.loc 1 1153 13 is_stmt 0 view .LVU86
 495 0157 B8000000 		movl	$0, %eax
 495      00
 496 015c E8000000 		call	CatPrint
 496      00
 497              	.LVL36:
1157:../Backend/gnu-efi-3.0.9/lib/dpath.c ****         case SIGNATURE_TYPE_GUID:
 498              		.loc 1 1157 13 is_stmt 1 view .LVU87
 499              	.L21:
1172:../Backend/gnu-efi-3.0.9/lib/dpath.c **** 
 500              		.loc 1 1172 1 is_stmt 0 view .LVU88
 501 0161 4883C408 		addq	$8, %rsp
 502              		.cfi_remember_state
 503              		.cfi_def_cfa_offset 8
 504 0165 C3       		ret
 505              	.LVL37:
 506              	.L23:
 507              		.cfi_restore_state
1159:../Backend/gnu-efi-3.0.9/lib/dpath.c ****                 Hd->PartitionNumber,
 508              		.loc 1 1159 13 is_stmt 1 view .LVU89
1161:../Backend/gnu-efi-3.0.9/lib/dpath.c ****                 );
 509              		.loc 1 1161 30 is_stmt 0 view .LVU90
 510 0166 488D4E18 		leaq	24(%rsi), %rcx
1159:../Backend/gnu-efi-3.0.9/lib/dpath.c ****                 Hd->PartitionNumber,
 511              		.loc 1 1159 13 view .LVU91
 512 016a 8B5604   		movl	4(%rsi), %edx
 513 016d 488D3500 		leaq	.LC13(%rip), %rsi
 513      000000
 514              	.LVL38:
1159:../Backend/gnu-efi-3.0.9/lib/dpath.c ****                 Hd->PartitionNumber,
 515              		.loc 1 1159 13 view .LVU92
 516 0174 B8000000 		movl	$0, %eax
 516      00
 517 0179 E8000000 		call	CatPrint
 517      00
 518              	.LVL39:
1163:../Backend/gnu-efi-3.0.9/lib/dpath.c ****         default:
 519              		.loc 1 1163 13 is_stmt 1 view .LVU93
 520 017e EBE1     		jmp	.L21
 521              		.cfi_endproc
 522              	.LFE36:
 524              		.section	.rodata
 525 014a 00000000 		.align 8
 525      0000
 526              	.LC15:
 527 0150 5300     		.string	"S"
 528 0152 6100     		.string	"a"
 529 0154 7400     		.string	"t"
 530 0156 6100     		.string	"a"
 531 0158 2800     		.string	"("
 532 015a 3000     		.string	"0"
 533 015c 7800     		.string	"x"
 534 015e 2500     		.string	"%"
 535 0160 7800     		.string	"x"
 536 0162 2C00     		.string	","
 537 0164 3000     		.string	"0"
 538 0166 7800     		.string	"x"
 539 0168 2500     		.string	"%"
 540 016a 7800     		.string	"x"
 541 016c 2C00     		.string	","
 542 016e 3000     		.string	"0"
 543 0170 7800     		.string	"x"
 544 0172 2500     		.string	"%"
 545 0174 7800     		.string	"x"
 546 0176 2900     		.string	")"
 547 0178 00       		.string	""
 548 0179 00       		.string	""
 549              		.text
 551              	_DevPathSata:
 552              	.LVL40:
 553              	.LFB35:
1134:../Backend/gnu-efi-3.0.9/lib/dpath.c ****     SATA_DEVICE_PATH * Sata ;
 554              		.loc 1 1134 1 view -0
 555              		.cfi_startproc
1134:../Backend/gnu-efi-3.0.9/lib/dpath.c ****     SATA_DEVICE_PATH * Sata ;
 556              		.loc 1 1134 1 is_stmt 0 view .LVU95
 557 0180 F30F1EFA 		endbr64
 558 0184 4883EC08 		subq	$8, %rsp
 559              		.cfi_def_cfa_offset 16
1135:../Backend/gnu-efi-3.0.9/lib/dpath.c **** 
 560              		.loc 1 1135 5 is_stmt 1 view .LVU96
1137:../Backend/gnu-efi-3.0.9/lib/dpath.c ****     CatPrint( Str , L"Sata(0x%x,0x%x,0x%x)" , Sata-> HBAPortNumber ,
 561              		.loc 1 1137 5 view .LVU97
 562              	.LVL41:
1138:../Backend/gnu-efi-3.0.9/lib/dpath.c ****         Sata-> PortMultiplierPortNumber , Sata-> Lun ) ;
 563              		.loc 1 1138 5 view .LVU98
 564 0188 0FB74E06 		movzwl	6(%rsi), %ecx
 565 018c 0FB75604 		movzwl	4(%rsi), %edx
 566 0190 440FB746 		movzwl	8(%rsi), %r8d
 566      08
 567 0195 488D3500 		leaq	.LC15(%rip), %rsi
 567      000000
 568              	.LVL42:
1138:../Backend/gnu-efi-3.0.9/lib/dpath.c ****         Sata-> PortMultiplierPortNumber , Sata-> Lun ) ;
 569              		.loc 1 1138 5 is_stmt 0 view .LVU99
 570 019c B8000000 		movl	$0, %eax
 570      00
 571 01a1 E8000000 		call	CatPrint
 571      00
 572              	.LVL43:
1140:../Backend/gnu-efi-3.0.9/lib/dpath.c **** 
 573              		.loc 1 1140 1 view .LVU100
 574 01a6 4883C408 		addq	$8, %rsp
 575              		.cfi_def_cfa_offset 8
 576 01aa C3       		ret
 577              		.cfi_endproc
 578              	.LFE35:
 580              		.section	.rodata
 581 017a 00000000 		.align 8
 581      0000
 582              	.LC16:
 583 0180 5500     		.string	"U"
 584 0182 6100     		.string	"a"
 585 0184 7200     		.string	"r"
 586 0186 7400     		.string	"t"
 587 0188 2800     		.string	"("
 588 018a 4400     		.string	"D"
 589 018c 4500     		.string	"E"
 590 018e 4600     		.string	"F"
 591 0190 4100     		.string	"A"
 592 0192 5500     		.string	"U"
 593 0194 4C00     		.string	"L"
 594 0196 5400     		.string	"T"
 595 0198 2000     		.string	" "
 596 019a 2500     		.string	"%"
 597 019c 6300     		.string	"c"
 598 019e 00       		.string	""
 599 019f 00       		.string	""
 600              		.align 2
 601              	.LC17:
 602 01a0 5500     		.string	"U"
 603 01a2 6100     		.string	"a"
 604 01a4 7200     		.string	"r"
 605 01a6 7400     		.string	"t"
 606 01a8 2800     		.string	"("
 607 01aa 2500     		.string	"%"
 608 01ac 6400     		.string	"d"
 609 01ae 2000     		.string	" "
 610 01b0 2500     		.string	"%"
 611 01b2 6300     		.string	"c"
 612 01b4 00       		.string	""
 613 01b5 00       		.string	""
 614              		.align 2
 615              	.LC18:
 616 01b6 4400     		.string	"D"
 617 01b8 00       		.string	""
 618 01b9 00       		.string	""
 619              		.align 2
 620              	.LC19:
 621 01ba 2500     		.string	"%"
 622 01bc 6400     		.string	"d"
 623 01be 00       		.string	""
 624 01bf 00       		.string	""
 625              		.align 2
 626              	.LC20:
 627 01c0 4400     		.string	"D"
 628 01c2 2900     		.string	")"
 629 01c4 00       		.string	""
 630 01c5 00       		.string	""
 631              		.align 2
 632              	.LC21:
 633 01c6 3100     		.string	"1"
 634 01c8 2900     		.string	")"
 635 01ca 00       		.string	""
 636 01cb 00       		.string	""
 637              		.align 2
 638              	.LC22:
 639 01cc 3100     		.string	"1"
 640 01ce 2E00     		.string	"."
 641 01d0 3500     		.string	"5"
 642 01d2 2900     		.string	")"
 643 01d4 00       		.string	""
 644 01d5 00       		.string	""
 645              		.align 2
 646              	.LC23:
 647 01d6 3200     		.string	"2"
 648 01d8 2900     		.string	")"
 649 01da 00       		.string	""
 650 01db 00       		.string	""
 651              		.align 2
 652              	.LC24:
 653 01dc 7800     		.string	"x"
 654 01de 2900     		.string	")"
 655 01e0 00       		.string	""
 656 01e1 00       		.string	""
 657              		.text
 659              	_DevPathUart:
 660              	.LVL44:
 661              	.LFB34:
1093:../Backend/gnu-efi-3.0.9/lib/dpath.c ****     UART_DEVICE_PATH  *Uart;
 662              		.loc 1 1093 1 is_stmt 1 view -0
 663              		.cfi_startproc
1093:../Backend/gnu-efi-3.0.9/lib/dpath.c ****     UART_DEVICE_PATH  *Uart;
 664              		.loc 1 1093 1 is_stmt 0 view .LVU102
 665 01ab F30F1EFA 		endbr64
 666 01af 55       		pushq	%rbp
 667              		.cfi_def_cfa_offset 16
 668              		.cfi_offset 6, -16
 669 01b0 53       		pushq	%rbx
 670              		.cfi_def_cfa_offset 24
 671              		.cfi_offset 3, -24
 672 01b1 4883EC08 		subq	$8, %rsp
 673              		.cfi_def_cfa_offset 32
 674 01b5 4889FD   		movq	%rdi, %rbp
 675 01b8 4889F3   		movq	%rsi, %rbx
1094:../Backend/gnu-efi-3.0.9/lib/dpath.c ****     CHAR8             Parity;
 676              		.loc 1 1094 5 is_stmt 1 view .LVU103
1095:../Backend/gnu-efi-3.0.9/lib/dpath.c **** 
 677              		.loc 1 1095 5 view .LVU104
1097:../Backend/gnu-efi-3.0.9/lib/dpath.c ****     switch (Uart->Parity) {
 678              		.loc 1 1097 5 view .LVU105
 679              	.LVL45:
1098:../Backend/gnu-efi-3.0.9/lib/dpath.c ****         case 0  : Parity = 'D'; break;
 680              		.loc 1 1098 5 view .LVU106
1098:../Backend/gnu-efi-3.0.9/lib/dpath.c ****         case 0  : Parity = 'D'; break;
 681              		.loc 1 1098 17 is_stmt 0 view .LVU107
 682 01bb 0FB64611 		movzbl	17(%rsi), %eax
1098:../Backend/gnu-efi-3.0.9/lib/dpath.c ****         case 0  : Parity = 'D'; break;
 683              		.loc 1 1098 5 view .LVU108
 684 01bf 3C05     		cmpb	$5, %al
 685 01c1 0F87C000 		ja	.L31
 685      0000
 686 01c7 0FB6C0   		movzbl	%al, %eax
 687 01ca 488D1500 		leaq	.L33(%rip), %rdx
 687      000000
 688 01d1 48630482 		movslq	(%rdx,%rax,4), %rax
 689 01d5 4801D0   		addq	%rdx, %rax
 690 01d8 3EFFE0   		notrack jmp	*%rax
 691              		.section	.rodata
 692 01e2 0000     		.align 4
 693              		.align 4
 694              	.L33:
 695 01e4 00000000 		.long	.L38-.L33
 696 01e8 00000000 		.long	.L50-.L33
 697 01ec 00000000 		.long	.L36-.L33
 698 01f0 00000000 		.long	.L35-.L33
 699 01f4 00000000 		.long	.L34-.L33
 700 01f8 00000000 		.long	.L32-.L33
 701              		.text
 702              	.L38:
 703 01db B9440000 		movl	$68, %ecx
 703      00
 704              	.L37:
 705              	.LVL46:
1108:../Backend/gnu-efi-3.0.9/lib/dpath.c ****         CatPrint(Str, L"Uart(DEFAULT %c",Uart->BaudRate,Parity);
 706              		.loc 1 1108 5 is_stmt 1 view .LVU109
1108:../Backend/gnu-efi-3.0.9/lib/dpath.c ****         CatPrint(Str, L"Uart(DEFAULT %c",Uart->BaudRate,Parity);
 707              		.loc 1 1108 13 is_stmt 0 view .LVU110
 708 01e0 488B5308 		movq	8(%rbx), %rdx
1108:../Backend/gnu-efi-3.0.9/lib/dpath.c ****         CatPrint(Str, L"Uart(DEFAULT %c",Uart->BaudRate,Parity);
 709              		.loc 1 1108 8 view .LVU111
 710 01e4 4885D2   		testq	%rdx, %rdx
 711 01e7 0F85AE00 		jne	.L39
 711      0000
1109:../Backend/gnu-efi-3.0.9/lib/dpath.c ****     } else {
 712              		.loc 1 1109 9 is_stmt 1 view .LVU112
 713 01ed 0FB6C9   		movzbl	%cl, %ecx
1109:../Backend/gnu-efi-3.0.9/lib/dpath.c ****     } else {
 714              		.loc 1 1109 9 is_stmt 0 view .LVU113
 715 01f0 488D3500 		leaq	.LC16(%rip), %rsi
 715      000000
 716              	.LVL47:
1109:../Backend/gnu-efi-3.0.9/lib/dpath.c ****     } else {
 717              		.loc 1 1109 9 view .LVU114
 718 01f7 4889EF   		movq	%rbp, %rdi
 719              	.LVL48:
1109:../Backend/gnu-efi-3.0.9/lib/dpath.c ****     } else {
 720              		.loc 1 1109 9 view .LVU115
 721 01fa B8000000 		movl	$0, %eax
 721      00
 722 01ff E8000000 		call	CatPrint
 722      00
 723              	.LVL49:
 724              	.L40:
1114:../Backend/gnu-efi-3.0.9/lib/dpath.c ****         CatPrint(Str, L"D");
 725              		.loc 1 1114 5 is_stmt 1 view .LVU116
1114:../Backend/gnu-efi-3.0.9/lib/dpath.c ****         CatPrint(Str, L"D");
 726              		.loc 1 1114 13 is_stmt 0 view .LVU117
 727 0204 0FB65310 		movzbl	16(%rbx), %edx
1114:../Backend/gnu-efi-3.0.9/lib/dpath.c ****         CatPrint(Str, L"D");
 728              		.loc 1 1114 8 view .LVU118
 729 0208 84D2     		testb	%dl, %dl
 730 020a 0F85A700 		jne	.L41
 730      0000
1115:../Backend/gnu-efi-3.0.9/lib/dpath.c ****     } else {
 731              		.loc 1 1115 9 is_stmt 1 view .LVU119
 732 0210 488D3500 		leaq	.LC18(%rip), %rsi
 732      000000
 733 0217 4889EF   		movq	%rbp, %rdi
 734 021a B8000000 		movl	$0, %eax
 734      00
 735 021f E8000000 		call	CatPrint
 735      00
 736              	.LVL50:
 737              	.L42:
1120:../Backend/gnu-efi-3.0.9/lib/dpath.c ****         case 0  : CatPrint(Str, L"D)");   break;
 738              		.loc 1 1120 5 view .LVU120
1120:../Backend/gnu-efi-3.0.9/lib/dpath.c ****         case 0  : CatPrint(Str, L"D)");   break;
 739              		.loc 1 1120 17 is_stmt 0 view .LVU121
 740 0224 0FB64312 		movzbl	18(%rbx), %eax
1120:../Backend/gnu-efi-3.0.9/lib/dpath.c ****         case 0  : CatPrint(Str, L"D)");   break;
 741              		.loc 1 1120 5 view .LVU122
 742 0228 3C02     		cmpb	$2, %al
 743 022a 0F84D800 		je	.L43
 743      0000
 744 0230 0F879D00 		ja	.L44
 744      0000
 745 0236 84C0     		testb	%al, %al
 746 0238 0F84AF00 		je	.L45
 746      0000
 747 023e 3C01     		cmpb	$1, %al
 748 0240 0F85D800 		jne	.L47
 748      0000
1122:../Backend/gnu-efi-3.0.9/lib/dpath.c ****         case 2  : CatPrint(Str, L"1.5)"); break;
 749              		.loc 1 1122 19 is_stmt 1 view .LVU123
 750 0246 488D3500 		leaq	.LC21(%rip), %rsi
 750      000000
 751 024d 4889EF   		movq	%rbp, %rdi
 752 0250 B8000000 		movl	$0, %eax
 752      00
 753 0255 E8000000 		call	CatPrint
 753      00
 754              	.LVL51:
1122:../Backend/gnu-efi-3.0.9/lib/dpath.c ****         case 2  : CatPrint(Str, L"1.5)"); break;
 755              		.loc 1 1122 43 discriminator 1 view .LVU124
1122:../Backend/gnu-efi-3.0.9/lib/dpath.c ****         case 2  : CatPrint(Str, L"1.5)"); break;
 756              		.loc 1 1122 43 is_stmt 0 view .LVU125
 757 025a E9A20000 		jmp	.L30
 757      00
 758              	.LVL52:
 759              	.L36:
1101:../Backend/gnu-efi-3.0.9/lib/dpath.c ****         case 3  : Parity = 'O'; break;
 760              		.loc 1 1101 19 is_stmt 1 view .LVU126
1101:../Backend/gnu-efi-3.0.9/lib/dpath.c ****         case 3  : Parity = 'O'; break;
 761              		.loc 1 1101 33 view .LVU127
1101:../Backend/gnu-efi-3.0.9/lib/dpath.c ****         case 3  : Parity = 'O'; break;
 762              		.loc 1 1101 26 is_stmt 0 view .LVU128
 763 025f B9450000 		movl	$69, %ecx
 763      00
1101:../Backend/gnu-efi-3.0.9/lib/dpath.c ****         case 3  : Parity = 'O'; break;
 764              		.loc 1 1101 33 view .LVU129
 765 0264 E977FFFF 		jmp	.L37
 765      FF
 766              	.LVL53:
 767              	.L35:
1102:../Backend/gnu-efi-3.0.9/lib/dpath.c ****         case 4  : Parity = 'M'; break;
 768              		.loc 1 1102 19 is_stmt 1 view .LVU130
1102:../Backend/gnu-efi-3.0.9/lib/dpath.c ****         case 4  : Parity = 'M'; break;
 769              		.loc 1 1102 33 view .LVU131
1102:../Backend/gnu-efi-3.0.9/lib/dpath.c ****         case 4  : Parity = 'M'; break;
 770              		.loc 1 1102 26 is_stmt 0 view .LVU132
 771 0269 B94F0000 		movl	$79, %ecx
 771      00
1102:../Backend/gnu-efi-3.0.9/lib/dpath.c ****         case 4  : Parity = 'M'; break;
 772              		.loc 1 1102 33 view .LVU133
 773 026e E96DFFFF 		jmp	.L37
 773      FF
 774              	.LVL54:
 775              	.L34:
1103:../Backend/gnu-efi-3.0.9/lib/dpath.c ****         case 5  : Parity = 'S'; break;
 776              		.loc 1 1103 19 is_stmt 1 view .LVU134
1103:../Backend/gnu-efi-3.0.9/lib/dpath.c ****         case 5  : Parity = 'S'; break;
 777              		.loc 1 1103 33 view .LVU135
1103:../Backend/gnu-efi-3.0.9/lib/dpath.c ****         case 5  : Parity = 'S'; break;
 778              		.loc 1 1103 26 is_stmt 0 view .LVU136
 779 0273 B94D0000 		movl	$77, %ecx
 779      00
1103:../Backend/gnu-efi-3.0.9/lib/dpath.c ****         case 5  : Parity = 'S'; break;
 780              		.loc 1 1103 33 view .LVU137
 781 0278 E963FFFF 		jmp	.L37
 781      FF
 782              	.LVL55:
 783              	.L32:
1104:../Backend/gnu-efi-3.0.9/lib/dpath.c ****         default : Parity = 'x'; break;
 784              		.loc 1 1104 19 is_stmt 1 view .LVU138
1104:../Backend/gnu-efi-3.0.9/lib/dpath.c ****         default : Parity = 'x'; break;
 785              		.loc 1 1104 33 view .LVU139
1104:../Backend/gnu-efi-3.0.9/lib/dpath.c ****         default : Parity = 'x'; break;
 786              		.loc 1 1104 26 is_stmt 0 view .LVU140
 787 027d B9530000 		movl	$83, %ecx
 787      00
1104:../Backend/gnu-efi-3.0.9/lib/dpath.c ****         default : Parity = 'x'; break;
 788              		.loc 1 1104 33 view .LVU141
 789 0282 E959FFFF 		jmp	.L37
 789      FF
 790              	.LVL56:
 791              	.L31:
1105:../Backend/gnu-efi-3.0.9/lib/dpath.c ****     }
 792              		.loc 1 1105 19 is_stmt 1 view .LVU142
1105:../Backend/gnu-efi-3.0.9/lib/dpath.c ****     }
 793              		.loc 1 1105 33 view .LVU143
1105:../Backend/gnu-efi-3.0.9/lib/dpath.c ****     }
 794              		.loc 1 1105 26 is_stmt 0 view .LVU144
 795 0287 B9780000 		movl	$120, %ecx
 795      00
1105:../Backend/gnu-efi-3.0.9/lib/dpath.c ****     }
 796              		.loc 1 1105 33 view .LVU145
 797 028c E94FFFFF 		jmp	.L37
 797      FF
 798              	.LVL57:
 799              	.L50:
1100:../Backend/gnu-efi-3.0.9/lib/dpath.c ****         case 2  : Parity = 'E'; break;
 800              		.loc 1 1100 26 view .LVU146
 801 0291 B94E0000 		movl	$78, %ecx
 801      00
 802 0296 E945FFFF 		jmp	.L37
 802      FF
 803              	.LVL58:
 804              	.L39:
1111:../Backend/gnu-efi-3.0.9/lib/dpath.c ****     }
 805              		.loc 1 1111 9 is_stmt 1 view .LVU147
 806 029b 0FB6C9   		movzbl	%cl, %ecx
1111:../Backend/gnu-efi-3.0.9/lib/dpath.c ****     }
 807              		.loc 1 1111 9 is_stmt 0 view .LVU148
 808 029e 488D3500 		leaq	.LC17(%rip), %rsi
 808      000000
 809 02a5 4889EF   		movq	%rbp, %rdi
 810              	.LVL59:
1111:../Backend/gnu-efi-3.0.9/lib/dpath.c ****     }
 811              		.loc 1 1111 9 view .LVU149
 812 02a8 B8000000 		movl	$0, %eax
 812      00
 813 02ad E8000000 		call	CatPrint
 813      00
 814              	.LVL60:
1111:../Backend/gnu-efi-3.0.9/lib/dpath.c ****     }
 815              		.loc 1 1111 9 view .LVU150
 816 02b2 E94DFFFF 		jmp	.L40
 816      FF
 817              	.L41:
1117:../Backend/gnu-efi-3.0.9/lib/dpath.c ****     }
 818              		.loc 1 1117 9 is_stmt 1 view .LVU151
 819 02b7 0FB6D2   		movzbl	%dl, %edx
 820 02ba 488D3500 		leaq	.LC19(%rip), %rsi
 820      000000
 821 02c1 4889EF   		movq	%rbp, %rdi
 822 02c4 B8000000 		movl	$0, %eax
 822      00
 823 02c9 E8000000 		call	CatPrint
 823      00
 824              	.LVL61:
 825 02ce E951FFFF 		jmp	.L42
 825      FF
 826              	.L44:
1120:../Backend/gnu-efi-3.0.9/lib/dpath.c ****         case 0  : CatPrint(Str, L"D)");   break;
 827              		.loc 1 1120 5 is_stmt 0 view .LVU152
 828 02d3 3C03     		cmpb	$3, %al
 829 02d5 7547     		jne	.L47
1124:../Backend/gnu-efi-3.0.9/lib/dpath.c ****         default : CatPrint(Str, L"x)");   break;
 830              		.loc 1 1124 19 is_stmt 1 view .LVU153
 831 02d7 488D3500 		leaq	.LC23(%rip), %rsi
 831      000000
 832 02de 4889EF   		movq	%rbp, %rdi
 833 02e1 B8000000 		movl	$0, %eax
 833      00
 834 02e6 E8000000 		call	CatPrint
 834      00
 835              	.LVL62:
1124:../Backend/gnu-efi-3.0.9/lib/dpath.c ****         default : CatPrint(Str, L"x)");   break;
 836              		.loc 1 1124 43 discriminator 1 view .LVU154
1124:../Backend/gnu-efi-3.0.9/lib/dpath.c ****         default : CatPrint(Str, L"x)");   break;
 837              		.loc 1 1124 43 is_stmt 0 view .LVU155
 838 02eb EB14     		jmp	.L30
 839              	.L45:
1121:../Backend/gnu-efi-3.0.9/lib/dpath.c ****         case 1  : CatPrint(Str, L"1)");   break;
 840              		.loc 1 1121 19 is_stmt 1 view .LVU156
 841 02ed 488D3500 		leaq	.LC20(%rip), %rsi
 841      000000
 842 02f4 4889EF   		movq	%rbp, %rdi
 843 02f7 B8000000 		movl	$0, %eax
 843      00
 844 02fc E8000000 		call	CatPrint
 844      00
 845              	.LVL63:
1121:../Backend/gnu-efi-3.0.9/lib/dpath.c ****         case 1  : CatPrint(Str, L"1)");   break;
 846              		.loc 1 1121 43 discriminator 1 view .LVU157
 847              	.L30:
1127:../Backend/gnu-efi-3.0.9/lib/dpath.c **** 
 848              		.loc 1 1127 1 is_stmt 0 view .LVU158
 849 0301 4883C408 		addq	$8, %rsp
 850              		.cfi_remember_state
 851              		.cfi_def_cfa_offset 24
 852 0305 5B       		popq	%rbx
 853              		.cfi_restore 3
 854              		.cfi_def_cfa_offset 16
 855              	.LVL64:
1127:../Backend/gnu-efi-3.0.9/lib/dpath.c **** 
 856              		.loc 1 1127 1 view .LVU159
 857 0306 5D       		popq	%rbp
 858              		.cfi_restore 6
 859              		.cfi_def_cfa_offset 8
 860              	.LVL65:
1127:../Backend/gnu-efi-3.0.9/lib/dpath.c **** 
 861              		.loc 1 1127 1 view .LVU160
 862 0307 C3       		ret
 863              	.LVL66:
 864              	.L43:
 865              		.cfi_restore_state
1123:../Backend/gnu-efi-3.0.9/lib/dpath.c ****         case 3  : CatPrint(Str, L"2)");   break;
 866              		.loc 1 1123 19 is_stmt 1 view .LVU161
 867 0308 488D3500 		leaq	.LC22(%rip), %rsi
 867      000000
 868 030f 4889EF   		movq	%rbp, %rdi
 869 0312 B8000000 		movl	$0, %eax
 869      00
 870 0317 E8000000 		call	CatPrint
 870      00
 871              	.LVL67:
1123:../Backend/gnu-efi-3.0.9/lib/dpath.c ****         case 3  : CatPrint(Str, L"2)");   break;
 872              		.loc 1 1123 43 discriminator 1 view .LVU162
1123:../Backend/gnu-efi-3.0.9/lib/dpath.c ****         case 3  : CatPrint(Str, L"2)");   break;
 873              		.loc 1 1123 43 is_stmt 0 view .LVU163
 874 031c EBE3     		jmp	.L30
 875              	.L47:
1125:../Backend/gnu-efi-3.0.9/lib/dpath.c ****     }
 876              		.loc 1 1125 19 is_stmt 1 view .LVU164
 877 031e 488D3500 		leaq	.LC24(%rip), %rsi
 877      000000
 878 0325 4889EF   		movq	%rbp, %rdi
 879 0328 B8000000 		movl	$0, %eax
 879      00
 880 032d E8000000 		call	CatPrint
 880      00
 881              	.LVL68:
1125:../Backend/gnu-efi-3.0.9/lib/dpath.c ****     }
 882              		.loc 1 1125 43 discriminator 1 view .LVU165
1127:../Backend/gnu-efi-3.0.9/lib/dpath.c **** 
 883              		.loc 1 1127 1 is_stmt 0 view .LVU166
 884 0332 EBCD     		jmp	.L30
 885              		.cfi_endproc
 886              	.LFE34:
 888              		.section	.rodata
 889 01fc 00000000 		.align 8
 890              	.LC25:
 891 0200 4900     		.string	"I"
 892 0202 6E00     		.string	"n"
 893 0204 6600     		.string	"f"
 894 0206 6900     		.string	"i"
 895 0208 6E00     		.string	"n"
 896 020a 6900     		.string	"i"
 897 020c 6200     		.string	"b"
 898 020e 6100     		.string	"a"
 899 0210 6E00     		.string	"n"
 900 0212 6400     		.string	"d"
 901 0214 2800     		.string	"("
 902 0216 3000     		.string	"0"
 903 0218 7800     		.string	"x"
 904 021a 2500     		.string	"%"
 905 021c 7800     		.string	"x"
 906 021e 2C00     		.string	","
 907 0220 2500     		.string	"%"
 908 0222 6700     		.string	"g"
 909 0224 2C00     		.string	","
 910 0226 3000     		.string	"0"
 911 0228 7800     		.string	"x"
 912 022a 2500     		.string	"%"
 913 022c 6C00     		.string	"l"
 914 022e 7800     		.string	"x"
 915 0230 2C00     		.string	","
 916 0232 3000     		.string	"0"
 917 0234 7800     		.string	"x"
 918 0236 2500     		.string	"%"
 919 0238 6C00     		.string	"l"
 920 023a 7800     		.string	"x"
 921 023c 2C00     		.string	","
 922 023e 3000     		.string	"0"
 923 0240 7800     		.string	"x"
 924 0242 2500     		.string	"%"
 925 0244 6C00     		.string	"l"
 926 0246 7800     		.string	"x"
 927 0248 2900     		.string	")"
 928 024a 00       		.string	""
 929 024b 00       		.string	""
 930              		.text
 932              	_DevPathInfiniBand:
 933              	.LVL69:
 934              	.LFB33:
1079:../Backend/gnu-efi-3.0.9/lib/dpath.c ****     INFINIBAND_DEVICE_PATH  *InfiniBand;
 935              		.loc 1 1079 1 is_stmt 1 view -0
 936              		.cfi_startproc
1079:../Backend/gnu-efi-3.0.9/lib/dpath.c ****     INFINIBAND_DEVICE_PATH  *InfiniBand;
 937              		.loc 1 1079 1 is_stmt 0 view .LVU168
 938 0334 F30F1EFA 		endbr64
 939 0338 4883EC18 		subq	$24, %rsp
 940              		.cfi_def_cfa_offset 32
1080:../Backend/gnu-efi-3.0.9/lib/dpath.c **** 
 941              		.loc 1 1080 5 is_stmt 1 view .LVU169
1082:../Backend/gnu-efi-3.0.9/lib/dpath.c ****     CatPrint( Str , L"Infiniband(0x%x,%g,0x%lx,0x%lx,0x%lx)" ,
 942              		.loc 1 1082 5 view .LVU170
 943              	.LVL70:
1083:../Backend/gnu-efi-3.0.9/lib/dpath.c ****         InfiniBand-> ResourceFlags , InfiniBand-> PortGid , InfiniBand-> ServiceId ,
 944              		.loc 1 1083 5 view .LVU171
 945 033c 488B4E08 		movq	8(%rsi), %rcx
 946 0340 8B5604   		movl	4(%rsi), %edx
 947 0343 488B4620 		movq	32(%rsi), %rax
 948 0347 48890424 		movq	%rax, (%rsp)
 949 034b 4C8B4E18 		movq	24(%rsi), %r9
 950 034f 4C8B4610 		movq	16(%rsi), %r8
 951 0353 488D3500 		leaq	.LC25(%rip), %rsi
 951      000000
 952              	.LVL71:
1083:../Backend/gnu-efi-3.0.9/lib/dpath.c ****         InfiniBand-> ResourceFlags , InfiniBand-> PortGid , InfiniBand-> ServiceId ,
 953              		.loc 1 1083 5 is_stmt 0 view .LVU172
 954 035a B8000000 		movl	$0, %eax
 954      00
 955 035f E8000000 		call	CatPrint
 955      00
 956              	.LVL72:
1086:../Backend/gnu-efi-3.0.9/lib/dpath.c **** 
 957              		.loc 1 1086 1 view .LVU173
 958 0364 4883C418 		addq	$24, %rsp
 959              		.cfi_def_cfa_offset 8
 960 0368 C3       		ret
 961              		.cfi_endproc
 962              	.LFE33:
 964              		.section	.rodata
 965              		.align 2
 966              	.LC26:
 967 024c 5500     		.string	"U"
 968 024e 7200     		.string	"r"
 969 0250 6900     		.string	"i"
 970 0252 2800     		.string	"("
 971 0254 2500     		.string	"%"
 972 0256 6100     		.string	"a"
 973 0258 2900     		.string	")"
 974 025a 00       		.string	""
 975 025b 00       		.string	""
 976              		.text
 978              	_DevPathUri:
 979              	.LVL73:
 980              	.LFB32:
1066:../Backend/gnu-efi-3.0.9/lib/dpath.c ****     URI_DEVICE_PATH  *Uri;
 981              		.loc 1 1066 1 is_stmt 1 view -0
 982              		.cfi_startproc
1066:../Backend/gnu-efi-3.0.9/lib/dpath.c ****     URI_DEVICE_PATH  *Uri;
 983              		.loc 1 1066 1 is_stmt 0 view .LVU175
 984 0369 F30F1EFA 		endbr64
 985 036d 4883EC08 		subq	$8, %rsp
 986              		.cfi_def_cfa_offset 16
1067:../Backend/gnu-efi-3.0.9/lib/dpath.c **** 
 987              		.loc 1 1067 5 is_stmt 1 view .LVU176
1069:../Backend/gnu-efi-3.0.9/lib/dpath.c **** 
 988              		.loc 1 1069 5 view .LVU177
 989              	.LVL74:
1071:../Backend/gnu-efi-3.0.9/lib/dpath.c **** }
 990              		.loc 1 1071 5 view .LVU178
1071:../Backend/gnu-efi-3.0.9/lib/dpath.c **** }
 991              		.loc 1 1071 35 is_stmt 0 view .LVU179
 992 0371 488D5604 		leaq	4(%rsi), %rdx
1071:../Backend/gnu-efi-3.0.9/lib/dpath.c **** }
 993              		.loc 1 1071 5 view .LVU180
 994 0375 488D3500 		leaq	.LC26(%rip), %rsi
 994      000000
 995              	.LVL75:
1071:../Backend/gnu-efi-3.0.9/lib/dpath.c **** }
 996              		.loc 1 1071 5 view .LVU181
 997 037c B8000000 		movl	$0, %eax
 997      00
 998 0381 E8000000 		call	CatPrint
 998      00
 999              	.LVL76:
1072:../Backend/gnu-efi-3.0.9/lib/dpath.c **** 
 1000              		.loc 1 1072 1 view .LVU182
 1001 0386 4883C408 		addq	$8, %rsp
 1002              		.cfi_def_cfa_offset 8
 1003 038a C3       		ret
 1004              		.cfi_endproc
 1005              	.LFE32:
 1007              		.section	.rodata
 1008              		.align 2
 1009              	.LC27:
 1010 025c 5400     		.string	"T"
 1011 025e 4300     		.string	"C"
 1012 0260 5000     		.string	"P"
 1013 0262 00       		.string	""
 1014 0263 00       		.string	""
 1015              		.align 2
 1016              	.LC28:
 1017 0264 5500     		.string	"U"
 1018 0266 4400     		.string	"D"
 1019 0268 5000     		.string	"P"
 1020 026a 00       		.string	""
 1021 026b 00       		.string	""
 1022              		.text
 1024              	CatPrintNetworkProtocol:
 1025              	.LVL77:
 1026              	.LFB28:
 966:../Backend/gnu-efi-3.0.9/lib/dpath.c ****     if ( Proto == 6 ) {
 1027              		.loc 1 966 1 is_stmt 1 view -0
 1028              		.cfi_startproc
 966:../Backend/gnu-efi-3.0.9/lib/dpath.c ****     if ( Proto == 6 ) {
 1029              		.loc 1 966 1 is_stmt 0 view .LVU184
 1030 038b 4883EC08 		subq	$8, %rsp
 1031              		.cfi_def_cfa_offset 16
 967:../Backend/gnu-efi-3.0.9/lib/dpath.c ****         CatPrint( Str , L"TCP" ) ;
 1032              		.loc 1 967 5 is_stmt 1 view .LVU185
 967:../Backend/gnu-efi-3.0.9/lib/dpath.c ****         CatPrint( Str , L"TCP" ) ;
 1033              		.loc 1 967 8 is_stmt 0 view .LVU186
 1034 038f 6683FE06 		cmpw	$6, %si
 1035 0393 741F     		je	.L61
 969:../Backend/gnu-efi-3.0.9/lib/dpath.c ****         CatPrint( Str , L"UDP" ) ;
 1036              		.loc 1 969 12 is_stmt 1 view .LVU187
 969:../Backend/gnu-efi-3.0.9/lib/dpath.c ****         CatPrint( Str , L"UDP" ) ;
 1037              		.loc 1 969 15 is_stmt 0 view .LVU188
 1038 0395 6683FE11 		cmpw	$17, %si
 1039 0399 742C     		je	.L62
 972:../Backend/gnu-efi-3.0.9/lib/dpath.c ****     }
 1040              		.loc 1 972 9 is_stmt 1 view .LVU189
 1041 039b 0FB7D6   		movzwl	%si, %edx
 1042 039e 488D3500 		leaq	.LC19(%rip), %rsi
 1042      000000
 1043              	.LVL78:
 972:../Backend/gnu-efi-3.0.9/lib/dpath.c ****     }
 1044              		.loc 1 972 9 is_stmt 0 view .LVU190
 1045 03a5 B8000000 		movl	$0, %eax
 1045      00
 1046 03aa E8000000 		call	CatPrint
 1046      00
 1047              	.LVL79:
 1048              	.L56:
 974:../Backend/gnu-efi-3.0.9/lib/dpath.c **** 
 1049              		.loc 1 974 1 view .LVU191
 1050 03af 4883C408 		addq	$8, %rsp
 1051              		.cfi_remember_state
 1052              		.cfi_def_cfa_offset 8
 1053 03b3 C3       		ret
 1054              	.LVL80:
 1055              	.L61:
 1056              		.cfi_restore_state
 968:../Backend/gnu-efi-3.0.9/lib/dpath.c ****     } else if ( Proto == 17 ) {
 1057              		.loc 1 968 9 is_stmt 1 view .LVU192
 1058 03b4 488D3500 		leaq	.LC27(%rip), %rsi
 1058      000000
 1059              	.LVL81:
 968:../Backend/gnu-efi-3.0.9/lib/dpath.c ****     } else if ( Proto == 17 ) {
 1060              		.loc 1 968 9 is_stmt 0 view .LVU193
 1061 03bb B8000000 		movl	$0, %eax
 1061      00
 1062 03c0 E8000000 		call	CatPrint
 1062      00
 1063              	.LVL82:
 968:../Backend/gnu-efi-3.0.9/lib/dpath.c ****     } else if ( Proto == 17 ) {
 1064              		.loc 1 968 9 view .LVU194
 1065 03c5 EBE8     		jmp	.L56
 1066              	.LVL83:
 1067              	.L62:
 970:../Backend/gnu-efi-3.0.9/lib/dpath.c ****     } else {
 1068              		.loc 1 970 9 is_stmt 1 view .LVU195
 1069 03c7 488D3500 		leaq	.LC28(%rip), %rsi
 1069      000000
 1070              	.LVL84:
 970:../Backend/gnu-efi-3.0.9/lib/dpath.c ****     } else {
 1071              		.loc 1 970 9 is_stmt 0 view .LVU196
 1072 03ce B8000000 		movl	$0, %eax
 1072      00
 1073 03d3 E8000000 		call	CatPrint
 1073      00
 1074              	.LVL85:
 970:../Backend/gnu-efi-3.0.9/lib/dpath.c ****     } else {
 1075              		.loc 1 970 9 view .LVU197
 1076 03d8 EBD5     		jmp	.L56
 1077              		.cfi_endproc
 1078              	.LFE28:
 1080              		.section	.rodata
 1081 026c 00000000 		.align 8
 1082              	.LC29:
 1083 0270 2500     		.string	"%"
 1084 0272 7800     		.string	"x"
 1085 0274 3A00     		.string	":"
 1086 0276 2500     		.string	"%"
 1087 0278 7800     		.string	"x"
 1088 027a 3A00     		.string	":"
 1089 027c 2500     		.string	"%"
 1090 027e 7800     		.string	"x"
 1091 0280 3A00     		.string	":"
 1092 0282 2500     		.string	"%"
 1093 0284 7800     		.string	"x"
 1094 0286 3A00     		.string	":"
 1095 0288 2500     		.string	"%"
 1096 028a 7800     		.string	"x"
 1097 028c 3A00     		.string	":"
 1098 028e 2500     		.string	"%"
 1099 0290 7800     		.string	"x"
 1100 0292 3A00     		.string	":"
 1101 0294 2500     		.string	"%"
 1102 0296 7800     		.string	"x"
 1103 0298 3A00     		.string	":"
 1104 029a 2500     		.string	"%"
 1105 029c 7800     		.string	"x"
 1106 029e 00       		.string	""
 1107 029f 00       		.string	""
 1108              		.text
 1110              	CatPrintIPv6:
 1111              	.LVL86:
 1112              	.LFB30:
1023:../Backend/gnu-efi-3.0.9/lib/dpath.c ****     CatPrint( Str , L"%x:%x:%x:%x:%x:%x:%x:%x" ,
 1113              		.loc 1 1023 1 is_stmt 1 view -0
 1114              		.cfi_startproc
1023:../Backend/gnu-efi-3.0.9/lib/dpath.c ****     CatPrint( Str , L"%x:%x:%x:%x:%x:%x:%x:%x" ,
 1115              		.loc 1 1023 1 is_stmt 0 view .LVU199
 1116 03da 4157     		pushq	%r15
 1117              		.cfi_def_cfa_offset 16
 1118              		.cfi_offset 15, -16
 1119 03dc 4156     		pushq	%r14
 1120              		.cfi_def_cfa_offset 24
 1121              		.cfi_offset 14, -24
 1122 03de 4155     		pushq	%r13
 1123              		.cfi_def_cfa_offset 32
 1124              		.cfi_offset 13, -32
 1125 03e0 4154     		pushq	%r12
 1126              		.cfi_def_cfa_offset 40
 1127              		.cfi_offset 12, -40
 1128 03e2 55       		pushq	%rbp
 1129              		.cfi_def_cfa_offset 48
 1130              		.cfi_offset 6, -48
 1131 03e3 53       		pushq	%rbx
 1132              		.cfi_def_cfa_offset 56
 1133              		.cfi_offset 3, -56
 1134 03e4 4883EC38 		subq	$56, %rsp
 1135              		.cfi_def_cfa_offset 112
 1136 03e8 48897C24 		movq	%rdi, 40(%rsp)
 1136      28
 1137 03ed 4989F6   		movq	%rsi, %r14
1024:../Backend/gnu-efi-3.0.9/lib/dpath.c ****         CatPrintIPv6_ADD( Address-> Addr[ 0 ] , Address-> Addr[ 1 ] ) ,
 1138              		.loc 1 1024 5 is_stmt 1 view .LVU200
1032:../Backend/gnu-efi-3.0.9/lib/dpath.c **** }
 1139              		.loc 1 1032 9 is_stmt 0 view .LVU201
 1140 03f0 0FB6760E 		movzbl	14(%rsi), %esi
 1141              	.LVL87:
1032:../Backend/gnu-efi-3.0.9/lib/dpath.c **** }
 1142              		.loc 1 1032 9 view .LVU202
 1143 03f4 C1E608   		sall	$8, %esi
 1144 03f7 450FB66E 		movzbl	15(%r14), %r13d
 1144      0F
1031:../Backend/gnu-efi-3.0.9/lib/dpath.c ****         CatPrintIPv6_ADD( Address-> Addr[ 14 ] , Address-> Addr[ 15 ] ) ) ;
 1145              		.loc 1 1031 9 view .LVU203
 1146 03fc 410FB64E 		movzbl	12(%r14), %ecx
 1146      0C
 1147 0401 C1E108   		sall	$8, %ecx
 1148 0404 450FB666 		movzbl	13(%r14), %r12d
 1148      0D
1030:../Backend/gnu-efi-3.0.9/lib/dpath.c ****         CatPrintIPv6_ADD( Address-> Addr[ 12 ] , Address-> Addr[ 13 ] ) ,
 1149              		.loc 1 1030 9 view .LVU204
 1150 0409 410FB646 		movzbl	10(%r14), %eax
 1150      0A
 1151 040e C1E008   		sall	$8, %eax
 1152 0411 410FB66E 		movzbl	11(%r14), %ebp
 1152      0B
1029:../Backend/gnu-efi-3.0.9/lib/dpath.c ****         CatPrintIPv6_ADD( Address-> Addr[ 10 ] , Address-> Addr[ 11 ] ) ,
 1153              		.loc 1 1029 9 view .LVU205
 1154 0416 410FB656 		movzbl	8(%r14), %edx
 1154      08
 1155 041b C1E208   		sall	$8, %edx
 1156 041e 89542424 		movl	%edx, 36(%rsp)
 1157 0422 410FB65E 		movzbl	9(%r14), %ebx
 1157      09
1028:../Backend/gnu-efi-3.0.9/lib/dpath.c ****         CatPrintIPv6_ADD( Address-> Addr[ 8 ] , Address-> Addr[ 9 ] ) ,
 1158              		.loc 1 1028 9 view .LVU206
 1159 0427 450FB64E 		movzbl	6(%r14), %r9d
 1159      06
 1160 042c 41C1E108 		sall	$8, %r9d
 1161 0430 450FB65E 		movzbl	7(%r14), %r11d
 1161      07
1027:../Backend/gnu-efi-3.0.9/lib/dpath.c ****         CatPrintIPv6_ADD( Address-> Addr[ 6 ] , Address-> Addr[ 7 ] ) ,
 1162              		.loc 1 1027 9 view .LVU207
 1163 0435 450FB646 		movzbl	4(%r14), %r8d
 1163      04
 1164 043a 41C1E008 		sall	$8, %r8d
 1165 043e 450FB656 		movzbl	5(%r14), %r10d
 1165      05
1026:../Backend/gnu-efi-3.0.9/lib/dpath.c ****         CatPrintIPv6_ADD( Address-> Addr[ 4 ] , Address-> Addr[ 5 ] ) ,
 1166              		.loc 1 1026 9 view .LVU208
 1167 0443 410FB67E 		movzbl	2(%r14), %edi
 1167      02
 1168              	.LVL88:
1026:../Backend/gnu-efi-3.0.9/lib/dpath.c ****         CatPrintIPv6_ADD( Address-> Addr[ 4 ] , Address-> Addr[ 5 ] ) ,
 1169              		.loc 1 1026 9 view .LVU209
 1170 0448 C1E708   		sall	$8, %edi
 1171 044b 450FB67E 		movzbl	3(%r14), %r15d
 1171      03
1025:../Backend/gnu-efi-3.0.9/lib/dpath.c ****         CatPrintIPv6_ADD( Address-> Addr[ 2 ] , Address-> Addr[ 3 ] ) ,
 1172              		.loc 1 1025 9 view .LVU210
 1173 0450 410FB616 		movzbl	(%r14), %edx
 1174 0454 C1E208   		sall	$8, %edx
 1175 0457 450FB676 		movzbl	1(%r14), %r14d
 1175      01
 1176              	.LVL89:
1024:../Backend/gnu-efi-3.0.9/lib/dpath.c ****         CatPrintIPv6_ADD( Address-> Addr[ 0 ] , Address-> Addr[ 1 ] ) ,
 1177              		.loc 1 1024 5 view .LVU211
 1178 045c 4409FF   		orl	%r15d, %edi
 1179 045f 4409F2   		orl	%r14d, %edx
 1180 0462 4409EE   		orl	%r13d, %esi
 1181 0465 89742418 		movl	%esi, 24(%rsp)
 1182 0469 4409E1   		orl	%r12d, %ecx
 1183 046c 894C2410 		movl	%ecx, 16(%rsp)
 1184 0470 09E8     		orl	%ebp, %eax
 1185 0472 89442408 		movl	%eax, 8(%rsp)
 1186 0476 8B442424 		movl	36(%rsp), %eax
 1187 047a 09D8     		orl	%ebx, %eax
 1188 047c 890424   		movl	%eax, (%rsp)
 1189 047f 4509D9   		orl	%r11d, %r9d
 1190 0482 4509D0   		orl	%r10d, %r8d
 1191 0485 89F9     		movl	%edi, %ecx
 1192 0487 488D3500 		leaq	.LC29(%rip), %rsi
 1192      000000
 1193 048e 488B7C24 		movq	40(%rsp), %rdi
 1193      28
 1194 0493 B8000000 		movl	$0, %eax
 1194      00
 1195 0498 E8000000 		call	CatPrint
 1195      00
 1196              	.LVL90:
1033:../Backend/gnu-efi-3.0.9/lib/dpath.c **** 
 1197              		.loc 1 1033 1 view .LVU212
 1198 049d 4883C438 		addq	$56, %rsp
 1199              		.cfi_def_cfa_offset 56
 1200 04a1 5B       		popq	%rbx
 1201              		.cfi_restore 3
 1202              		.cfi_def_cfa_offset 48
 1203 04a2 5D       		popq	%rbp
 1204              		.cfi_restore 6
 1205              		.cfi_def_cfa_offset 40
 1206 04a3 415C     		popq	%r12
 1207              		.cfi_restore 12
 1208              		.cfi_def_cfa_offset 32
 1209 04a5 415D     		popq	%r13
 1210              		.cfi_restore 13
 1211              		.cfi_def_cfa_offset 24
 1212 04a7 415E     		popq	%r14
 1213              		.cfi_restore 14
 1214              		.cfi_def_cfa_offset 16
 1215 04a9 415F     		popq	%r15
 1216              		.cfi_restore 15
 1217              		.cfi_def_cfa_offset 8
 1218 04ab C3       		ret
 1219              		.cfi_endproc
 1220              	.LFE30:
 1222              		.section	.rodata
 1223              		.align 8
 1224              	.LC30:
 1225 02a0 5300     		.string	"S"
 1226 02a2 7400     		.string	"t"
 1227 02a4 6100     		.string	"a"
 1228 02a6 7400     		.string	"t"
 1229 02a8 6500     		.string	"e"
 1230 02aa 6600     		.string	"f"
 1231 02ac 7500     		.string	"u"
 1232 02ae 6C00     		.string	"l"
 1233 02b0 4100     		.string	"A"
 1234 02b2 7500     		.string	"u"
 1235 02b4 7400     		.string	"t"
 1236 02b6 6F00     		.string	"o"
 1237 02b8 4300     		.string	"C"
 1238 02ba 6F00     		.string	"o"
 1239 02bc 6E00     		.string	"n"
 1240 02be 6600     		.string	"f"
 1241 02c0 6900     		.string	"i"
 1242 02c2 6700     		.string	"g"
 1243 02c4 7500     		.string	"u"
 1244 02c6 7200     		.string	"r"
 1245 02c8 6500     		.string	"e"
 1246 02ca 00       		.string	""
 1247 02cb 00       		.string	""
 1248              		.align 2
 1249              	.LC31:
 1250 02cc 5300     		.string	"S"
 1251 02ce 7400     		.string	"t"
 1252 02d0 6100     		.string	"a"
 1253 02d2 7400     		.string	"t"
 1254 02d4 6900     		.string	"i"
 1255 02d6 6300     		.string	"c"
 1256 02d8 00       		.string	""
 1257 02d9 00       		.string	""
 1258 02da 00000000 		.align 8
 1258      0000
 1259              	.LC32:
 1260 02e0 5300     		.string	"S"
 1261 02e2 7400     		.string	"t"
 1262 02e4 6100     		.string	"a"
 1263 02e6 7400     		.string	"t"
 1264 02e8 6500     		.string	"e"
 1265 02ea 6C00     		.string	"l"
 1266 02ec 6500     		.string	"e"
 1267 02ee 7300     		.string	"s"
 1268 02f0 7300     		.string	"s"
 1269 02f2 4100     		.string	"A"
 1270 02f4 7500     		.string	"u"
 1271 02f6 7400     		.string	"t"
 1272 02f8 6F00     		.string	"o"
 1273 02fa 4300     		.string	"C"
 1274 02fc 6F00     		.string	"o"
 1275 02fe 6E00     		.string	"n"
 1276 0300 6600     		.string	"f"
 1277 0302 6900     		.string	"i"
 1278 0304 6700     		.string	"g"
 1279 0306 7500     		.string	"u"
 1280 0308 7200     		.string	"r"
 1281 030a 6500     		.string	"e"
 1282 030c 00       		.string	""
 1283 030d 00       		.string	""
 1284              		.align 2
 1285              	.LC33:
 1286 030e 4900     		.string	"I"
 1287 0310 5000     		.string	"P"
 1288 0312 7600     		.string	"v"
 1289 0314 3600     		.string	"6"
 1290 0316 2800     		.string	"("
 1291 0318 00       		.string	""
 1292 0319 00       		.string	""
 1293              		.align 2
 1294              	.LC34:
 1295 031a 2C00     		.string	","
 1296 031c 2500     		.string	"%"
 1297 031e 7300     		.string	"s"
 1298 0320 2C00     		.string	","
 1299 0322 00       		.string	""
 1300 0323 00       		.string	""
 1301              		.align 2
 1302              	.LC35:
 1303 0324 2900     		.string	")"
 1304 0326 00       		.string	""
 1305 0327 00       		.string	""
 1306              		.text
 1308              	_DevPathIPv6:
 1309              	.LVL91:
 1310              	.LFB31:
1040:../Backend/gnu-efi-3.0.9/lib/dpath.c ****     IPv6_DEVICE_PATH     *IP;
 1311              		.loc 1 1040 1 is_stmt 1 view -0
 1312              		.cfi_startproc
1040:../Backend/gnu-efi-3.0.9/lib/dpath.c ****     IPv6_DEVICE_PATH     *IP;
 1313              		.loc 1 1040 1 is_stmt 0 view .LVU214
 1314 04ac F30F1EFA 		endbr64
 1315 04b0 4154     		pushq	%r12
 1316              		.cfi_def_cfa_offset 16
 1317              		.cfi_offset 12, -16
 1318 04b2 55       		pushq	%rbp
 1319              		.cfi_def_cfa_offset 24
 1320              		.cfi_offset 6, -24
 1321 04b3 53       		pushq	%rbx
 1322              		.cfi_def_cfa_offset 32
 1323              		.cfi_offset 3, -32
 1324 04b4 4889FB   		movq	%rdi, %rbx
 1325 04b7 4889F5   		movq	%rsi, %rbp
1041:../Backend/gnu-efi-3.0.9/lib/dpath.c **** 
 1326              		.loc 1 1041 5 is_stmt 1 view .LVU215
1043:../Backend/gnu-efi-3.0.9/lib/dpath.c ****     CatPrint( Str , L"IPv6(") ;
 1327              		.loc 1 1043 5 view .LVU216
 1328              	.LVL92:
1044:../Backend/gnu-efi-3.0.9/lib/dpath.c ****     CatPrintIPv6( Str , & IP-> RemoteIpAddress ) ;
 1329              		.loc 1 1044 5 view .LVU217
 1330 04ba 488D3500 		leaq	.LC33(%rip), %rsi
 1330      000000
 1331              	.LVL93:
1044:../Backend/gnu-efi-3.0.9/lib/dpath.c ****     CatPrintIPv6( Str , & IP-> RemoteIpAddress ) ;
 1332              		.loc 1 1044 5 is_stmt 0 view .LVU218
 1333 04c1 B8000000 		movl	$0, %eax
 1333      00
 1334 04c6 E8000000 		call	CatPrint
 1334      00
 1335              	.LVL94:
1045:../Backend/gnu-efi-3.0.9/lib/dpath.c ****     CatPrint( Str , L",") ;
 1336              		.loc 1 1045 5 is_stmt 1 view .LVU219
 1337 04cb 488D7514 		leaq	20(%rbp), %rsi
 1338 04cf 4889DF   		movq	%rbx, %rdi
 1339 04d2 E803FFFF 		call	CatPrintIPv6
 1339      FF
 1340              	.LVL95:
1046:../Backend/gnu-efi-3.0.9/lib/dpath.c ****     CatPrintNetworkProtocol( Str, IP-> Protocol ) ;
 1341              		.loc 1 1046 5 view .LVU220
 1342 04d7 488D3500 		leaq	.LC0(%rip), %rsi
 1342      000000
 1343 04de 4889DF   		movq	%rbx, %rdi
 1344 04e1 B8000000 		movl	$0, %eax
 1344      00
 1345 04e6 E8000000 		call	CatPrint
 1345      00
 1346              	.LVL96:
1047:../Backend/gnu-efi-3.0.9/lib/dpath.c ****     CatPrint( Str , L",%s," , IP-> IPAddressOrigin ?
 1347              		.loc 1 1047 5 view .LVU221
 1348 04eb 0FB77528 		movzwl	40(%rbp), %esi
 1349 04ef 4889DF   		movq	%rbx, %rdi
 1350 04f2 E894FEFF 		call	CatPrintNetworkProtocol
 1350      FF
 1351              	.LVL97:
1048:../Backend/gnu-efi-3.0.9/lib/dpath.c ****         ( IP-> IPAddressOrigin == 1 ? L"StatelessAutoConfigure" :
 1352              		.loc 1 1048 5 view .LVU222
1048:../Backend/gnu-efi-3.0.9/lib/dpath.c ****         ( IP-> IPAddressOrigin == 1 ? L"StatelessAutoConfigure" :
 1353              		.loc 1 1048 33 is_stmt 0 view .LVU223
 1354 04f7 0FB6452A 		movzbl	42(%rbp), %eax
1048:../Backend/gnu-efi-3.0.9/lib/dpath.c ****         ( IP-> IPAddressOrigin == 1 ? L"StatelessAutoConfigure" :
 1355              		.loc 1 1048 5 view .LVU224
 1356 04fb 84C0     		testb	%al, %al
 1357 04fd 7416     		je	.L68
1049:../Backend/gnu-efi-3.0.9/lib/dpath.c ****         L"StatefulAutoConfigure" ) : L"Static" ) ;
 1358              		.loc 1 1049 65 view .LVU225
 1359 04ff 3C01     		cmpb	$1, %al
 1360 0501 7409     		je	.L71
1049:../Backend/gnu-efi-3.0.9/lib/dpath.c ****         L"StatefulAutoConfigure" ) : L"Static" ) ;
 1361              		.loc 1 1049 65 discriminator 2 view .LVU226
 1362 0503 488D1500 		leaq	.LC30(%rip), %rdx
 1362      000000
 1363 050a EB10     		jmp	.L66
 1364              	.L71:
1049:../Backend/gnu-efi-3.0.9/lib/dpath.c ****         L"StatefulAutoConfigure" ) : L"Static" ) ;
 1365              		.loc 1 1049 65 discriminator 1 view .LVU227
 1366 050c 488D1500 		leaq	.LC32(%rip), %rdx
 1366      000000
 1367 0513 EB07     		jmp	.L66
 1368              	.L68:
1048:../Backend/gnu-efi-3.0.9/lib/dpath.c ****         ( IP-> IPAddressOrigin == 1 ? L"StatelessAutoConfigure" :
 1369              		.loc 1 1048 5 discriminator 1 view .LVU228
 1370 0515 488D1500 		leaq	.LC31(%rip), %rdx
 1370      000000
 1371              	.L66:
1048:../Backend/gnu-efi-3.0.9/lib/dpath.c ****         ( IP-> IPAddressOrigin == 1 ? L"StatelessAutoConfigure" :
 1372              		.loc 1 1048 5 discriminator 3 view .LVU229
 1373 051c 488D3500 		leaq	.LC34(%rip), %rsi
 1373      000000
 1374 0523 4889DF   		movq	%rbx, %rdi
 1375 0526 B8000000 		movl	$0, %eax
 1375      00
 1376 052b E8000000 		call	CatPrint
 1376      00
 1377              	.LVL98:
1051:../Backend/gnu-efi-3.0.9/lib/dpath.c ****     if ( DevicePathNodeLength( & IP-> Header ) == sizeof( IPv6_DEVICE_PATH ) ) {
 1378              		.loc 1 1051 5 is_stmt 1 view .LVU230
 1379 0530 488D7504 		leaq	4(%rbp), %rsi
 1380 0534 4889DF   		movq	%rbx, %rdi
 1381 0537 E89EFEFF 		call	CatPrintIPv6
 1381      FF
 1382              	.LVL99:
1052:../Backend/gnu-efi-3.0.9/lib/dpath.c ****         CatPrint( Str , L",") ;
 1383              		.loc 1 1052 5 view .LVU231
1052:../Backend/gnu-efi-3.0.9/lib/dpath.c ****         CatPrint( Str , L",") ;
 1384              		.loc 1 1052 10 is_stmt 0 view .LVU232
 1385 053c 0FB64502 		movzbl	2(%rbp), %eax
 1386 0540 0FB65503 		movzbl	3(%rbp), %edx
 1387 0544 C1E208   		sall	$8, %edx
 1388 0547 09D0     		orl	%edx, %eax
1052:../Backend/gnu-efi-3.0.9/lib/dpath.c ****         CatPrint( Str , L",") ;
 1389              		.loc 1 1052 8 view .LVU233
 1390 0549 83F83C   		cmpl	$60, %eax
 1391 054c 7419     		je	.L72
 1392              	.L67:
1058:../Backend/gnu-efi-3.0.9/lib/dpath.c **** }
 1393              		.loc 1 1058 5 is_stmt 1 view .LVU234
 1394 054e 488D3500 		leaq	.LC35(%rip), %rsi
 1394      000000
 1395 0555 4889DF   		movq	%rbx, %rdi
 1396 0558 B8000000 		movl	$0, %eax
 1396      00
 1397 055d E8000000 		call	CatPrint
 1397      00
 1398              	.LVL100:
1059:../Backend/gnu-efi-3.0.9/lib/dpath.c **** 
 1399              		.loc 1 1059 1 is_stmt 0 view .LVU235
 1400 0562 5B       		popq	%rbx
 1401              		.cfi_remember_state
 1402              		.cfi_restore 3
 1403              		.cfi_def_cfa_offset 24
 1404              	.LVL101:
1059:../Backend/gnu-efi-3.0.9/lib/dpath.c **** 
 1405              		.loc 1 1059 1 view .LVU236
 1406 0563 5D       		popq	%rbp
 1407              		.cfi_restore 6
 1408              		.cfi_def_cfa_offset 16
 1409              	.LVL102:
1059:../Backend/gnu-efi-3.0.9/lib/dpath.c **** 
 1410              		.loc 1 1059 1 view .LVU237
 1411 0564 415C     		popq	%r12
 1412              		.cfi_restore 12
 1413              		.cfi_def_cfa_offset 8
 1414 0566 C3       		ret
 1415              	.LVL103:
 1416              	.L72:
 1417              		.cfi_restore_state
1053:../Backend/gnu-efi-3.0.9/lib/dpath.c ****         CatPrintIPv6( Str , & IP-> GatewayIpAddress ) ;
 1418              		.loc 1 1053 9 is_stmt 1 view .LVU238
 1419 0567 4C8D2500 		leaq	.LC0(%rip), %r12
 1419      000000
 1420 056e 4C89E6   		movq	%r12, %rsi
 1421 0571 4889DF   		movq	%rbx, %rdi
 1422 0574 B8000000 		movl	$0, %eax
 1422      00
 1423 0579 E8000000 		call	CatPrint
 1423      00
 1424              	.LVL104:
1054:../Backend/gnu-efi-3.0.9/lib/dpath.c ****         CatPrint( Str , L",") ;
 1425              		.loc 1 1054 9 view .LVU239
 1426 057e 488D752C 		leaq	44(%rbp), %rsi
 1427 0582 4889DF   		movq	%rbx, %rdi
 1428 0585 E850FEFF 		call	CatPrintIPv6
 1428      FF
 1429              	.LVL105:
1055:../Backend/gnu-efi-3.0.9/lib/dpath.c ****         CatPrint( Str , L"%d" , & IP-> PrefixLength ) ;
 1430              		.loc 1 1055 9 view .LVU240
 1431 058a 4C89E6   		movq	%r12, %rsi
 1432 058d 4889DF   		movq	%rbx, %rdi
 1433 0590 B8000000 		movl	$0, %eax
 1433      00
 1434 0595 E8000000 		call	CatPrint
 1434      00
 1435              	.LVL106:
1056:../Backend/gnu-efi-3.0.9/lib/dpath.c ****     }
 1436              		.loc 1 1056 9 view .LVU241
 1437 059a 488D552B 		leaq	43(%rbp), %rdx
 1438 059e 488D3500 		leaq	.LC19(%rip), %rsi
 1438      000000
 1439 05a5 4889DF   		movq	%rbx, %rdi
 1440 05a8 B8000000 		movl	$0, %eax
 1440      00
 1441 05ad E8000000 		call	CatPrint
 1441      00
 1442              	.LVL107:
 1443 05b2 EB9A     		jmp	.L67
 1444              		.cfi_endproc
 1445              	.LFE31:
 1447              		.section	.rodata
 1448              		.align 2
 1449              	.LC36:
 1450 0328 2500     		.string	"%"
 1451 032a 6400     		.string	"d"
 1452 032c 2E00     		.string	"."
 1453 032e 2500     		.string	"%"
 1454 0330 6400     		.string	"d"
 1455 0332 2E00     		.string	"."
 1456 0334 2500     		.string	"%"
 1457 0336 6400     		.string	"d"
 1458 0338 2E00     		.string	"."
 1459 033a 2500     		.string	"%"
 1460 033c 6400     		.string	"d"
 1461 033e 00       		.string	""
 1462 033f 00       		.string	""
 1463              		.text
 1465              	CatPrintIPv4:
 1466              	.LVL108:
 1467              	.LFB26:
 945:../Backend/gnu-efi-3.0.9/lib/dpath.c ****     CatPrint( Str , L"%d.%d.%d.%d" , Address-> Addr[ 0 ] , Address-> Addr[ 1 ] ,
 1468              		.loc 1 945 1 view -0
 1469              		.cfi_startproc
 945:../Backend/gnu-efi-3.0.9/lib/dpath.c ****     CatPrint( Str , L"%d.%d.%d.%d" , Address-> Addr[ 0 ] , Address-> Addr[ 1 ] ,
 1470              		.loc 1 945 1 is_stmt 0 view .LVU243
 1471 05b4 4883EC08 		subq	$8, %rsp
 1472              		.cfi_def_cfa_offset 16
 946:../Backend/gnu-efi-3.0.9/lib/dpath.c ****         Address-> Addr[ 2 ] , Address-> Addr[ 3 ] ) ;
 1473              		.loc 1 946 5 is_stmt 1 view .LVU244
 1474 05b8 0FB64E01 		movzbl	1(%rsi), %ecx
 1475 05bc 0FB616   		movzbl	(%rsi), %edx
 1476 05bf 440FB64E 		movzbl	3(%rsi), %r9d
 1476      03
 1477 05c4 440FB646 		movzbl	2(%rsi), %r8d
 1477      02
 1478 05c9 488D3500 		leaq	.LC36(%rip), %rsi
 1478      000000
 1479              	.LVL109:
 946:../Backend/gnu-efi-3.0.9/lib/dpath.c ****         Address-> Addr[ 2 ] , Address-> Addr[ 3 ] ) ;
 1480              		.loc 1 946 5 is_stmt 0 view .LVU245
 1481 05d0 B8000000 		movl	$0, %eax
 1481      00
 1482 05d5 E8000000 		call	CatPrint
 1482      00
 1483              	.LVL110:
 948:../Backend/gnu-efi-3.0.9/lib/dpath.c **** 
 1484              		.loc 1 948 1 view .LVU246
 1485 05da 4883C408 		addq	$8, %rsp
 1486              		.cfi_def_cfa_offset 8
 1487 05de C3       		ret
 1488              		.cfi_endproc
 1489              	.LFE26:
 1491              		.section	.rodata
 1492              		.align 2
 1493              	.LC37:
 1494 0340 4400     		.string	"D"
 1495 0342 4800     		.string	"H"
 1496 0344 4300     		.string	"C"
 1497 0346 5000     		.string	"P"
 1498 0348 00       		.string	""
 1499 0349 00       		.string	""
 1500              		.align 2
 1501              	.LC38:
 1502 034a 4900     		.string	"I"
 1503 034c 5000     		.string	"P"
 1504 034e 7600     		.string	"v"
 1505 0350 3400     		.string	"4"
 1506 0352 2800     		.string	"("
 1507 0354 00       		.string	""
 1508 0355 00       		.string	""
 1509              		.align 2
 1510              	.LC39:
 1511 0356 2C00     		.string	","
 1512 0358 2500     		.string	"%"
 1513 035a 7300     		.string	"s"
 1514 035c 00       		.string	""
 1515 035d 00       		.string	""
 1516              		.text
 1518              	_DevPathIPv4:
 1519              	.LVL111:
 1520              	.LFB29:
 981:../Backend/gnu-efi-3.0.9/lib/dpath.c ****     IPv4_DEVICE_PATH     *IP;
 1521              		.loc 1 981 1 is_stmt 1 view -0
 1522              		.cfi_startproc
 981:../Backend/gnu-efi-3.0.9/lib/dpath.c ****     IPv4_DEVICE_PATH     *IP;
 1523              		.loc 1 981 1 is_stmt 0 view .LVU248
 1524 05df F30F1EFA 		endbr64
 1525 05e3 4156     		pushq	%r14
 1526              		.cfi_def_cfa_offset 16
 1527              		.cfi_offset 14, -16
 1528 05e5 4155     		pushq	%r13
 1529              		.cfi_def_cfa_offset 24
 1530              		.cfi_offset 13, -24
 1531 05e7 4154     		pushq	%r12
 1532              		.cfi_def_cfa_offset 32
 1533              		.cfi_offset 12, -32
 1534 05e9 55       		pushq	%rbp
 1535              		.cfi_def_cfa_offset 40
 1536              		.cfi_offset 6, -40
 1537 05ea 53       		pushq	%rbx
 1538              		.cfi_def_cfa_offset 48
 1539              		.cfi_offset 3, -48
 1540 05eb 4889FD   		movq	%rdi, %rbp
 1541 05ee 4889F3   		movq	%rsi, %rbx
 982:../Backend/gnu-efi-3.0.9/lib/dpath.c ****     BOOLEAN show ;
 1542              		.loc 1 982 5 is_stmt 1 view .LVU249
 983:../Backend/gnu-efi-3.0.9/lib/dpath.c **** 
 1543              		.loc 1 983 5 view .LVU250
 985:../Backend/gnu-efi-3.0.9/lib/dpath.c ****     CatPrint( Str , L"IPv4(") ;
 1544              		.loc 1 985 5 view .LVU251
 1545              	.LVL112:
 986:../Backend/gnu-efi-3.0.9/lib/dpath.c ****     CatPrintIPv4( Str , & IP-> RemoteIpAddress ) ;
 1546              		.loc 1 986 5 view .LVU252
 1547 05f1 488D3500 		leaq	.LC38(%rip), %rsi
 1547      000000
 1548              	.LVL113:
 986:../Backend/gnu-efi-3.0.9/lib/dpath.c ****     CatPrintIPv4( Str , & IP-> RemoteIpAddress ) ;
 1549              		.loc 1 986 5 is_stmt 0 view .LVU253
 1550 05f8 B8000000 		movl	$0, %eax
 1550      00
 1551 05fd E8000000 		call	CatPrint
 1551      00
 1552              	.LVL114:
 987:../Backend/gnu-efi-3.0.9/lib/dpath.c ****     CatPrint( Str , L",") ;
 1553              		.loc 1 987 5 is_stmt 1 view .LVU254
 1554 0602 488D7308 		leaq	8(%rbx), %rsi
 1555 0606 4889EF   		movq	%rbp, %rdi
 1556 0609 E8A6FFFF 		call	CatPrintIPv4
 1556      FF
 1557              	.LVL115:
 988:../Backend/gnu-efi-3.0.9/lib/dpath.c ****     CatPrintNetworkProtocol( Str , IP-> Protocol ) ;
 1558              		.loc 1 988 5 view .LVU255
 1559 060e 488D3500 		leaq	.LC0(%rip), %rsi
 1559      000000
 1560 0615 4889EF   		movq	%rbp, %rdi
 1561 0618 B8000000 		movl	$0, %eax
 1561      00
 1562 061d E8000000 		call	CatPrint
 1562      00
 1563              	.LVL116:
 989:../Backend/gnu-efi-3.0.9/lib/dpath.c ****     CatPrint( Str , L",%s" , IP-> StaticIpAddress ? L"Static" : L"DHCP" ) ;
 1564              		.loc 1 989 5 view .LVU256
 1565 0622 0FB77310 		movzwl	16(%rbx), %esi
 1566 0626 4889EF   		movq	%rbp, %rdi
 1567 0629 E85DFDFF 		call	CatPrintNetworkProtocol
 1567      FF
 1568              	.LVL117:
 990:../Backend/gnu-efi-3.0.9/lib/dpath.c ****     show = IsNotNullIPv4( & IP-> LocalIpAddress ) ;
 1569              		.loc 1 990 5 view .LVU257
 1570 062e 807B1200 		cmpb	$0, 18(%rbx)
 1571 0632 0F849300 		je	.L80
 1571      0000
 990:../Backend/gnu-efi-3.0.9/lib/dpath.c ****     show = IsNotNullIPv4( & IP-> LocalIpAddress ) ;
 1572              		.loc 1 990 5 is_stmt 0 discriminator 1 view .LVU258
 1573 0638 488D1500 		leaq	.LC31(%rip), %rdx
 1573      000000
 1574              	.L76:
 990:../Backend/gnu-efi-3.0.9/lib/dpath.c ****     show = IsNotNullIPv4( & IP-> LocalIpAddress ) ;
 1575              		.loc 1 990 5 discriminator 4 view .LVU259
 1576 063f 488D3500 		leaq	.LC39(%rip), %rsi
 1576      000000
 1577 0646 4889EF   		movq	%rbp, %rdi
 1578 0649 B8000000 		movl	$0, %eax
 1578      00
 1579 064e E8000000 		call	CatPrint
 1579      00
 1580              	.LVL118:
 991:../Backend/gnu-efi-3.0.9/lib/dpath.c ****     if ( ! show && DevicePathNodeLength( & IP-> Header ) == sizeof( IPv4_DEVICE_PATH ) ) {
 1581              		.loc 1 991 5 is_stmt 1 view .LVU260
 991:../Backend/gnu-efi-3.0.9/lib/dpath.c ****     if ( ! show && DevicePathNodeLength( & IP-> Header ) == sizeof( IPv4_DEVICE_PATH ) ) {
 1582              		.loc 1 991 12 is_stmt 0 view .LVU261
 1583 0653 4C8D6B04 		leaq	4(%rbx), %r13
 1584 0657 4C89EF   		movq	%r13, %rdi
 1585 065a E8A1F9FF 		call	IsNotNullIPv4
 1585      FF
 1586              	.LVL119:
 1587 065f 4189C6   		movl	%eax, %r14d
 1588              	.LVL120:
 992:../Backend/gnu-efi-3.0.9/lib/dpath.c ****         /* only version 2 includes gateway and netmask */
 1589              		.loc 1 992 5 is_stmt 1 view .LVU262
 992:../Backend/gnu-efi-3.0.9/lib/dpath.c ****         /* only version 2 includes gateway and netmask */
 1590              		.loc 1 992 8 is_stmt 0 view .LVU263
 1591 0662 84C0     		testb	%al, %al
 1592 0664 7517     		jne	.L77
 992:../Backend/gnu-efi-3.0.9/lib/dpath.c ****         /* only version 2 includes gateway and netmask */
 1593              		.loc 1 992 20 discriminator 1 view .LVU264
 1594 0666 0FB64302 		movzbl	2(%rbx), %eax
 1595              	.LVL121:
 992:../Backend/gnu-efi-3.0.9/lib/dpath.c ****         /* only version 2 includes gateway and netmask */
 1596              		.loc 1 992 20 discriminator 1 view .LVU265
 1597 066a 0FB65303 		movzbl	3(%rbx), %edx
 1598 066e C1E208   		sall	$8, %edx
 1599 0671 09D0     		orl	%edx, %eax
 992:../Backend/gnu-efi-3.0.9/lib/dpath.c ****         /* only version 2 includes gateway and netmask */
 1600              		.loc 1 992 17 discriminator 1 view .LVU266
 1601 0673 83F81C   		cmpl	$28, %eax
 1602 0676 745F     		je	.L82
 1603              	.L78:
 997:../Backend/gnu-efi-3.0.9/lib/dpath.c ****         CatPrint( Str , L"," ) ;
 1604              		.loc 1 997 5 is_stmt 1 view .LVU267
 997:../Backend/gnu-efi-3.0.9/lib/dpath.c ****         CatPrint( Str , L"," ) ;
 1605              		.loc 1 997 8 is_stmt 0 view .LVU268
 1606 0678 4584F6   		testb	%r14b, %r14b
 1607 067b 7431     		je	.L79
 1608              	.L77:
 1609              	.LVL122:
 998:../Backend/gnu-efi-3.0.9/lib/dpath.c ****         CatPrintIPv4( Str , & IP-> LocalIpAddress ) ;
 1610              		.loc 1 998 9 is_stmt 1 view .LVU269
 1611 067d 488D3500 		leaq	.LC0(%rip), %rsi
 1611      000000
 1612 0684 4889EF   		movq	%rbp, %rdi
 1613 0687 B8000000 		movl	$0, %eax
 1613      00
 1614 068c E8000000 		call	CatPrint
 1614      00
 1615              	.LVL123:
 999:../Backend/gnu-efi-3.0.9/lib/dpath.c ****         if ( DevicePathNodeLength( & IP-> Header ) == sizeof( IPv4_DEVICE_PATH ) ) {
 1616              		.loc 1 999 9 view .LVU270
 1617 0691 4C89EE   		movq	%r13, %rsi
 1618 0694 4889EF   		movq	%rbp, %rdi
 1619 0697 E818FFFF 		call	CatPrintIPv4
 1619      FF
 1620              	.LVL124:
1000:../Backend/gnu-efi-3.0.9/lib/dpath.c ****             /* only version 2 includes gateway and netmask */
 1621              		.loc 1 1000 9 view .LVU271
1000:../Backend/gnu-efi-3.0.9/lib/dpath.c ****             /* only version 2 includes gateway and netmask */
 1622              		.loc 1 1000 14 is_stmt 0 view .LVU272
 1623 069c 0FB64302 		movzbl	2(%rbx), %eax
 1624 06a0 0FB65303 		movzbl	3(%rbx), %edx
 1625 06a4 C1E208   		sall	$8, %edx
 1626 06a7 09D0     		orl	%edx, %eax
1000:../Backend/gnu-efi-3.0.9/lib/dpath.c ****             /* only version 2 includes gateway and netmask */
 1627              		.loc 1 1000 12 view .LVU273
 1628 06a9 83F81C   		cmpl	$28, %eax
 1629 06ac 7443     		je	.L83
 1630              	.LVL125:
 1631              	.L79:
1014:../Backend/gnu-efi-3.0.9/lib/dpath.c **** }
 1632              		.loc 1 1014 5 is_stmt 1 view .LVU274
 1633 06ae 488D3500 		leaq	.LC35(%rip), %rsi
 1633      000000
 1634 06b5 4889EF   		movq	%rbp, %rdi
 1635 06b8 B8000000 		movl	$0, %eax
 1635      00
 1636 06bd E8000000 		call	CatPrint
 1636      00
 1637              	.LVL126:
1015:../Backend/gnu-efi-3.0.9/lib/dpath.c **** 
 1638              		.loc 1 1015 1 is_stmt 0 view .LVU275
 1639 06c2 5B       		popq	%rbx
 1640              		.cfi_remember_state
 1641              		.cfi_restore 3
 1642              		.cfi_def_cfa_offset 40
 1643 06c3 5D       		popq	%rbp
 1644              		.cfi_restore 6
 1645              		.cfi_def_cfa_offset 32
 1646              	.LVL127:
1015:../Backend/gnu-efi-3.0.9/lib/dpath.c **** 
 1647              		.loc 1 1015 1 view .LVU276
 1648 06c4 415C     		popq	%r12
 1649              		.cfi_restore 12
 1650              		.cfi_def_cfa_offset 24
 1651 06c6 415D     		popq	%r13
 1652              		.cfi_restore 13
 1653              		.cfi_def_cfa_offset 16
 1654 06c8 415E     		popq	%r14
 1655              		.cfi_restore 14
 1656              		.cfi_def_cfa_offset 8
 1657 06ca C3       		ret
 1658              	.LVL128:
 1659              	.L80:
 1660              		.cfi_restore_state
 990:../Backend/gnu-efi-3.0.9/lib/dpath.c ****     show = IsNotNullIPv4( & IP-> LocalIpAddress ) ;
 1661              		.loc 1 990 5 discriminator 2 view .LVU277
 1662 06cb 488D1500 		leaq	.LC37(%rip), %rdx
 1662      000000
 1663 06d2 E968FFFF 		jmp	.L76
 1663      FF
 1664              	.LVL129:
 1665              	.L82:
 994:../Backend/gnu-efi-3.0.9/lib/dpath.c ****         show |= IsNotNullIPv4( & IP-> SubnetMask  ) ;
 1666              		.loc 1 994 9 is_stmt 1 view .LVU278
 994:../Backend/gnu-efi-3.0.9/lib/dpath.c ****         show |= IsNotNullIPv4( & IP-> SubnetMask  ) ;
 1667              		.loc 1 994 17 is_stmt 0 view .LVU279
 1668 06d7 488D7B13 		leaq	19(%rbx), %rdi
 1669 06db E820F9FF 		call	IsNotNullIPv4
 1669      FF
 1670              	.LVL130:
 994:../Backend/gnu-efi-3.0.9/lib/dpath.c ****         show |= IsNotNullIPv4( & IP-> SubnetMask  ) ;
 1671              		.loc 1 994 14 discriminator 1 view .LVU280
 1672 06e0 4109C6   		orl	%eax, %r14d
 1673              	.LVL131:
 995:../Backend/gnu-efi-3.0.9/lib/dpath.c ****     }
 1674              		.loc 1 995 9 is_stmt 1 view .LVU281
 995:../Backend/gnu-efi-3.0.9/lib/dpath.c ****     }
 1675              		.loc 1 995 17 is_stmt 0 view .LVU282
 1676 06e3 488D7B17 		leaq	23(%rbx), %rdi
 1677 06e7 E814F9FF 		call	IsNotNullIPv4
 1677      FF
 1678              	.LVL132:
 995:../Backend/gnu-efi-3.0.9/lib/dpath.c ****     }
 1679              		.loc 1 995 14 discriminator 1 view .LVU283
 1680 06ec 4109C6   		orl	%eax, %r14d
 1681              	.LVL133:
 995:../Backend/gnu-efi-3.0.9/lib/dpath.c ****     }
 1682              		.loc 1 995 14 discriminator 1 view .LVU284
 1683 06ef EB87     		jmp	.L78
 1684              	.LVL134:
 1685              	.L83:
1002:../Backend/gnu-efi-3.0.9/lib/dpath.c ****             show |= IsNotNullIPv4( & IP-> SubnetMask ) ;
 1686              		.loc 1 1002 13 is_stmt 1 view .LVU285
1002:../Backend/gnu-efi-3.0.9/lib/dpath.c ****             show |= IsNotNullIPv4( & IP-> SubnetMask ) ;
 1687              		.loc 1 1002 20 is_stmt 0 view .LVU286
 1688 06f1 4C8D6B13 		leaq	19(%rbx), %r13
 1689 06f5 4C89EF   		movq	%r13, %rdi
 1690 06f8 E803F9FF 		call	IsNotNullIPv4
 1690      FF
 1691              	.LVL135:
 1692 06fd 4189C4   		movl	%eax, %r12d
 1693              	.LVL136:
1003:../Backend/gnu-efi-3.0.9/lib/dpath.c ****             if ( show ) {
 1694              		.loc 1 1003 13 is_stmt 1 view .LVU287
1003:../Backend/gnu-efi-3.0.9/lib/dpath.c ****             if ( show ) {
 1695              		.loc 1 1003 21 is_stmt 0 view .LVU288
 1696 0700 4883C317 		addq	$23, %rbx
 1697              	.LVL137:
1003:../Backend/gnu-efi-3.0.9/lib/dpath.c ****             if ( show ) {
 1698              		.loc 1 1003 21 view .LVU289
 1699 0704 4889DF   		movq	%rbx, %rdi
 1700 0707 E8F4F8FF 		call	IsNotNullIPv4
 1700      FF
 1701              	.LVL138:
1004:../Backend/gnu-efi-3.0.9/lib/dpath.c ****                 CatPrint( Str , L",") ;
 1702              		.loc 1 1004 13 is_stmt 1 view .LVU290
1004:../Backend/gnu-efi-3.0.9/lib/dpath.c ****                 CatPrint( Str , L",") ;
 1703              		.loc 1 1004 16 is_stmt 0 view .LVU291
 1704 070c 4108C4   		orb	%al, %r12b
 1705              	.LVL139:
1004:../Backend/gnu-efi-3.0.9/lib/dpath.c ****                 CatPrint( Str , L",") ;
 1706              		.loc 1 1004 16 view .LVU292
 1707 070f 749D     		je	.L79
1005:../Backend/gnu-efi-3.0.9/lib/dpath.c ****                 CatPrintIPv4( Str , & IP-> GatewayIpAddress ) ;
 1708              		.loc 1 1005 17 is_stmt 1 view .LVU293
 1709 0711 488D3500 		leaq	.LC0(%rip), %rsi
 1709      000000
 1710 0718 4889EF   		movq	%rbp, %rdi
 1711 071b B8000000 		movl	$0, %eax
 1711      00
 1712 0720 E8000000 		call	CatPrint
 1712      00
 1713              	.LVL140:
1006:../Backend/gnu-efi-3.0.9/lib/dpath.c ****                 if ( IsNotNullIPv4( & IP-> SubnetMask ) ) {
 1714              		.loc 1 1006 17 view .LVU294
 1715 0725 4C89EE   		movq	%r13, %rsi
 1716 0728 4889EF   		movq	%rbp, %rdi
 1717 072b E884FEFF 		call	CatPrintIPv4
 1717      FF
 1718              	.LVL141:
1007:../Backend/gnu-efi-3.0.9/lib/dpath.c ****                     CatPrint( Str , L",") ;
 1719              		.loc 1 1007 17 view .LVU295
1007:../Backend/gnu-efi-3.0.9/lib/dpath.c ****                     CatPrint( Str , L",") ;
 1720              		.loc 1 1007 22 is_stmt 0 view .LVU296
 1721 0730 4889DF   		movq	%rbx, %rdi
 1722 0733 E8C8F8FF 		call	IsNotNullIPv4
 1722      FF
 1723              	.LVL142:
1007:../Backend/gnu-efi-3.0.9/lib/dpath.c ****                     CatPrint( Str , L",") ;
 1724              		.loc 1 1007 20 discriminator 1 view .LVU297
 1725 0738 84C0     		testb	%al, %al
 1726 073a 0F846EFF 		je	.L79
 1726      FFFF
1008:../Backend/gnu-efi-3.0.9/lib/dpath.c ****                     CatPrintIPv4( Str , & IP-> SubnetMask ) ;
 1727              		.loc 1 1008 21 is_stmt 1 view .LVU298
 1728 0740 488D3500 		leaq	.LC0(%rip), %rsi
 1728      000000
 1729 0747 4889EF   		movq	%rbp, %rdi
 1730 074a B8000000 		movl	$0, %eax
 1730      00
 1731 074f E8000000 		call	CatPrint
 1731      00
 1732              	.LVL143:
1009:../Backend/gnu-efi-3.0.9/lib/dpath.c ****                 }
 1733              		.loc 1 1009 21 view .LVU299
 1734 0754 4889DE   		movq	%rbx, %rsi
 1735 0757 4889EF   		movq	%rbp, %rdi
 1736 075a E855FEFF 		call	CatPrintIPv4
 1736      FF
 1737              	.LVL144:
 1738 075f E94AFFFF 		jmp	.L79
 1738      FF
 1739              		.cfi_endproc
 1740              	.LFE29:
 1742              		.section	.rodata
 1743              		.align 2
 1744              	.LC40:
 1745 035e 4D00     		.string	"M"
 1746 0360 6100     		.string	"a"
 1747 0362 6300     		.string	"c"
 1748 0364 2800     		.string	"("
 1749 0366 00       		.string	""
 1750 0367 00       		.string	""
 1751              		.align 2
 1752              	.LC41:
 1753 0368 2500     		.string	"%"
 1754 036a 3000     		.string	"0"
 1755 036c 3200     		.string	"2"
 1756 036e 7800     		.string	"x"
 1757 0370 00       		.string	""
 1758 0371 00       		.string	""
 1759              		.align 2
 1760              	.LC42:
 1761 0372 2C00     		.string	","
 1762 0374 2500     		.string	"%"
 1763 0376 6400     		.string	"d"
 1764 0378 00       		.string	""
 1765 0379 00       		.string	""
 1766              		.text
 1768              	_DevPathMacAddr:
 1769              	.LVL145:
 1770              	.LFB25:
 914:../Backend/gnu-efi-3.0.9/lib/dpath.c ****     MAC_ADDR_DEVICE_PATH    *MAC;
 1771              		.loc 1 914 1 view -0
 1772              		.cfi_startproc
 914:../Backend/gnu-efi-3.0.9/lib/dpath.c ****     MAC_ADDR_DEVICE_PATH    *MAC;
 1773              		.loc 1 914 1 is_stmt 0 view .LVU301
 1774 0764 F30F1EFA 		endbr64
 1775 0768 4155     		pushq	%r13
 1776              		.cfi_def_cfa_offset 16
 1777              		.cfi_offset 13, -16
 1778 076a 4154     		pushq	%r12
 1779              		.cfi_def_cfa_offset 24
 1780              		.cfi_offset 12, -24
 1781 076c 55       		pushq	%rbp
 1782              		.cfi_def_cfa_offset 32
 1783              		.cfi_offset 6, -32
 1784 076d 53       		pushq	%rbx
 1785              		.cfi_def_cfa_offset 40
 1786              		.cfi_offset 3, -40
 1787 076e 4883EC08 		subq	$8, %rsp
 1788              		.cfi_def_cfa_offset 48
 1789 0772 4989FD   		movq	%rdi, %r13
 1790 0775 4989F4   		movq	%rsi, %r12
 915:../Backend/gnu-efi-3.0.9/lib/dpath.c ****     UINTN                   HwAddressSize;
 1791              		.loc 1 915 5 is_stmt 1 view .LVU302
 916:../Backend/gnu-efi-3.0.9/lib/dpath.c ****     UINTN                   Index;
 1792              		.loc 1 916 5 view .LVU303
 917:../Backend/gnu-efi-3.0.9/lib/dpath.c **** 
 1793              		.loc 1 917 5 view .LVU304
 919:../Backend/gnu-efi-3.0.9/lib/dpath.c **** 
 1794              		.loc 1 919 5 view .LVU305
 1795              	.LVL146:
 922:../Backend/gnu-efi-3.0.9/lib/dpath.c ****     HwAddressSize -= sizeof( MAC-> Header ) ;
 1796              		.loc 1 922 5 view .LVU306
 922:../Backend/gnu-efi-3.0.9/lib/dpath.c ****     HwAddressSize -= sizeof( MAC-> Header ) ;
 1797              		.loc 1 922 21 is_stmt 0 view .LVU307
 1798 0778 0FB66E02 		movzbl	2(%rsi), %ebp
 1799 077c 0FB64603 		movzbl	3(%rsi), %eax
 1800 0780 C1E008   		sall	$8, %eax
 1801 0783 09C5     		orl	%eax, %ebp
 922:../Backend/gnu-efi-3.0.9/lib/dpath.c ****     HwAddressSize -= sizeof( MAC-> Header ) ;
 1802              		.loc 1 922 19 view .LVU308
 1803 0785 4863ED   		movslq	%ebp, %rbp
 1804              	.LVL147:
 923:../Backend/gnu-efi-3.0.9/lib/dpath.c ****     HwAddressSize -= sizeof( MAC-> IfType ) ;
 1805              		.loc 1 923 5 is_stmt 1 view .LVU309
 924:../Backend/gnu-efi-3.0.9/lib/dpath.c ****     if (MAC->IfType == 0x01 || MAC->IfType == 0x00) {
 1806              		.loc 1 924 5 view .LVU310
 924:../Backend/gnu-efi-3.0.9/lib/dpath.c ****     if (MAC->IfType == 0x01 || MAC->IfType == 0x00) {
 1807              		.loc 1 924 19 is_stmt 0 view .LVU311
 1808 0788 4883ED05 		subq	$5, %rbp
 1809              	.LVL148:
 925:../Backend/gnu-efi-3.0.9/lib/dpath.c ****         HwAddressSize = 6;
 1810              		.loc 1 925 5 is_stmt 1 view .LVU312
 925:../Backend/gnu-efi-3.0.9/lib/dpath.c ****         HwAddressSize = 6;
 1811              		.loc 1 925 8 is_stmt 0 view .LVU313
 1812 078c 807E2401 		cmpb	$1, 36(%rsi)
 1813 0790 761B     		jbe	.L91
 1814              	.LVL149:
 1815              	.L85:
 929:../Backend/gnu-efi-3.0.9/lib/dpath.c **** 
 1816              		.loc 1 929 5 is_stmt 1 view .LVU314
 1817 0792 488D3500 		leaq	.LC40(%rip), %rsi
 1817      000000
 1818              	.LVL150:
 929:../Backend/gnu-efi-3.0.9/lib/dpath.c **** 
 1819              		.loc 1 929 5 is_stmt 0 view .LVU315
 1820 0799 4C89EF   		movq	%r13, %rdi
 1821              	.LVL151:
 929:../Backend/gnu-efi-3.0.9/lib/dpath.c **** 
 1822              		.loc 1 929 5 view .LVU316
 1823 079c B8000000 		movl	$0, %eax
 1823      00
 1824 07a1 E8000000 		call	CatPrint
 1824      00
 1825              	.LVL152:
 931:../Backend/gnu-efi-3.0.9/lib/dpath.c ****         CatPrint(Str, L"%02x",MAC->MacAddress.Addr[Index]);
 1826              		.loc 1 931 5 is_stmt 1 view .LVU317
 931:../Backend/gnu-efi-3.0.9/lib/dpath.c ****         CatPrint(Str, L"%02x",MAC->MacAddress.Addr[Index]);
 1827              		.loc 1 931 15 is_stmt 0 view .LVU318
 1828 07a6 BB000000 		movl	$0, %ebx
 1828      00
 931:../Backend/gnu-efi-3.0.9/lib/dpath.c ****         CatPrint(Str, L"%02x",MAC->MacAddress.Addr[Index]);
 1829              		.loc 1 931 5 view .LVU319
 1830 07ab EB25     		jmp	.L86
 1831              	.LVL153:
 1832              	.L91:
 926:../Backend/gnu-efi-3.0.9/lib/dpath.c ****     }
 1833              		.loc 1 926 23 view .LVU320
 1834 07ad BD060000 		movl	$6, %ebp
 1834      00
 1835              	.LVL154:
 926:../Backend/gnu-efi-3.0.9/lib/dpath.c ****     }
 1836              		.loc 1 926 23 view .LVU321
 1837 07b2 EBDE     		jmp	.L85
 1838              	.LVL155:
 1839              	.L87:
 932:../Backend/gnu-efi-3.0.9/lib/dpath.c ****     }
 1840              		.loc 1 932 9 is_stmt 1 view .LVU322
 1841 07b4 410FB654 		movzbl	4(%r12,%rbx), %edx
 1841      1C04
 1842 07ba 488D3500 		leaq	.LC41(%rip), %rsi
 1842      000000
 1843 07c1 4C89EF   		movq	%r13, %rdi
 1844 07c4 B8000000 		movl	$0, %eax
 1844      00
 1845 07c9 E8000000 		call	CatPrint
 1845      00
 1846              	.LVL156:
 931:../Backend/gnu-efi-3.0.9/lib/dpath.c ****         CatPrint(Str, L"%02x",MAC->MacAddress.Addr[Index]);
 1847              		.loc 1 931 48 discriminator 3 view .LVU323
 1848 07ce 4883C301 		addq	$1, %rbx
 1849              	.LVL157:
 1850              	.L86:
 931:../Backend/gnu-efi-3.0.9/lib/dpath.c ****         CatPrint(Str, L"%02x",MAC->MacAddress.Addr[Index]);
 1851              		.loc 1 931 26 discriminator 1 view .LVU324
 1852 07d2 4839EB   		cmpq	%rbp, %rbx
 1853 07d5 72DD     		jb	.L87
 934:../Backend/gnu-efi-3.0.9/lib/dpath.c ****         CatPrint(Str, L",%d" , MAC-> IfType ) ;
 1854              		.loc 1 934 5 view .LVU325
 934:../Backend/gnu-efi-3.0.9/lib/dpath.c ****         CatPrint(Str, L",%d" , MAC-> IfType ) ;
 1855              		.loc 1 934 13 is_stmt 0 view .LVU326
 1856 07d7 410FB654 		movzbl	36(%r12), %edx
 1856      2424
 934:../Backend/gnu-efi-3.0.9/lib/dpath.c ****         CatPrint(Str, L",%d" , MAC-> IfType ) ;
 1857              		.loc 1 934 8 view .LVU327
 1858 07dd 84D2     		testb	%dl, %dl
 1859 07df 751F     		jne	.L92
 1860              	.L88:
 937:../Backend/gnu-efi-3.0.9/lib/dpath.c **** }
 1861              		.loc 1 937 5 is_stmt 1 view .LVU328
 1862 07e1 488D3500 		leaq	.LC35(%rip), %rsi
 1862      000000
 1863 07e8 4C89EF   		movq	%r13, %rdi
 1864 07eb B8000000 		movl	$0, %eax
 1864      00
 1865 07f0 E8000000 		call	CatPrint
 1865      00
 1866              	.LVL158:
 938:../Backend/gnu-efi-3.0.9/lib/dpath.c **** 
 1867              		.loc 1 938 1 is_stmt 0 view .LVU329
 1868 07f5 4883C408 		addq	$8, %rsp
 1869              		.cfi_remember_state
 1870              		.cfi_def_cfa_offset 40
 1871 07f9 5B       		popq	%rbx
 1872              		.cfi_restore 3
 1873              		.cfi_def_cfa_offset 32
 1874              	.LVL159:
 938:../Backend/gnu-efi-3.0.9/lib/dpath.c **** 
 1875              		.loc 1 938 1 view .LVU330
 1876 07fa 5D       		popq	%rbp
 1877              		.cfi_restore 6
 1878              		.cfi_def_cfa_offset 24
 1879              	.LVL160:
 938:../Backend/gnu-efi-3.0.9/lib/dpath.c **** 
 1880              		.loc 1 938 1 view .LVU331
 1881 07fb 415C     		popq	%r12
 1882              		.cfi_restore 12
 1883              		.cfi_def_cfa_offset 16
 1884              	.LVL161:
 938:../Backend/gnu-efi-3.0.9/lib/dpath.c **** 
 1885              		.loc 1 938 1 view .LVU332
 1886 07fd 415D     		popq	%r13
 1887              		.cfi_restore 13
 1888              		.cfi_def_cfa_offset 8
 1889              	.LVL162:
 938:../Backend/gnu-efi-3.0.9/lib/dpath.c **** 
 1890              		.loc 1 938 1 view .LVU333
 1891 07ff C3       		ret
 1892              	.LVL163:
 1893              	.L92:
 1894              		.cfi_restore_state
 935:../Backend/gnu-efi-3.0.9/lib/dpath.c ****     }
 1895              		.loc 1 935 9 is_stmt 1 view .LVU334
 1896 0800 0FB6D2   		movzbl	%dl, %edx
 1897 0803 488D3500 		leaq	.LC42(%rip), %rsi
 1897      000000
 1898 080a 4C89EF   		movq	%r13, %rdi
 1899 080d B8000000 		movl	$0, %eax
 1899      00
 1900 0812 E8000000 		call	CatPrint
 1900      00
 1901              	.LVL164:
 1902 0817 EBC8     		jmp	.L88
 1903              		.cfi_endproc
 1904              	.LFE25:
 1906              		.section	.rodata
 1907              		.align 2
 1908              	.LC43:
 1909 037a 4900     		.string	"I"
 1910 037c 3200     		.string	"2"
 1911 037e 4F00     		.string	"O"
 1912 0380 2800     		.string	"("
 1913 0382 3000     		.string	"0"
 1914 0384 7800     		.string	"x"
 1915 0386 2500     		.string	"%"
 1916 0388 5800     		.string	"X"
 1917 038a 2900     		.string	")"
 1918 038c 00       		.string	""
 1919 038d 00       		.string	""
 1920              		.text
 1922              	_DevPathI2O:
 1923              	.LVL165:
 1924              	.LFB24:
 902:../Backend/gnu-efi-3.0.9/lib/dpath.c ****     I2O_DEVICE_PATH         *I2O;
 1925              		.loc 1 902 1 view -0
 1926              		.cfi_startproc
 902:../Backend/gnu-efi-3.0.9/lib/dpath.c ****     I2O_DEVICE_PATH         *I2O;
 1927              		.loc 1 902 1 is_stmt 0 view .LVU336
 1928 0819 F30F1EFA 		endbr64
 1929 081d 4883EC08 		subq	$8, %rsp
 1930              		.cfi_def_cfa_offset 16
 903:../Backend/gnu-efi-3.0.9/lib/dpath.c **** 
 1931              		.loc 1 903 5 is_stmt 1 view .LVU337
 905:../Backend/gnu-efi-3.0.9/lib/dpath.c ****     CatPrint(Str, L"I2O(0x%X)", I2O->Tid);
 1932              		.loc 1 905 5 view .LVU338
 1933              	.LVL166:
 906:../Backend/gnu-efi-3.0.9/lib/dpath.c **** }
 1934              		.loc 1 906 5 view .LVU339
 1935 0821 8B5604   		movl	4(%rsi), %edx
 1936 0824 488D3500 		leaq	.LC43(%rip), %rsi
 1936      000000
 1937              	.LVL167:
 906:../Backend/gnu-efi-3.0.9/lib/dpath.c **** }
 1938              		.loc 1 906 5 is_stmt 0 view .LVU340
 1939 082b B8000000 		movl	$0, %eax
 1939      00
 1940 0830 E8000000 		call	CatPrint
 1940      00
 1941              	.LVL168:
 907:../Backend/gnu-efi-3.0.9/lib/dpath.c **** 
 1942              		.loc 1 907 1 view .LVU341
 1943 0835 4883C408 		addq	$8, %rsp
 1944              		.cfi_def_cfa_offset 8
 1945 0839 C3       		ret
 1946              		.cfi_endproc
 1947              	.LFE24:
 1949              		.section	.rodata
 1950              		.align 2
 1951              	.LC44:
 1952 038e 5500     		.string	"U"
 1953 0390 7300     		.string	"s"
 1954 0392 6200     		.string	"b"
 1955 0394 2800     		.string	"("
 1956 0396 3000     		.string	"0"
 1957 0398 7800     		.string	"x"
 1958 039a 2500     		.string	"%"
 1959 039c 7800     		.string	"x"
 1960 039e 2C00     		.string	","
 1961 03a0 3000     		.string	"0"
 1962 03a2 7800     		.string	"x"
 1963 03a4 2500     		.string	"%"
 1964 03a6 7800     		.string	"x"
 1965 03a8 2900     		.string	")"
 1966 03aa 00       		.string	""
 1967 03ab 00       		.string	""
 1968              		.text
 1970              	_DevPathUsb:
 1971              	.LVL169:
 1972              	.LFB23:
 889:../Backend/gnu-efi-3.0.9/lib/dpath.c ****     USB_DEVICE_PATH         *Usb;
 1973              		.loc 1 889 1 is_stmt 1 view -0
 1974              		.cfi_startproc
 889:../Backend/gnu-efi-3.0.9/lib/dpath.c ****     USB_DEVICE_PATH         *Usb;
 1975              		.loc 1 889 1 is_stmt 0 view .LVU343
 1976 083a F30F1EFA 		endbr64
 1977 083e 4883EC08 		subq	$8, %rsp
 1978              		.cfi_def_cfa_offset 16
 890:../Backend/gnu-efi-3.0.9/lib/dpath.c **** 
 1979              		.loc 1 890 5 is_stmt 1 view .LVU344
 892:../Backend/gnu-efi-3.0.9/lib/dpath.c ****     CatPrint( Str , L"Usb(0x%x,0x%x)" , Usb-> Port , Usb-> Endpoint ) ;
 1980              		.loc 1 892 5 view .LVU345
 1981              	.LVL170:
 893:../Backend/gnu-efi-3.0.9/lib/dpath.c **** }
 1982              		.loc 1 893 5 view .LVU346
 1983 0842 0FB64E05 		movzbl	5(%rsi), %ecx
 1984 0846 0FB65604 		movzbl	4(%rsi), %edx
 1985 084a 488D3500 		leaq	.LC44(%rip), %rsi
 1985      000000
 1986              	.LVL171:
 893:../Backend/gnu-efi-3.0.9/lib/dpath.c **** }
 1987              		.loc 1 893 5 is_stmt 0 view .LVU347
 1988 0851 B8000000 		movl	$0, %eax
 1988      00
 1989 0856 E8000000 		call	CatPrint
 1989      00
 1990              	.LVL172:
 894:../Backend/gnu-efi-3.0.9/lib/dpath.c **** 
 1991              		.loc 1 894 1 view .LVU348
 1992 085b 4883C408 		addq	$8, %rsp
 1993              		.cfi_def_cfa_offset 8
 1994 085f C3       		ret
 1995              		.cfi_endproc
 1996              	.LFE23:
 1998              		.section	.rodata
 1999              		.align 2
 2000              	.LC45:
 2001 03ac 3100     		.string	"1"
 2002 03ae 3300     		.string	"3"
 2003 03b0 3900     		.string	"9"
 2004 03b2 3400     		.string	"4"
 2005 03b4 2800     		.string	"("
 2006 03b6 2500     		.string	"%"
 2007 03b8 6700     		.string	"g"
 2008 03ba 2900     		.string	")"
 2009 03bc 00       		.string	""
 2010 03bd 00       		.string	""
 2011              		.text
 2013              	_DevPath1394:
 2014              	.LVL173:
 2015              	.LFB22:
 875:../Backend/gnu-efi-3.0.9/lib/dpath.c ****     F1394_DEVICE_PATH       *F1394;
 2016              		.loc 1 875 1 is_stmt 1 view -0
 2017              		.cfi_startproc
 875:../Backend/gnu-efi-3.0.9/lib/dpath.c ****     F1394_DEVICE_PATH       *F1394;
 2018              		.loc 1 875 1 is_stmt 0 view .LVU350
 2019 0860 F30F1EFA 		endbr64
 2020 0864 4883EC08 		subq	$8, %rsp
 2021              		.cfi_def_cfa_offset 16
 876:../Backend/gnu-efi-3.0.9/lib/dpath.c **** 
 2022              		.loc 1 876 5 is_stmt 1 view .LVU351
 878:../Backend/gnu-efi-3.0.9/lib/dpath.c ****     CatPrint(Str, L"1394(%g)", &F1394->Guid);
 2023              		.loc 1 878 5 view .LVU352
 2024              	.LVL174:
 879:../Backend/gnu-efi-3.0.9/lib/dpath.c **** }
 2025              		.loc 1 879 5 view .LVU353
 2026 0868 488D5608 		leaq	8(%rsi), %rdx
 2027 086c 488D3500 		leaq	.LC45(%rip), %rsi
 2027      000000
 2028              	.LVL175:
 879:../Backend/gnu-efi-3.0.9/lib/dpath.c **** }
 2029              		.loc 1 879 5 is_stmt 0 view .LVU354
 2030 0873 B8000000 		movl	$0, %eax
 2030      00
 2031 0878 E8000000 		call	CatPrint
 2031      00
 2032              	.LVL176:
 880:../Backend/gnu-efi-3.0.9/lib/dpath.c **** 
 2033              		.loc 1 880 1 view .LVU355
 2034 087d 4883C408 		addq	$8, %rsp
 2035              		.cfi_def_cfa_offset 8
 2036 0881 C3       		ret
 2037              		.cfi_endproc
 2038              	.LFE22:
 2040              		.section	.rodata
 2041              		.align 2
 2042              	.LC46:
 2043 03be 00       		.string	""
 2044 03bf 00       		.string	""
 2045              		.align 2
 2046              	.LC47:
 2047 03c0 4500     		.string	"E"
 2048 03c2 7800     		.string	"x"
 2049 03c4 00       		.string	""
 2050 03c5 00       		.string	""
 2051 03c6 0000     		.align 8
 2052              	.LC48:
 2053 03c8 4600     		.string	"F"
 2054 03ca 6900     		.string	"i"
 2055 03cc 6200     		.string	"b"
 2056 03ce 7200     		.string	"r"
 2057 03d0 6500     		.string	"e"
 2058 03d2 2500     		.string	"%"
 2059 03d4 7300     		.string	"s"
 2060 03d6 2800     		.string	"("
 2061 03d8 3000     		.string	"0"
 2062 03da 7800     		.string	"x"
 2063 03dc 2500     		.string	"%"
 2064 03de 3000     		.string	"0"
 2065 03e0 3100     		.string	"1"
 2066 03e2 3600     		.string	"6"
 2067 03e4 6C00     		.string	"l"
 2068 03e6 7800     		.string	"x"
 2069 03e8 2C00     		.string	","
 2070 03ea 3000     		.string	"0"
 2071 03ec 7800     		.string	"x"
 2072 03ee 2500     		.string	"%"
 2073 03f0 3000     		.string	"0"
 2074 03f2 3100     		.string	"1"
 2075 03f4 3600     		.string	"6"
 2076 03f6 6C00     		.string	"l"
 2077 03f8 7800     		.string	"x"
 2078 03fa 2900     		.string	")"
 2079 03fc 00       		.string	""
 2080 03fd 00       		.string	""
 2081              		.text
 2083              	_DevPathFibre:
 2084              	.LVL177:
 2085              	.LFB21:
 861:../Backend/gnu-efi-3.0.9/lib/dpath.c ****     FIBRECHANNEL_DEVICE_PATH    *Fibre;
 2086              		.loc 1 861 1 is_stmt 1 view -0
 2087              		.cfi_startproc
 861:../Backend/gnu-efi-3.0.9/lib/dpath.c ****     FIBRECHANNEL_DEVICE_PATH    *Fibre;
 2088              		.loc 1 861 1 is_stmt 0 view .LVU357
 2089 0882 F30F1EFA 		endbr64
 2090 0886 4883EC08 		subq	$8, %rsp
 2091              		.cfi_def_cfa_offset 16
 862:../Backend/gnu-efi-3.0.9/lib/dpath.c **** 
 2092              		.loc 1 862 5 is_stmt 1 view .LVU358
 864:../Backend/gnu-efi-3.0.9/lib/dpath.c ****     CatPrint( Str , L"Fibre%s(0x%016lx,0x%016lx)" ,
 2093              		.loc 1 864 5 view .LVU359
 2094              	.LVL178:
 865:../Backend/gnu-efi-3.0.9/lib/dpath.c ****         DevicePathType( & Fibre-> Header ) == MSG_FIBRECHANNEL_DP ? L"" : L"Ex" ,
 2095              		.loc 1 865 5 view .LVU360
 2096 088a 4C8B4610 		movq	16(%rsi), %r8
 2097 088e 488B4E08 		movq	8(%rsi), %rcx
 866:../Backend/gnu-efi-3.0.9/lib/dpath.c ****         Fibre-> WWN , Fibre-> Lun ) ;
 2098              		.loc 1 866 9 is_stmt 0 view .LVU361
 2099 0892 0FB606   		movzbl	(%rsi), %eax
 865:../Backend/gnu-efi-3.0.9/lib/dpath.c ****         DevicePathType( & Fibre-> Header ) == MSG_FIBRECHANNEL_DP ? L"" : L"Ex" ,
 2100              		.loc 1 865 5 view .LVU362
 2101 0895 83E07F   		andl	$127, %eax
 2102 0898 3C03     		cmpb	$3, %al
 2103 089a 741D     		je	.L103
 865:../Backend/gnu-efi-3.0.9/lib/dpath.c ****         DevicePathType( & Fibre-> Header ) == MSG_FIBRECHANNEL_DP ? L"" : L"Ex" ,
 2104              		.loc 1 865 5 discriminator 2 view .LVU363
 2105 089c 488D1500 		leaq	.LC47(%rip), %rdx
 2105      000000
 2106              	.L100:
 865:../Backend/gnu-efi-3.0.9/lib/dpath.c ****         DevicePathType( & Fibre-> Header ) == MSG_FIBRECHANNEL_DP ? L"" : L"Ex" ,
 2107              		.loc 1 865 5 discriminator 4 view .LVU364
 2108 08a3 488D3500 		leaq	.LC48(%rip), %rsi
 2108      000000
 2109              	.LVL179:
 865:../Backend/gnu-efi-3.0.9/lib/dpath.c ****         DevicePathType( & Fibre-> Header ) == MSG_FIBRECHANNEL_DP ? L"" : L"Ex" ,
 2110              		.loc 1 865 5 discriminator 4 view .LVU365
 2111 08aa B8000000 		movl	$0, %eax
 2111      00
 2112 08af E8000000 		call	CatPrint
 2112      00
 2113              	.LVL180:
 868:../Backend/gnu-efi-3.0.9/lib/dpath.c **** 
 2114              		.loc 1 868 1 view .LVU366
 2115 08b4 4883C408 		addq	$8, %rsp
 2116              		.cfi_remember_state
 2117              		.cfi_def_cfa_offset 8
 2118 08b8 C3       		ret
 2119              	.LVL181:
 2120              	.L103:
 2121              		.cfi_restore_state
 865:../Backend/gnu-efi-3.0.9/lib/dpath.c ****         DevicePathType( & Fibre-> Header ) == MSG_FIBRECHANNEL_DP ? L"" : L"Ex" ,
 2122              		.loc 1 865 5 discriminator 1 view .LVU367
 2123 08b9 488D1500 		leaq	.LC46(%rip), %rdx
 2123      000000
 2124 08c0 EBE1     		jmp	.L100
 2125              		.cfi_endproc
 2126              	.LFE21:
 2128              		.section	.rodata
 2129              		.align 2
 2130              	.LC49:
 2131 03fe 5300     		.string	"S"
 2132 0400 6300     		.string	"c"
 2133 0402 7300     		.string	"s"
 2134 0404 6900     		.string	"i"
 2135 0406 2800     		.string	"("
 2136 0408 2500     		.string	"%"
 2137 040a 6400     		.string	"d"
 2138 040c 2C00     		.string	","
 2139 040e 2500     		.string	"%"
 2140 0410 6400     		.string	"d"
 2141 0412 2900     		.string	")"
 2142 0414 00       		.string	""
 2143 0415 00       		.string	""
 2144              		.text
 2146              	_DevPathScsi:
 2147              	.LVL182:
 2148              	.LFB20:
 848:../Backend/gnu-efi-3.0.9/lib/dpath.c ****     SCSI_DEVICE_PATH        *Scsi;
 2149              		.loc 1 848 1 is_stmt 1 view -0
 2150              		.cfi_startproc
 848:../Backend/gnu-efi-3.0.9/lib/dpath.c ****     SCSI_DEVICE_PATH        *Scsi;
 2151              		.loc 1 848 1 is_stmt 0 view .LVU369
 2152 08c2 F30F1EFA 		endbr64
 2153 08c6 4883EC08 		subq	$8, %rsp
 2154              		.cfi_def_cfa_offset 16
 849:../Backend/gnu-efi-3.0.9/lib/dpath.c **** 
 2155              		.loc 1 849 5 is_stmt 1 view .LVU370
 851:../Backend/gnu-efi-3.0.9/lib/dpath.c ****     CatPrint(Str, L"Scsi(%d,%d)", Scsi->Pun, Scsi->Lun);
 2156              		.loc 1 851 5 view .LVU371
 2157              	.LVL183:
 852:../Backend/gnu-efi-3.0.9/lib/dpath.c **** }
 2158              		.loc 1 852 5 view .LVU372
 2159 08ca 0FB74E06 		movzwl	6(%rsi), %ecx
 2160 08ce 0FB75604 		movzwl	4(%rsi), %edx
 2161 08d2 488D3500 		leaq	.LC49(%rip), %rsi
 2161      000000
 2162              	.LVL184:
 852:../Backend/gnu-efi-3.0.9/lib/dpath.c **** }
 2163              		.loc 1 852 5 is_stmt 0 view .LVU373
 2164 08d9 B8000000 		movl	$0, %eax
 2164      00
 2165 08de E8000000 		call	CatPrint
 2165      00
 2166              	.LVL185:
 853:../Backend/gnu-efi-3.0.9/lib/dpath.c **** 
 2167              		.loc 1 853 1 view .LVU374
 2168 08e3 4883C408 		addq	$8, %rsp
 2169              		.cfi_def_cfa_offset 8
 2170 08e7 C3       		ret
 2171              		.cfi_endproc
 2172              	.LFE20:
 2174              		.section	.rodata
 2175              		.align 2
 2176              	.LC50:
 2177 0416 5300     		.string	"S"
 2178 0418 6C00     		.string	"l"
 2179 041a 6100     		.string	"a"
 2180 041c 7600     		.string	"v"
 2181 041e 6500     		.string	"e"
 2182 0420 00       		.string	""
 2183 0421 00       		.string	""
 2184              		.align 2
 2185              	.LC51:
 2186 0422 4D00     		.string	"M"
 2187 0424 6100     		.string	"a"
 2188 0426 7300     		.string	"s"
 2189 0428 7400     		.string	"t"
 2190 042a 6500     		.string	"e"
 2191 042c 7200     		.string	"r"
 2192 042e 00       		.string	""
 2193 042f 00       		.string	""
 2194              		.align 2
 2195              	.LC52:
 2196 0430 5300     		.string	"S"
 2197 0432 6500     		.string	"e"
 2198 0434 6300     		.string	"c"
 2199 0436 6F00     		.string	"o"
 2200 0438 6E00     		.string	"n"
 2201 043a 6400     		.string	"d"
 2202 043c 6100     		.string	"a"
 2203 043e 7200     		.string	"r"
 2204 0440 7900     		.string	"y"
 2205 0442 00       		.string	""
 2206 0443 00       		.string	""
 2207              		.align 2
 2208              	.LC53:
 2209 0444 5000     		.string	"P"
 2210 0446 7200     		.string	"r"
 2211 0448 6900     		.string	"i"
 2212 044a 6D00     		.string	"m"
 2213 044c 6100     		.string	"a"
 2214 044e 7200     		.string	"r"
 2215 0450 7900     		.string	"y"
 2216 0452 00       		.string	""
 2217 0453 00       		.string	""
 2218              		.align 2
 2219              	.LC54:
 2220 0454 4100     		.string	"A"
 2221 0456 7400     		.string	"t"
 2222 0458 6100     		.string	"a"
 2223 045a 2800     		.string	"("
 2224 045c 2500     		.string	"%"
 2225 045e 7300     		.string	"s"
 2226 0460 2C00     		.string	","
 2227 0462 2500     		.string	"%"
 2228 0464 7300     		.string	"s"
 2229 0466 2900     		.string	")"
 2230 0468 00       		.string	""
 2231 0469 00       		.string	""
 2232              		.text
 2234              	_DevPathAtapi:
 2235              	.LVL186:
 2236              	.LFB19:
 833:../Backend/gnu-efi-3.0.9/lib/dpath.c ****     ATAPI_DEVICE_PATH       *Atapi;
 2237              		.loc 1 833 1 is_stmt 1 view -0
 2238              		.cfi_startproc
 833:../Backend/gnu-efi-3.0.9/lib/dpath.c ****     ATAPI_DEVICE_PATH       *Atapi;
 2239              		.loc 1 833 1 is_stmt 0 view .LVU376
 2240 08e8 F30F1EFA 		endbr64
 2241 08ec 4883EC08 		subq	$8, %rsp
 2242              		.cfi_def_cfa_offset 16
 834:../Backend/gnu-efi-3.0.9/lib/dpath.c **** 
 2243              		.loc 1 834 5 is_stmt 1 view .LVU377
 836:../Backend/gnu-efi-3.0.9/lib/dpath.c ****     CatPrint(Str, L"Ata(%s,%s)",
 2244              		.loc 1 836 5 view .LVU378
 2245              	.LVL187:
 837:../Backend/gnu-efi-3.0.9/lib/dpath.c ****         Atapi->PrimarySecondary ? L"Secondary" : L"Primary",
 2246              		.loc 1 837 5 view .LVU379
 2247 08f0 807E0500 		cmpb	$0, 5(%rsi)
 2248 08f4 742A     		je	.L109
 837:../Backend/gnu-efi-3.0.9/lib/dpath.c ****         Atapi->PrimarySecondary ? L"Secondary" : L"Primary",
 2249              		.loc 1 837 5 is_stmt 0 discriminator 1 view .LVU380
 2250 08f6 488D0D00 		leaq	.LC50(%rip), %rcx
 2250      000000
 2251              	.L107:
 837:../Backend/gnu-efi-3.0.9/lib/dpath.c ****         Atapi->PrimarySecondary ? L"Secondary" : L"Primary",
 2252              		.loc 1 837 5 discriminator 4 view .LVU381
 2253 08fd 807E0400 		cmpb	$0, 4(%rsi)
 2254 0901 7426     		je	.L110
 837:../Backend/gnu-efi-3.0.9/lib/dpath.c ****         Atapi->PrimarySecondary ? L"Secondary" : L"Primary",
 2255              		.loc 1 837 5 discriminator 5 view .LVU382
 2256 0903 488D1500 		leaq	.LC52(%rip), %rdx
 2256      000000
 2257              	.L108:
 837:../Backend/gnu-efi-3.0.9/lib/dpath.c ****         Atapi->PrimarySecondary ? L"Secondary" : L"Primary",
 2258              		.loc 1 837 5 discriminator 8 view .LVU383
 2259 090a 488D3500 		leaq	.LC54(%rip), %rsi
 2259      000000
 2260              	.LVL188:
 837:../Backend/gnu-efi-3.0.9/lib/dpath.c ****         Atapi->PrimarySecondary ? L"Secondary" : L"Primary",
 2261              		.loc 1 837 5 discriminator 8 view .LVU384
 2262 0911 B8000000 		movl	$0, %eax
 2262      00
 2263 0916 E8000000 		call	CatPrint
 2263      00
 2264              	.LVL189:
 841:../Backend/gnu-efi-3.0.9/lib/dpath.c **** 
 2265              		.loc 1 841 1 view .LVU385
 2266 091b 4883C408 		addq	$8, %rsp
 2267              		.cfi_remember_state
 2268              		.cfi_def_cfa_offset 8
 2269 091f C3       		ret
 2270              	.LVL190:
 2271              	.L109:
 2272              		.cfi_restore_state
 837:../Backend/gnu-efi-3.0.9/lib/dpath.c ****         Atapi->PrimarySecondary ? L"Secondary" : L"Primary",
 2273              		.loc 1 837 5 discriminator 2 view .LVU386
 2274 0920 488D0D00 		leaq	.LC51(%rip), %rcx
 2274      000000
 2275 0927 EBD4     		jmp	.L107
 2276              	.L110:
 837:../Backend/gnu-efi-3.0.9/lib/dpath.c ****         Atapi->PrimarySecondary ? L"Secondary" : L"Primary",
 2277              		.loc 1 837 5 discriminator 6 view .LVU387
 2278 0929 488D1500 		leaq	.LC53(%rip), %rdx
 2278      000000
 2279 0930 EBD8     		jmp	.L108
 2280              		.cfi_endproc
 2281              	.LFE19:
 2283              		.section	.rodata
 2284              		.align 2
 2285              	.LC55:
 2286 046a 4100     		.string	"A"
 2287 046c 6300     		.string	"c"
 2288 046e 7000     		.string	"p"
 2289 0470 6900     		.string	"i"
 2290 0472 4100     		.string	"A"
 2291 0474 4400     		.string	"D"
 2292 0476 5200     		.string	"R"
 2293 0478 2800     		.string	"("
 2294 047a 3000     		.string	"0"
 2295 047c 7800     		.string	"x"
 2296 047e 2500     		.string	"%"
 2297 0480 5800     		.string	"X"
 2298 0482 2900     		.string	")"
 2299 0484 00       		.string	""
 2300 0485 00       		.string	""
 2301 0486 0000     		.align 8
 2302              	.LC56:
 2303 0488 4100     		.string	"A"
 2304 048a 6300     		.string	"c"
 2305 048c 7000     		.string	"p"
 2306 048e 6900     		.string	"i"
 2307 0490 4100     		.string	"A"
 2308 0492 4400     		.string	"D"
 2309 0494 5200     		.string	"R"
 2310 0496 5F00     		.string	"_"
 2311 0498 3000     		.string	"0"
 2312 049a 2800     		.string	"("
 2313 049c 3000     		.string	"0"
 2314 049e 7800     		.string	"x"
 2315 04a0 2500     		.string	"%"
 2316 04a2 5800     		.string	"X"
 2317 04a4 2900     		.string	")"
 2318 04a6 00       		.string	""
 2319 04a7 00       		.string	""
 2320              		.align 8
 2321              	.LC57:
 2322 04a8 4100     		.string	"A"
 2323 04aa 6300     		.string	"c"
 2324 04ac 7000     		.string	"p"
 2325 04ae 6900     		.string	"i"
 2326 04b0 4100     		.string	"A"
 2327 04b2 4400     		.string	"D"
 2328 04b4 5200     		.string	"R"
 2329 04b6 5F00     		.string	"_"
 2330 04b8 2500     		.string	"%"
 2331 04ba 6400     		.string	"d"
 2332 04bc 2800     		.string	"("
 2333 04be 3000     		.string	"0"
 2334 04c0 7800     		.string	"x"
 2335 04c2 2500     		.string	"%"
 2336 04c4 5800     		.string	"X"
 2337 04c6 2900     		.string	")"
 2338 04c8 00       		.string	""
 2339 04c9 00       		.string	""
 2340              		.text
 2342              	_DevPathAcpiAdr:
 2343              	.LVL191:
 2344              	.LFB16:
 565:../Backend/gnu-efi-3.0.9/lib/dpath.c ****   ACPI_ADR_DEVICE_PATH *AcpiAdr;
 2345              		.loc 1 565 1 is_stmt 1 view -0
 2346              		.cfi_startproc
 565:../Backend/gnu-efi-3.0.9/lib/dpath.c ****   ACPI_ADR_DEVICE_PATH *AcpiAdr;
 2347              		.loc 1 565 1 is_stmt 0 view .LVU389
 2348 0932 F30F1EFA 		endbr64
 2349 0936 4155     		pushq	%r13
 2350              		.cfi_def_cfa_offset 16
 2351              		.cfi_offset 13, -16
 2352 0938 4154     		pushq	%r12
 2353              		.cfi_def_cfa_offset 24
 2354              		.cfi_offset 12, -24
 2355 093a 55       		pushq	%rbp
 2356              		.cfi_def_cfa_offset 32
 2357              		.cfi_offset 6, -32
 2358 093b 53       		pushq	%rbx
 2359              		.cfi_def_cfa_offset 40
 2360              		.cfi_offset 3, -40
 2361 093c 4883EC08 		subq	$8, %rsp
 2362              		.cfi_def_cfa_offset 48
 2363 0940 4989FD   		movq	%rdi, %r13
 2364 0943 4989F4   		movq	%rsi, %r12
 566:../Backend/gnu-efi-3.0.9/lib/dpath.c **** 
 2365              		.loc 1 566 3 is_stmt 1 view .LVU390
 568:../Backend/gnu-efi-3.0.9/lib/dpath.c ****   if( DevicePathNodeLength(&AcpiAdr->Header) == sizeof(ACPI_ADR_DEVICE_PATH))
 2366              		.loc 1 568 3 view .LVU391
 2367              	.LVL192:
 569:../Backend/gnu-efi-3.0.9/lib/dpath.c ****   { // Only one ADR entry
 2368              		.loc 1 569 3 view .LVU392
 569:../Backend/gnu-efi-3.0.9/lib/dpath.c ****   { // Only one ADR entry
 2369              		.loc 1 569 7 is_stmt 0 view .LVU393
 2370 0946 0FB66E02 		movzbl	2(%rsi), %ebp
 2371 094a 0FB64603 		movzbl	3(%rsi), %eax
 2372 094e C1E008   		sall	$8, %eax
 2373 0951 09C5     		orl	%eax, %ebp
 569:../Backend/gnu-efi-3.0.9/lib/dpath.c ****   { // Only one ADR entry
 2374              		.loc 1 569 5 view .LVU394
 2375 0953 83FD08   		cmpl	$8, %ebp
 2376 0956 7424     		je	.L118
 2377              	.LBB2:
 575:../Backend/gnu-efi-3.0.9/lib/dpath.c **** 
 2378              		.loc 1 575 5 is_stmt 1 view .LVU395
 575:../Backend/gnu-efi-3.0.9/lib/dpath.c **** 
 2379              		.loc 1 575 67 is_stmt 0 view .LVU396
 2380 0958 83E503   		andl	$3, %ebp
 575:../Backend/gnu-efi-3.0.9/lib/dpath.c **** 
 2381              		.loc 1 575 72 view .LVU397
 2382 095b 83ED01   		subl	$1, %ebp
 575:../Backend/gnu-efi-3.0.9/lib/dpath.c **** 
 2383              		.loc 1 575 11 view .LVU398
 2384 095e 4863ED   		movslq	%ebp, %rbp
 2385              	.LVL193:
 577:../Backend/gnu-efi-3.0.9/lib/dpath.c **** 
 2386              		.loc 1 577 5 is_stmt 1 view .LVU399
 2387 0961 8B5604   		movl	4(%rsi), %edx
 2388 0964 488D3500 		leaq	.LC56(%rip), %rsi
 2388      000000
 2389              	.LVL194:
 577:../Backend/gnu-efi-3.0.9/lib/dpath.c **** 
 2390              		.loc 1 577 5 is_stmt 0 view .LVU400
 2391 096b B8000000 		movl	$0, %eax
 2391      00
 2392 0970 E8000000 		call	CatPrint
 2392      00
 2393              	.LVL195:
 579:../Backend/gnu-efi-3.0.9/lib/dpath.c ****     {
 2394              		.loc 1 579 5 is_stmt 1 view .LVU401
 2395              	.LBB3:
 579:../Backend/gnu-efi-3.0.9/lib/dpath.c ****     {
 2396              		.loc 1 579 9 view .LVU402
 579:../Backend/gnu-efi-3.0.9/lib/dpath.c ****     {
 2397              		.loc 1 579 15 is_stmt 0 view .LVU403
 2398 0975 BA010000 		movl	$1, %edx
 2398      00
 579:../Backend/gnu-efi-3.0.9/lib/dpath.c ****     {
 2399              		.loc 1 579 5 view .LVU404
 2400 097a EB35     		jmp	.L115
 2401              	.LVL196:
 2402              	.L118:
 579:../Backend/gnu-efi-3.0.9/lib/dpath.c ****     {
 2403              		.loc 1 579 5 view .LVU405
 2404              	.LBE3:
 2405              	.LBE2:
 571:../Backend/gnu-efi-3.0.9/lib/dpath.c ****   }
 2406              		.loc 1 571 5 is_stmt 1 view .LVU406
 2407 097c 8B5604   		movl	4(%rsi), %edx
 2408 097f 488D3500 		leaq	.LC55(%rip), %rsi
 2408      000000
 2409              	.LVL197:
 571:../Backend/gnu-efi-3.0.9/lib/dpath.c ****   }
 2410              		.loc 1 571 5 is_stmt 0 view .LVU407
 2411 0986 B8000000 		movl	$0, %eax
 2411      00
 2412 098b E8000000 		call	CatPrint
 2412      00
 2413              	.LVL198:
 571:../Backend/gnu-efi-3.0.9/lib/dpath.c ****   }
 2414              		.loc 1 571 5 view .LVU408
 2415 0990 EB24     		jmp	.L112
 2416              	.LVL199:
 2417              	.L116:
 2418              	.LBB5:
 2419              	.LBB4:
 581:../Backend/gnu-efi-3.0.9/lib/dpath.c ****     }
 2420              		.loc 1 581 7 is_stmt 1 view .LVU409
 581:../Backend/gnu-efi-3.0.9/lib/dpath.c ****     }
 2421              		.loc 1 581 78 is_stmt 0 view .LVU410
 2422 0992 488D5A01 		leaq	1(%rdx), %rbx
 581:../Backend/gnu-efi-3.0.9/lib/dpath.c ****     }
 2423              		.loc 1 581 7 view .LVU411
 2424 0996 418B0C9C 		movl	(%r12,%rbx,4), %ecx
 2425 099a 488D3500 		leaq	.LC57(%rip), %rsi
 2425      000000
 2426 09a1 4C89EF   		movq	%r13, %rdi
 2427 09a4 B8000000 		movl	$0, %eax
 2427      00
 2428 09a9 E8000000 		call	CatPrint
 2428      00
 2429              	.LVL200:
 579:../Backend/gnu-efi-3.0.9/lib/dpath.c ****     {
 2430              		.loc 1 579 54 is_stmt 1 discriminator 3 view .LVU412
 579:../Backend/gnu-efi-3.0.9/lib/dpath.c ****     {
 2431              		.loc 1 579 54 is_stmt 0 discriminator 3 view .LVU413
 2432 09ae 4889DA   		movq	%rbx, %rdx
 2433              	.LVL201:
 2434              	.L115:
 579:../Backend/gnu-efi-3.0.9/lib/dpath.c ****     {
 2435              		.loc 1 579 32 is_stmt 1 discriminator 1 view .LVU414
 2436 09b1 4839EA   		cmpq	%rbp, %rdx
 2437 09b4 72DC     		jb	.L116
 2438              	.LVL202:
 2439              	.L112:
 579:../Backend/gnu-efi-3.0.9/lib/dpath.c ****     {
 2440              		.loc 1 579 32 is_stmt 0 discriminator 1 view .LVU415
 2441              	.LBE4:
 2442              	.LBE5:
 584:../Backend/gnu-efi-3.0.9/lib/dpath.c **** // End ADR addition
 2443              		.loc 1 584 1 view .LVU416
 2444 09b6 4883C408 		addq	$8, %rsp
 2445              		.cfi_def_cfa_offset 40
 2446 09ba 5B       		popq	%rbx
 2447              		.cfi_restore 3
 2448              		.cfi_def_cfa_offset 32
 2449 09bb 5D       		popq	%rbp
 2450              		.cfi_restore 6
 2451              		.cfi_def_cfa_offset 24
 2452 09bc 415C     		popq	%r12
 2453              		.cfi_restore 12
 2454              		.cfi_def_cfa_offset 16
 2455              	.LVL203:
 584:../Backend/gnu-efi-3.0.9/lib/dpath.c **** // End ADR addition
 2456              		.loc 1 584 1 view .LVU417
 2457 09be 415D     		popq	%r13
 2458              		.cfi_restore 13
 2459              		.cfi_def_cfa_offset 8
 2460              	.LVL204:
 584:../Backend/gnu-efi-3.0.9/lib/dpath.c **** // End ADR addition
 2461              		.loc 1 584 1 view .LVU418
 2462 09c0 C3       		ret
 2463              		.cfi_endproc
 2464              	.LFE16:
 2466              		.section	.rodata
 2467              		.align 2
 2468              	.LC58:
 2469 04ca 4B00     		.string	"K"
 2470 04cc 6500     		.string	"e"
 2471 04ce 7900     		.string	"y"
 2472 04d0 6200     		.string	"b"
 2473 04d2 6F00     		.string	"o"
 2474 04d4 6100     		.string	"a"
 2475 04d6 7200     		.string	"r"
 2476 04d8 6400     		.string	"d"
 2477 04da 2800     		.string	"("
 2478 04dc 2500     		.string	"%"
 2479 04de 6400     		.string	"d"
 2480 04e0 2900     		.string	")"
 2481 04e2 00       		.string	""
 2482 04e3 00       		.string	""
 2483 04e4 00000000 		.align 8
 2484              	.LC59:
 2485 04e8 5000     		.string	"P"
 2486 04ea 6100     		.string	"a"
 2487 04ec 7200     		.string	"r"
 2488 04ee 6100     		.string	"a"
 2489 04f0 6C00     		.string	"l"
 2490 04f2 6C00     		.string	"l"
 2491 04f4 6500     		.string	"e"
 2492 04f6 6C00     		.string	"l"
 2493 04f8 5000     		.string	"P"
 2494 04fa 6F00     		.string	"o"
 2495 04fc 7200     		.string	"r"
 2496 04fe 7400     		.string	"t"
 2497 0500 2800     		.string	"("
 2498 0502 2500     		.string	"%"
 2499 0504 6400     		.string	"d"
 2500 0506 2900     		.string	")"
 2501 0508 00       		.string	""
 2502 0509 00       		.string	""
 2503              		.align 2
 2504              	.LC60:
 2505 050a 5300     		.string	"S"
 2506 050c 6500     		.string	"e"
 2507 050e 7200     		.string	"r"
 2508 0510 6900     		.string	"i"
 2509 0512 6100     		.string	"a"
 2510 0514 6C00     		.string	"l"
 2511 0516 2800     		.string	"("
 2512 0518 2500     		.string	"%"
 2513 051a 6400     		.string	"d"
 2514 051c 2900     		.string	")"
 2515 051e 00       		.string	""
 2516 051f 00       		.string	""
 2517              		.align 2
 2518              	.LC61:
 2519 0520 4600     		.string	"F"
 2520 0522 6C00     		.string	"l"
 2521 0524 6F00     		.string	"o"
 2522 0526 7000     		.string	"p"
 2523 0528 7000     		.string	"p"
 2524 052a 7900     		.string	"y"
 2525 052c 2800     		.string	"("
 2526 052e 2500     		.string	"%"
 2527 0530 6400     		.string	"d"
 2528 0532 2900     		.string	")"
 2529 0534 00       		.string	""
 2530 0535 00       		.string	""
 2531              		.align 2
 2532              	.LC62:
 2533 0536 5000     		.string	"P"
 2534 0538 6300     		.string	"c"
 2535 053a 6900     		.string	"i"
 2536 053c 5200     		.string	"R"
 2537 053e 6F00     		.string	"o"
 2538 0540 6F00     		.string	"o"
 2539 0542 7400     		.string	"t"
 2540 0544 2800     		.string	"("
 2541 0546 2500     		.string	"%"
 2542 0548 6400     		.string	"d"
 2543 054a 2900     		.string	")"
 2544 054c 00       		.string	""
 2545 054d 00       		.string	""
 2546              		.align 2
 2547              	.LC63:
 2548 054e 5000     		.string	"P"
 2549 0550 6300     		.string	"c"
 2550 0552 6900     		.string	"i"
 2551 0554 6500     		.string	"e"
 2552 0556 5200     		.string	"R"
 2553 0558 6F00     		.string	"o"
 2554 055a 6F00     		.string	"o"
 2555 055c 7400     		.string	"t"
 2556 055e 2800     		.string	"("
 2557 0560 2500     		.string	"%"
 2558 0562 6400     		.string	"d"
 2559 0564 2900     		.string	")"
 2560 0566 00       		.string	""
 2561 0567 00       		.string	""
 2562              		.align 2
 2563              	.LC64:
 2564 0568 4100     		.string	"A"
 2565 056a 6300     		.string	"c"
 2566 056c 7000     		.string	"p"
 2567 056e 6900     		.string	"i"
 2568 0570 4500     		.string	"E"
 2569 0572 7800     		.string	"x"
 2570 0574 2800     		.string	"("
 2571 0576 5000     		.string	"P"
 2572 0578 4E00     		.string	"N"
 2573 057a 5000     		.string	"P"
 2574 057c 2500     		.string	"%"
 2575 057e 3000     		.string	"0"
 2576 0580 3400     		.string	"4"
 2577 0582 7800     		.string	"x"
 2578 0584 00       		.string	""
 2579 0585 00       		.string	""
 2580              		.align 2
 2581              	.LC65:
 2582 0586 2C00     		.string	","
 2583 0588 3000     		.string	"0"
 2584 058a 00       		.string	""
 2585 058b 00       		.string	""
 2586              		.align 2
 2587              	.LC66:
 2588 058c 2C00     		.string	","
 2589 058e 3000     		.string	"0"
 2590 0590 7800     		.string	"x"
 2591 0592 2500     		.string	"%"
 2592 0594 7800     		.string	"x"
 2593 0596 00       		.string	""
 2594 0597 00       		.string	""
 2595              		.align 2
 2596              	.LC67:
 2597 0598 2C00     		.string	","
 2598 059a 2500     		.string	"%"
 2599 059c 6100     		.string	"a"
 2600 059e 00       		.string	""
 2601 059f 00       		.string	""
 2602              		.align 2
 2603              	.LC68:
 2604 05a0 4100     		.string	"A"
 2605 05a2 6300     		.string	"c"
 2606 05a4 7000     		.string	"p"
 2607 05a6 6900     		.string	"i"
 2608 05a8 4500     		.string	"E"
 2609 05aa 7800     		.string	"x"
 2610 05ac 2800     		.string	"("
 2611 05ae 00       		.string	""
 2612 05af 00       		.string	""
 2613              		.align 2
 2614              	.LC69:
 2615 05b0 3000     		.string	"0"
 2616 05b2 7800     		.string	"x"
 2617 05b4 2500     		.string	"%"
 2618 05b6 5800     		.string	"X"
 2619 05b8 00       		.string	""
 2620 05b9 00       		.string	""
 2621              		.align 2
 2622              	.LC70:
 2623 05ba 3000     		.string	"0"
 2624 05bc 00       		.string	""
 2625 05bd 00       		.string	""
 2626              		.text
 2628              	_DevPathAcpiExpanded:
 2629              	.LVL205:
 2630              	.LFB17:
 594:../Backend/gnu-efi-3.0.9/lib/dpath.c ****     EXPANDED_ACPI_HID_DEVICE_PATH        *AcpiExpanded;
 2631              		.loc 1 594 1 is_stmt 1 view -0
 2632              		.cfi_startproc
 594:../Backend/gnu-efi-3.0.9/lib/dpath.c ****     EXPANDED_ACPI_HID_DEVICE_PATH        *AcpiExpanded;
 2633              		.loc 1 594 1 is_stmt 0 view .LVU420
 2634 09c1 F30F1EFA 		endbr64
 2635 09c5 4155     		pushq	%r13
 2636              		.cfi_def_cfa_offset 16
 2637              		.cfi_offset 13, -16
 2638 09c7 4154     		pushq	%r12
 2639              		.cfi_def_cfa_offset 24
 2640              		.cfi_offset 12, -24
 2641 09c9 55       		pushq	%rbp
 2642              		.cfi_def_cfa_offset 32
 2643              		.cfi_offset 6, -32
 2644 09ca 53       		pushq	%rbx
 2645              		.cfi_def_cfa_offset 40
 2646              		.cfi_offset 3, -40
 2647 09cb 4883EC08 		subq	$8, %rsp
 2648              		.cfi_def_cfa_offset 48
 2649 09cf 4989FC   		movq	%rdi, %r12
 2650 09d2 4889F3   		movq	%rsi, %rbx
 595:../Backend/gnu-efi-3.0.9/lib/dpath.c **** 
 2651              		.loc 1 595 5 is_stmt 1 view .LVU421
 597:../Backend/gnu-efi-3.0.9/lib/dpath.c ****     if ((AcpiExpanded->HID & PNP_EISA_ID_MASK) == PNP_EISA_ID_CONST) {
 2652              		.loc 1 597 5 view .LVU422
 2653              	.LVL206:
 598:../Backend/gnu-efi-3.0.9/lib/dpath.c ****         switch ( EISA_ID_TO_NUM( AcpiExpanded-> HID ) ) {
 2654              		.loc 1 598 5 view .LVU423
 598:../Backend/gnu-efi-3.0.9/lib/dpath.c ****         switch ( EISA_ID_TO_NUM( AcpiExpanded-> HID ) ) {
 2655              		.loc 1 598 22 is_stmt 0 view .LVU424
 2656 09d5 8B5604   		movl	4(%rsi), %edx
 598:../Backend/gnu-efi-3.0.9/lib/dpath.c ****         switch ( EISA_ID_TO_NUM( AcpiExpanded-> HID ) ) {
 2657              		.loc 1 598 8 view .LVU425
 2658 09d8 6681FAD0 		cmpw	$16848, %dx
 2658      41
 2659 09dd 0F854F02 		jne	.L120
 2659      0000
 599:../Backend/gnu-efi-3.0.9/lib/dpath.c ****             case 0x301 : {
 2660              		.loc 1 599 9 is_stmt 1 view .LVU426
 599:../Backend/gnu-efi-3.0.9/lib/dpath.c ****             case 0x301 : {
 2661              		.loc 1 599 18 is_stmt 0 view .LVU427
 2662 09e3 C1EA10   		shrl	$16, %edx
 599:../Backend/gnu-efi-3.0.9/lib/dpath.c ****             case 0x301 : {
 2663              		.loc 1 599 9 view .LVU428
 2664 09e6 81FA0406 		cmpl	$1540, %edx
 2664      0000
 2665 09ec 0F849200 		je	.L121
 2665      0000
 2666 09f2 7735     		ja	.L122
 2667 09f4 81FA0104 		cmpl	$1025, %edx
 2667      0000
 2668 09fa 7456     		je	.L123
 2669 09fc 81FA0105 		cmpl	$1281, %edx
 2669      0000
 2670 0a02 7467     		je	.L124
 2671 0a04 81FA0103 		cmpl	$769, %edx
 2671      0000
 2672 0a0a 0F85A600 		jne	.L126
 2672      0000
 601:../Backend/gnu-efi-3.0.9/lib/dpath.c ****                 break ;
 2673              		.loc 1 601 17 is_stmt 1 view .LVU429
 2674 0a10 8B5608   		movl	8(%rsi), %edx
 2675 0a13 488D3500 		leaq	.LC58(%rip), %rsi
 2675      000000
 2676              	.LVL207:
 601:../Backend/gnu-efi-3.0.9/lib/dpath.c ****                 break ;
 2677              		.loc 1 601 17 is_stmt 0 view .LVU430
 2678 0a1a B8000000 		movl	$0, %eax
 2678      00
 2679 0a1f E8000000 		call	CatPrint
 2679      00
 2680              	.LVL208:
 602:../Backend/gnu-efi-3.0.9/lib/dpath.c ****             }
 2681              		.loc 1 602 17 is_stmt 1 view .LVU431
 2682 0a24 E9970300 		jmp	.L119
 2682      00
 2683              	.LVL209:
 2684              	.L122:
 599:../Backend/gnu-efi-3.0.9/lib/dpath.c ****             case 0x301 : {
 2685              		.loc 1 599 9 is_stmt 0 view .LVU432
 2686 0a29 81FA030A 		cmpl	$2563, %edx
 2686      0000
 2687 0a2f 746C     		je	.L127
 2688 0a31 81FA080A 		cmpl	$2568, %edx
 2688      0000
 2689 0a37 757D     		jne	.L126
 621:../Backend/gnu-efi-3.0.9/lib/dpath.c ****                 break ;
 2690              		.loc 1 621 17 is_stmt 1 view .LVU433
 2691 0a39 8B5608   		movl	8(%rsi), %edx
 2692 0a3c 488D3500 		leaq	.LC63(%rip), %rsi
 2692      000000
 2693 0a43 B8000000 		movl	$0, %eax
 2693      00
 2694 0a48 E8000000 		call	CatPrint
 2694      00
 2695              	.LVL210:
 622:../Backend/gnu-efi-3.0.9/lib/dpath.c ****             }
 2696              		.loc 1 622 17 view .LVU434
 2697 0a4d E96E0300 		jmp	.L119
 2697      00
 2698              	.LVL211:
 2699              	.L123:
 605:../Backend/gnu-efi-3.0.9/lib/dpath.c ****                 break ;
 2700              		.loc 1 605 17 view .LVU435
 2701 0a52 8B5608   		movl	8(%rsi), %edx
 2702 0a55 488D3500 		leaq	.LC59(%rip), %rsi
 2702      000000
 2703 0a5c B8000000 		movl	$0, %eax
 2703      00
 2704 0a61 E8000000 		call	CatPrint
 2704      00
 2705              	.LVL212:
 606:../Backend/gnu-efi-3.0.9/lib/dpath.c ****             }
 2706              		.loc 1 606 17 view .LVU436
 2707 0a66 E9550300 		jmp	.L119
 2707      00
 2708              	.LVL213:
 2709              	.L124:
 609:../Backend/gnu-efi-3.0.9/lib/dpath.c ****                 break ;
 2710              		.loc 1 609 17 view .LVU437
 2711 0a6b 8B5608   		movl	8(%rsi), %edx
 2712 0a6e 488D3500 		leaq	.LC60(%rip), %rsi
 2712      000000
 2713 0a75 B8000000 		movl	$0, %eax
 2713      00
 2714 0a7a E8000000 		call	CatPrint
 2714      00
 2715              	.LVL214:
 610:../Backend/gnu-efi-3.0.9/lib/dpath.c ****             }
 2716              		.loc 1 610 17 view .LVU438
 2717 0a7f E93C0300 		jmp	.L119
 2717      00
 2718              	.LVL215:
 2719              	.L121:
 613:../Backend/gnu-efi-3.0.9/lib/dpath.c ****                 break ;
 2720              		.loc 1 613 17 view .LVU439
 2721 0a84 8B5608   		movl	8(%rsi), %edx
 2722 0a87 488D3500 		leaq	.LC61(%rip), %rsi
 2722      000000
 2723 0a8e B8000000 		movl	$0, %eax
 2723      00
 2724 0a93 E8000000 		call	CatPrint
 2724      00
 2725              	.LVL216:
 614:../Backend/gnu-efi-3.0.9/lib/dpath.c ****             }
 2726              		.loc 1 614 17 view .LVU440
 2727 0a98 E9230300 		jmp	.L119
 2727      00
 2728              	.LVL217:
 2729              	.L127:
 617:../Backend/gnu-efi-3.0.9/lib/dpath.c ****                 break ;
 2730              		.loc 1 617 17 view .LVU441
 2731 0a9d 8B5608   		movl	8(%rsi), %edx
 2732 0aa0 488D3500 		leaq	.LC62(%rip), %rsi
 2732      000000
 2733 0aa7 B8000000 		movl	$0, %eax
 2733      00
 2734 0aac E8000000 		call	CatPrint
 2734      00
 2735              	.LVL218:
 618:../Backend/gnu-efi-3.0.9/lib/dpath.c ****             }
 2736              		.loc 1 618 17 view .LVU442
 2737 0ab1 E90A0300 		jmp	.L119
 2737      00
 2738              	.LVL219:
 2739              	.L126:
 625:../Backend/gnu-efi-3.0.9/lib/dpath.c ****                 if ( AcpiExpanded-> UID )
 2740              		.loc 1 625 17 view .LVU443
 2741 0ab6 488D3500 		leaq	.LC64(%rip), %rsi
 2741      000000
 2742 0abd 4C89E7   		movq	%r12, %rdi
 2743              	.LVL220:
 625:../Backend/gnu-efi-3.0.9/lib/dpath.c ****                 if ( AcpiExpanded-> UID )
 2744              		.loc 1 625 17 is_stmt 0 view .LVU444
 2745 0ac0 B8000000 		movl	$0, %eax
 2745      00
 2746 0ac5 E8000000 		call	CatPrint
 2746      00
 2747              	.LVL221:
 626:../Backend/gnu-efi-3.0.9/lib/dpath.c ****                 {
 2748              		.loc 1 626 17 is_stmt 1 view .LVU445
 626:../Backend/gnu-efi-3.0.9/lib/dpath.c ****                 {
 2749              		.loc 1 626 34 is_stmt 0 view .LVU446
 2750 0aca 8B5308   		movl	8(%rbx), %edx
 626:../Backend/gnu-efi-3.0.9/lib/dpath.c ****                 {
 2751              		.loc 1 626 20 view .LVU447
 2752 0acd 85D2     		testl	%edx, %edx
 2753 0acf 7472     		je	.L130
 628:../Backend/gnu-efi-3.0.9/lib/dpath.c ****                 }
 2754              		.loc 1 628 19 is_stmt 1 view .LVU448
 2755 0ad1 488D3500 		leaq	.LC42(%rip), %rsi
 2755      000000
 2756 0ad8 4C89E7   		movq	%r12, %rdi
 2757 0adb B8000000 		movl	$0, %eax
 2757      00
 2758 0ae0 E8000000 		call	CatPrint
 2758      00
 2759              	.LVL222:
 2760              	.L131:
 634:../Backend/gnu-efi-3.0.9/lib/dpath.c ****                 {
 2761              		.loc 1 634 17 view .LVU449
 634:../Backend/gnu-efi-3.0.9/lib/dpath.c ****                 {
 2762              		.loc 1 634 34 is_stmt 0 view .LVU450
 2763 0ae5 8B530C   		movl	12(%rbx), %edx
 634:../Backend/gnu-efi-3.0.9/lib/dpath.c ****                 {
 2764              		.loc 1 634 20 view .LVU451
 2765 0ae8 85D2     		testl	%edx, %edx
 2766 0aea 746D     		je	.L132
 636:../Backend/gnu-efi-3.0.9/lib/dpath.c ****                 }
 2767              		.loc 1 636 19 is_stmt 1 view .LVU452
 2768 0aec 488D3500 		leaq	.LC66(%rip), %rsi
 2768      000000
 2769 0af3 4C89E7   		movq	%r12, %rdi
 2770 0af6 B8000000 		movl	$0, %eax
 2770      00
 2771 0afb E8000000 		call	CatPrint
 2771      00
 2772              	.LVL223:
 2773              	.L133:
 642:../Backend/gnu-efi-3.0.9/lib/dpath.c ****                 {
 2774              		.loc 1 642 17 view .LVU453
 642:../Backend/gnu-efi-3.0.9/lib/dpath.c ****                 {
 2775              		.loc 1 642 21 is_stmt 0 view .LVU454
 2776 0b00 0FB64302 		movzbl	2(%rbx), %eax
 2777 0b04 0FB65303 		movzbl	3(%rbx), %edx
 2778 0b08 C1E208   		sall	$8, %edx
 2779 0b0b 09D0     		orl	%edx, %eax
 642:../Backend/gnu-efi-3.0.9/lib/dpath.c ****                 {
 2780              		.loc 1 642 19 view .LVU455
 2781 0b0d 83F813   		cmpl	$19, %eax
 2782 0b10 0F8EED00 		jle	.L134
 2782      0000
 2783              	.LBB6:
 644:../Backend/gnu-efi-3.0.9/lib/dpath.c **** 
 2784              		.loc 1 644 19 is_stmt 1 view .LVU456
 2785              	.LVL224:
 646:../Backend/gnu-efi-3.0.9/lib/dpath.c ****                   {
 2786              		.loc 1 646 19 view .LVU457
 646:../Backend/gnu-efi-3.0.9/lib/dpath.c ****                   {
 2787              		.loc 1 646 21 is_stmt 0 view .LVU458
 2788 0b16 807B1000 		cmpb	$0, 16(%rbx)
 2789 0b1a 7463     		je	.L135
 2790              	.LBB7:
 648:../Backend/gnu-efi-3.0.9/lib/dpath.c **** 
 2791              		.loc 1 648 21 is_stmt 1 view .LVU459
 648:../Backend/gnu-efi-3.0.9/lib/dpath.c **** 
 2792              		.loc 1 648 57 is_stmt 0 view .LVU460
 2793 0b1c 4C8D6B10 		leaq	16(%rbx), %r13
 648:../Backend/gnu-efi-3.0.9/lib/dpath.c **** 
 2794              		.loc 1 648 21 view .LVU461
 2795 0b20 4C89EA   		movq	%r13, %rdx
 2796 0b23 488D3500 		leaq	.LC67(%rip), %rsi
 2796      000000
 2797 0b2a 4C89E7   		movq	%r12, %rdi
 2798 0b2d B8000000 		movl	$0, %eax
 2798      00
 2799 0b32 E8000000 		call	CatPrint
 2799      00
 2800              	.LVL225:
 650:../Backend/gnu-efi-3.0.9/lib/dpath.c ****                     while(byte != 0x00)
 2801              		.loc 1 650 21 is_stmt 1 view .LVU462
 651:../Backend/gnu-efi-3.0.9/lib/dpath.c ****                     {
 2802              		.loc 1 651 21 view .LVU463
 650:../Backend/gnu-efi-3.0.9/lib/dpath.c ****                     while(byte != 0x00)
 2803              		.loc 1 650 27 is_stmt 0 view .LVU464
 2804 0b37 B8010000 		movl	$1, %eax
 2804      00
 2805              	.LBE7:
 644:../Backend/gnu-efi-3.0.9/lib/dpath.c **** 
 2806              		.loc 1 644 25 view .LVU465
 2807 0b3c BD000000 		movl	$0, %ebp
 2807      00
 2808              	.LBB8:
 651:../Backend/gnu-efi-3.0.9/lib/dpath.c ****                     {
 2809              		.loc 1 651 26 view .LVU466
 2810 0b41 EB36     		jmp	.L136
 2811              	.LVL226:
 2812              	.L130:
 651:../Backend/gnu-efi-3.0.9/lib/dpath.c ****                     {
 2813              		.loc 1 651 26 view .LVU467
 2814              	.LBE8:
 2815              	.LBE6:
 632:../Backend/gnu-efi-3.0.9/lib/dpath.c ****                 }
 2816              		.loc 1 632 19 is_stmt 1 view .LVU468
 2817 0b43 488D3500 		leaq	.LC65(%rip), %rsi
 2817      000000
 2818 0b4a 4C89E7   		movq	%r12, %rdi
 2819 0b4d B8000000 		movl	$0, %eax
 2819      00
 2820 0b52 E8000000 		call	CatPrint
 2820      00
 2821              	.LVL227:
 2822 0b57 EB8C     		jmp	.L131
 2823              	.L132:
 640:../Backend/gnu-efi-3.0.9/lib/dpath.c ****                 }
 2824              		.loc 1 640 19 view .LVU469
 2825 0b59 488D3500 		leaq	.LC65(%rip), %rsi
 2825      000000
 2826 0b60 4C89E7   		movq	%r12, %rdi
 2827 0b63 B8000000 		movl	$0, %eax
 2827      00
 2828 0b68 E8000000 		call	CatPrint
 2828      00
 2829              	.LVL228:
 2830 0b6d EB91     		jmp	.L133
 2831              	.LVL229:
 2832              	.L137:
 2833              	.LBB11:
 2834              	.LBB9:
 653:../Backend/gnu-efi-3.0.9/lib/dpath.c ****                       bytelength++;
 2835              		.loc 1 653 23 view .LVU470
 653:../Backend/gnu-efi-3.0.9/lib/dpath.c ****                       bytelength++;
 2836              		.loc 1 653 28 is_stmt 0 view .LVU471
 2837 0b6f 410FB644 		movzbl	0(%r13,%rbp), %eax
 2837      2D00
 2838              	.LVL230:
 654:../Backend/gnu-efi-3.0.9/lib/dpath.c ****                     }
 2839              		.loc 1 654 23 is_stmt 1 view .LVU472
 654:../Backend/gnu-efi-3.0.9/lib/dpath.c ****                     }
 2840              		.loc 1 654 33 is_stmt 0 view .LVU473
 2841 0b75 4883C501 		addq	$1, %rbp
 2842              	.LVL231:
 2843              	.L136:
 651:../Backend/gnu-efi-3.0.9/lib/dpath.c ****                     {
 2844              		.loc 1 651 32 is_stmt 1 view .LVU474
 2845 0b79 84C0     		testb	%al, %al
 2846 0b7b 75F2     		jne	.L137
 2847 0b7d EB19     		jmp	.L138
 2848              	.LVL232:
 2849              	.L135:
 651:../Backend/gnu-efi-3.0.9/lib/dpath.c ****                     {
 2850              		.loc 1 651 32 is_stmt 0 view .LVU475
 2851              	.LBE9:
 659:../Backend/gnu-efi-3.0.9/lib/dpath.c ****                     bytelength++;
 2852              		.loc 1 659 21 is_stmt 1 view .LVU476
 2853 0b7f 488D3500 		leaq	.LC65(%rip), %rsi
 2853      000000
 2854 0b86 4C89E7   		movq	%r12, %rdi
 2855 0b89 B8000000 		movl	$0, %eax
 2855      00
 2856 0b8e E8000000 		call	CatPrint
 2856      00
 2857              	.LVL233:
 660:../Backend/gnu-efi-3.0.9/lib/dpath.c ****                   }
 2858              		.loc 1 660 21 view .LVU477
 660:../Backend/gnu-efi-3.0.9/lib/dpath.c ****                   }
 2859              		.loc 1 660 31 is_stmt 0 view .LVU478
 2860 0b93 BD010000 		movl	$1, %ebp
 2860      00
 2861              	.LVL234:
 2862              	.L138:
 663:../Backend/gnu-efi-3.0.9/lib/dpath.c ****                   {
 2863              		.loc 1 663 19 is_stmt 1 view .LVU479
 663:../Backend/gnu-efi-3.0.9/lib/dpath.c ****                   {
 2864              		.loc 1 663 24 is_stmt 0 view .LVU480
 2865 0b98 4883C310 		addq	$16, %rbx
 2866              	.LVL235:
 663:../Backend/gnu-efi-3.0.9/lib/dpath.c ****                   {
 2867              		.loc 1 663 58 view .LVU481
 2868 0b9c 488D142B 		leaq	(%rbx,%rbp), %rdx
 663:../Backend/gnu-efi-3.0.9/lib/dpath.c ****                   {
 2869              		.loc 1 663 21 view .LVU482
 2870 0ba0 803A00   		cmpb	$0, (%rdx)
 2871 0ba3 7429     		je	.L139
 2872              	.LBB10:
 665:../Backend/gnu-efi-3.0.9/lib/dpath.c **** 
 2873              		.loc 1 665 21 is_stmt 1 view .LVU483
 2874 0ba5 488D3500 		leaq	.LC67(%rip), %rsi
 2874      000000
 2875 0bac 4C89E7   		movq	%r12, %rdi
 2876 0baf B8000000 		movl	$0, %eax
 2876      00
 2877 0bb4 E8000000 		call	CatPrint
 2877      00
 2878              	.LVL236:
 667:../Backend/gnu-efi-3.0.9/lib/dpath.c ****                     while(byte != 0x00)
 2879              		.loc 1 667 21 view .LVU484
 668:../Backend/gnu-efi-3.0.9/lib/dpath.c ****                     {
 2880              		.loc 1 668 21 view .LVU485
 667:../Backend/gnu-efi-3.0.9/lib/dpath.c ****                     while(byte != 0x00)
 2881              		.loc 1 667 27 is_stmt 0 view .LVU486
 2882 0bb9 B8010000 		movl	$1, %eax
 2882      00
 668:../Backend/gnu-efi-3.0.9/lib/dpath.c ****                     {
 2883              		.loc 1 668 26 view .LVU487
 2884 0bbe EB08     		jmp	.L140
 2885              	.LVL237:
 2886              	.L141:
 670:../Backend/gnu-efi-3.0.9/lib/dpath.c ****                       bytelength++;
 2887              		.loc 1 670 23 is_stmt 1 view .LVU488
 670:../Backend/gnu-efi-3.0.9/lib/dpath.c ****                       bytelength++;
 2888              		.loc 1 670 28 is_stmt 0 view .LVU489
 2889 0bc0 0FB6042B 		movzbl	(%rbx,%rbp), %eax
 2890              	.LVL238:
 671:../Backend/gnu-efi-3.0.9/lib/dpath.c ****                     }
 2891              		.loc 1 671 23 is_stmt 1 view .LVU490
 671:../Backend/gnu-efi-3.0.9/lib/dpath.c ****                     }
 2892              		.loc 1 671 33 is_stmt 0 view .LVU491
 2893 0bc4 4883C501 		addq	$1, %rbp
 2894              	.LVL239:
 2895              	.L140:
 668:../Backend/gnu-efi-3.0.9/lib/dpath.c ****                     {
 2896              		.loc 1 668 32 is_stmt 1 view .LVU492
 2897 0bc8 84C0     		testb	%al, %al
 2898 0bca 75F4     		jne	.L141
 668:../Backend/gnu-efi-3.0.9/lib/dpath.c ****                     {
 2899              		.loc 1 668 32 is_stmt 0 view .LVU493
 2900 0bcc EB18     		jmp	.L142
 2901              	.LVL240:
 2902              	.L139:
 668:../Backend/gnu-efi-3.0.9/lib/dpath.c ****                     {
 2903              		.loc 1 668 32 view .LVU494
 2904              	.LBE10:
 676:../Backend/gnu-efi-3.0.9/lib/dpath.c ****                     bytelength++;
 2905              		.loc 1 676 21 is_stmt 1 view .LVU495
 2906 0bce 488D3500 		leaq	.LC65(%rip), %rsi
 2906      000000
 2907 0bd5 4C89E7   		movq	%r12, %rdi
 2908 0bd8 B8000000 		movl	$0, %eax
 2908      00
 2909 0bdd E8000000 		call	CatPrint
 2909      00
 2910              	.LVL241:
 677:../Backend/gnu-efi-3.0.9/lib/dpath.c ****                   }
 2911              		.loc 1 677 21 view .LVU496
 677:../Backend/gnu-efi-3.0.9/lib/dpath.c ****                   }
 2912              		.loc 1 677 31 is_stmt 0 view .LVU497
 2913 0be2 4883C501 		addq	$1, %rbp
 2914              	.LVL242:
 2915              	.L142:
 680:../Backend/gnu-efi-3.0.9/lib/dpath.c ****                   {
 2916              		.loc 1 680 19 is_stmt 1 view .LVU498
 680:../Backend/gnu-efi-3.0.9/lib/dpath.c ****                   {
 2917              		.loc 1 680 58 is_stmt 0 view .LVU499
 2918 0be6 488D142B 		leaq	(%rbx,%rbp), %rdx
 680:../Backend/gnu-efi-3.0.9/lib/dpath.c ****                   {
 2919              		.loc 1 680 21 view .LVU500
 2920 0bea 803A00   		cmpb	$0, (%rdx)
 2921 0bed 742D     		je	.L143
 682:../Backend/gnu-efi-3.0.9/lib/dpath.c ****                   }
 2922              		.loc 1 682 21 is_stmt 1 view .LVU501
 2923 0bef 488D3500 		leaq	.LC67(%rip), %rsi
 2923      000000
 2924 0bf6 4C89E7   		movq	%r12, %rdi
 2925 0bf9 B8000000 		movl	$0, %eax
 2925      00
 2926 0bfe E8000000 		call	CatPrint
 2926      00
 2927              	.LVL243:
 2928              	.L134:
 682:../Backend/gnu-efi-3.0.9/lib/dpath.c ****                   }
 2929              		.loc 1 682 21 is_stmt 0 view .LVU502
 2930              	.LBE11:
 690:../Backend/gnu-efi-3.0.9/lib/dpath.c ****                 break ;
 2931              		.loc 1 690 17 is_stmt 1 view .LVU503
 2932 0c03 488D3500 		leaq	.LC35(%rip), %rsi
 2932      000000
 2933 0c0a 4C89E7   		movq	%r12, %rdi
 2934 0c0d B8000000 		movl	$0, %eax
 2934      00
 2935 0c12 E8000000 		call	CatPrint
 2935      00
 2936              	.LVL244:
 691:../Backend/gnu-efi-3.0.9/lib/dpath.c ****             }
 2937              		.loc 1 691 17 view .LVU504
 2938 0c17 E9A40100 		jmp	.L119
 2938      00
 2939              	.LVL245:
 2940              	.L143:
 2941              	.LBB12:
 686:../Backend/gnu-efi-3.0.9/lib/dpath.c ****                   }
 2942              		.loc 1 686 21 view .LVU505
 2943 0c1c 488D3500 		leaq	.LC65(%rip), %rsi
 2943      000000
 2944 0c23 4C89E7   		movq	%r12, %rdi
 2945 0c26 B8000000 		movl	$0, %eax
 2945      00
 2946 0c2b E8000000 		call	CatPrint
 2946      00
 2947              	.LVL246:
 2948 0c30 EBD1     		jmp	.L134
 2949              	.LVL247:
 2950              	.L120:
 686:../Backend/gnu-efi-3.0.9/lib/dpath.c ****                   }
 2951              		.loc 1 686 21 is_stmt 0 view .LVU506
 2952              	.LBE12:
 695:../Backend/gnu-efi-3.0.9/lib/dpath.c ****         if ( AcpiExpanded-> HID )
 2953              		.loc 1 695 9 is_stmt 1 view .LVU507
 2954 0c32 488D3500 		leaq	.LC68(%rip), %rsi
 2954      000000
 2955 0c39 B8000000 		movl	$0, %eax
 2955      00
 2956 0c3e E8000000 		call	CatPrint
 2956      00
 2957              	.LVL248:
 696:../Backend/gnu-efi-3.0.9/lib/dpath.c ****         {
 2958              		.loc 1 696 9 view .LVU508
 696:../Backend/gnu-efi-3.0.9/lib/dpath.c ****         {
 2959              		.loc 1 696 26 is_stmt 0 view .LVU509
 2960 0c43 8B5304   		movl	4(%rbx), %edx
 696:../Backend/gnu-efi-3.0.9/lib/dpath.c ****         {
 2961              		.loc 1 696 12 view .LVU510
 2962 0c46 85D2     		testl	%edx, %edx
 2963 0c48 0F849900 		je	.L144
 2963      0000
 698:../Backend/gnu-efi-3.0.9/lib/dpath.c ****         }
 2964              		.loc 1 698 11 is_stmt 1 view .LVU511
 2965 0c4e 488D3500 		leaq	.LC69(%rip), %rsi
 2965      000000
 2966 0c55 4C89E7   		movq	%r12, %rdi
 2967 0c58 B8000000 		movl	$0, %eax
 2967      00
 2968 0c5d E8000000 		call	CatPrint
 2968      00
 2969              	.LVL249:
 2970              	.L145:
 704:../Backend/gnu-efi-3.0.9/lib/dpath.c ****         {
 2971              		.loc 1 704 9 view .LVU512
 704:../Backend/gnu-efi-3.0.9/lib/dpath.c ****         {
 2972              		.loc 1 704 26 is_stmt 0 view .LVU513
 2973 0c62 8B5308   		movl	8(%rbx), %edx
 704:../Backend/gnu-efi-3.0.9/lib/dpath.c ****         {
 2974              		.loc 1 704 12 view .LVU514
 2975 0c65 85D2     		testl	%edx, %edx
 2976 0c67 0F849300 		je	.L146
 2976      0000
 706:../Backend/gnu-efi-3.0.9/lib/dpath.c ****         }
 2977              		.loc 1 706 11 is_stmt 1 view .LVU515
 2978 0c6d 488D3500 		leaq	.LC42(%rip), %rsi
 2978      000000
 2979 0c74 4C89E7   		movq	%r12, %rdi
 2980 0c77 B8000000 		movl	$0, %eax
 2980      00
 2981 0c7c E8000000 		call	CatPrint
 2981      00
 2982              	.LVL250:
 2983              	.L147:
 712:../Backend/gnu-efi-3.0.9/lib/dpath.c ****         {
 2984              		.loc 1 712 9 view .LVU516
 712:../Backend/gnu-efi-3.0.9/lib/dpath.c ****         {
 2985              		.loc 1 712 26 is_stmt 0 view .LVU517
 2986 0c81 8B530C   		movl	12(%rbx), %edx
 712:../Backend/gnu-efi-3.0.9/lib/dpath.c ****         {
 2987              		.loc 1 712 12 view .LVU518
 2988 0c84 85D2     		testl	%edx, %edx
 2989 0c86 0F848D00 		je	.L148
 2989      0000
 714:../Backend/gnu-efi-3.0.9/lib/dpath.c ****         }
 2990              		.loc 1 714 11 is_stmt 1 view .LVU519
 2991 0c8c 488D3500 		leaq	.LC66(%rip), %rsi
 2991      000000
 2992 0c93 4C89E7   		movq	%r12, %rdi
 2993 0c96 B8000000 		movl	$0, %eax
 2993      00
 2994 0c9b E8000000 		call	CatPrint
 2994      00
 2995              	.LVL251:
 2996              	.L149:
 720:../Backend/gnu-efi-3.0.9/lib/dpath.c ****         {
 2997              		.loc 1 720 9 view .LVU520
 720:../Backend/gnu-efi-3.0.9/lib/dpath.c ****         {
 2998              		.loc 1 720 13 is_stmt 0 view .LVU521
 2999 0ca0 0FB64302 		movzbl	2(%rbx), %eax
 3000 0ca4 0FB65303 		movzbl	3(%rbx), %edx
 3001 0ca8 C1E208   		sall	$8, %edx
 3002 0cab 09D0     		orl	%edx, %eax
 720:../Backend/gnu-efi-3.0.9/lib/dpath.c ****         {
 3003              		.loc 1 720 11 view .LVU522
 3004 0cad 83F813   		cmpl	$19, %eax
 3005 0cb0 0F8EF600 		jle	.L150
 3005      0000
 3006              	.LBB13:
 722:../Backend/gnu-efi-3.0.9/lib/dpath.c **** 
 3007              		.loc 1 722 11 is_stmt 1 view .LVU523
 3008              	.LVL252:
 724:../Backend/gnu-efi-3.0.9/lib/dpath.c ****           {
 3009              		.loc 1 724 11 view .LVU524
 724:../Backend/gnu-efi-3.0.9/lib/dpath.c ****           {
 3010              		.loc 1 724 13 is_stmt 0 view .LVU525
 3011 0cb6 807B1000 		cmpb	$0, 16(%rbx)
 3012 0cba 0F84A800 		je	.L151
 3012      0000
 3013              	.LBB14:
 726:../Backend/gnu-efi-3.0.9/lib/dpath.c **** 
 3014              		.loc 1 726 13 is_stmt 1 view .LVU526
 726:../Backend/gnu-efi-3.0.9/lib/dpath.c **** 
 3015              		.loc 1 726 49 is_stmt 0 view .LVU527
 3016 0cc0 4C8D6B10 		leaq	16(%rbx), %r13
 726:../Backend/gnu-efi-3.0.9/lib/dpath.c **** 
 3017              		.loc 1 726 13 view .LVU528
 3018 0cc4 4C89EA   		movq	%r13, %rdx
 3019 0cc7 488D3500 		leaq	.LC67(%rip), %rsi
 3019      000000
 3020 0cce 4C89E7   		movq	%r12, %rdi
 3021 0cd1 B8000000 		movl	$0, %eax
 3021      00
 3022 0cd6 E8000000 		call	CatPrint
 3022      00
 3023              	.LVL253:
 728:../Backend/gnu-efi-3.0.9/lib/dpath.c ****             while(byte != 0x00)
 3024              		.loc 1 728 13 is_stmt 1 view .LVU529
 729:../Backend/gnu-efi-3.0.9/lib/dpath.c ****             {
 3025              		.loc 1 729 13 view .LVU530
 728:../Backend/gnu-efi-3.0.9/lib/dpath.c ****             while(byte != 0x00)
 3026              		.loc 1 728 19 is_stmt 0 view .LVU531
 3027 0cdb B8010000 		movl	$1, %eax
 3027      00
 3028              	.LBE14:
 722:../Backend/gnu-efi-3.0.9/lib/dpath.c **** 
 3029              		.loc 1 722 17 view .LVU532
 3030 0ce0 BD000000 		movl	$0, %ebp
 3030      00
 3031              	.LBB15:
 729:../Backend/gnu-efi-3.0.9/lib/dpath.c ****             {
 3032              		.loc 1 729 18 view .LVU533
 3033 0ce5 EB55     		jmp	.L152
 3034              	.LVL254:
 3035              	.L144:
 729:../Backend/gnu-efi-3.0.9/lib/dpath.c ****             {
 3036              		.loc 1 729 18 view .LVU534
 3037              	.LBE15:
 3038              	.LBE13:
 702:../Backend/gnu-efi-3.0.9/lib/dpath.c ****         }
 3039              		.loc 1 702 11 is_stmt 1 view .LVU535
 3040 0ce7 488D3500 		leaq	.LC70(%rip), %rsi
 3040      000000
 3041 0cee 4C89E7   		movq	%r12, %rdi
 3042 0cf1 B8000000 		movl	$0, %eax
 3042      00
 3043 0cf6 E8000000 		call	CatPrint
 3043      00
 3044              	.LVL255:
 3045 0cfb E962FFFF 		jmp	.L145
 3045      FF
 3046              	.L146:
 710:../Backend/gnu-efi-3.0.9/lib/dpath.c ****         }
 3047              		.loc 1 710 11 view .LVU536
 3048 0d00 488D3500 		leaq	.LC65(%rip), %rsi
 3048      000000
 3049 0d07 4C89E7   		movq	%r12, %rdi
 3050 0d0a B8000000 		movl	$0, %eax
 3050      00
 3051 0d0f E8000000 		call	CatPrint
 3051      00
 3052              	.LVL256:
 3053 0d14 E968FFFF 		jmp	.L147
 3053      FF
 3054              	.L148:
 718:../Backend/gnu-efi-3.0.9/lib/dpath.c ****         }
 3055              		.loc 1 718 11 view .LVU537
 3056 0d19 488D3500 		leaq	.LC65(%rip), %rsi
 3056      000000
 3057 0d20 4C89E7   		movq	%r12, %rdi
 3058 0d23 B8000000 		movl	$0, %eax
 3058      00
 3059 0d28 E8000000 		call	CatPrint
 3059      00
 3060              	.LVL257:
 3061 0d2d E96EFFFF 		jmp	.L149
 3061      FF
 3062              	.LVL258:
 3063              	.L153:
 3064              	.LBB19:
 3065              	.LBB16:
 731:../Backend/gnu-efi-3.0.9/lib/dpath.c ****               bytelength++;
 3066              		.loc 1 731 15 view .LVU538
 731:../Backend/gnu-efi-3.0.9/lib/dpath.c ****               bytelength++;
 3067              		.loc 1 731 20 is_stmt 0 view .LVU539
 3068 0d32 410FB644 		movzbl	0(%r13,%rbp), %eax
 3068      2D00
 3069              	.LVL259:
 732:../Backend/gnu-efi-3.0.9/lib/dpath.c ****             }
 3070              		.loc 1 732 15 is_stmt 1 view .LVU540
 732:../Backend/gnu-efi-3.0.9/lib/dpath.c ****             }
 3071              		.loc 1 732 25 is_stmt 0 view .LVU541
 3072 0d38 4883C501 		addq	$1, %rbp
 3073              	.LVL260:
 3074              	.L152:
 729:../Backend/gnu-efi-3.0.9/lib/dpath.c ****             {
 3075              		.loc 1 729 24 is_stmt 1 view .LVU542
 3076 0d3c 84C0     		testb	%al, %al
 3077 0d3e 75F2     		jne	.L153
 3078              	.LVL261:
 3079              	.L154:
 729:../Backend/gnu-efi-3.0.9/lib/dpath.c ****             {
 3080              		.loc 1 729 24 is_stmt 0 view .LVU543
 3081              	.LBE16:
 742:../Backend/gnu-efi-3.0.9/lib/dpath.c ****           {
 3082              		.loc 1 742 11 is_stmt 1 view .LVU544
 742:../Backend/gnu-efi-3.0.9/lib/dpath.c ****           {
 3083              		.loc 1 742 16 is_stmt 0 view .LVU545
 3084 0d40 4883C310 		addq	$16, %rbx
 3085              	.LVL262:
 742:../Backend/gnu-efi-3.0.9/lib/dpath.c ****           {
 3086              		.loc 1 742 50 view .LVU546
 3087 0d44 488D142B 		leaq	(%rbx,%rbp), %rdx
 742:../Backend/gnu-efi-3.0.9/lib/dpath.c ****           {
 3088              		.loc 1 742 13 view .LVU547
 3089 0d48 803A00   		cmpb	$0, (%rdx)
 3090 0d4b 747E     		je	.L155
 3091              	.LBB17:
 744:../Backend/gnu-efi-3.0.9/lib/dpath.c **** 
 3092              		.loc 1 744 13 is_stmt 1 view .LVU548
 3093 0d4d 488D3500 		leaq	.LC67(%rip), %rsi
 3093      000000
 3094 0d54 4C89E7   		movq	%r12, %rdi
 3095 0d57 B8000000 		movl	$0, %eax
 3095      00
 3096 0d5c E8000000 		call	CatPrint
 3096      00
 3097              	.LVL263:
 746:../Backend/gnu-efi-3.0.9/lib/dpath.c ****             while(byte != 0x00)
 3098              		.loc 1 746 13 view .LVU549
 747:../Backend/gnu-efi-3.0.9/lib/dpath.c ****             {
 3099              		.loc 1 747 13 view .LVU550
 746:../Backend/gnu-efi-3.0.9/lib/dpath.c ****             while(byte != 0x00)
 3100              		.loc 1 746 19 is_stmt 0 view .LVU551
 3101 0d61 B8010000 		movl	$1, %eax
 3101      00
 747:../Backend/gnu-efi-3.0.9/lib/dpath.c ****             {
 3102              		.loc 1 747 18 view .LVU552
 3103 0d66 EB23     		jmp	.L156
 3104              	.LVL264:
 3105              	.L151:
 747:../Backend/gnu-efi-3.0.9/lib/dpath.c ****             {
 3106              		.loc 1 747 18 view .LVU553
 3107              	.LBE17:
 738:../Backend/gnu-efi-3.0.9/lib/dpath.c ****             bytelength++;
 3108              		.loc 1 738 13 is_stmt 1 view .LVU554
 3109 0d68 488D3500 		leaq	.LC65(%rip), %rsi
 3109      000000
 3110 0d6f 4C89E7   		movq	%r12, %rdi
 3111 0d72 B8000000 		movl	$0, %eax
 3111      00
 3112 0d77 E8000000 		call	CatPrint
 3112      00
 3113              	.LVL265:
 739:../Backend/gnu-efi-3.0.9/lib/dpath.c ****           }
 3114              		.loc 1 739 13 view .LVU555
 739:../Backend/gnu-efi-3.0.9/lib/dpath.c ****           }
 3115              		.loc 1 739 23 is_stmt 0 view .LVU556
 3116 0d7c BD010000 		movl	$1, %ebp
 3116      00
 3117 0d81 EBBD     		jmp	.L154
 3118              	.LVL266:
 3119              	.L157:
 3120              	.LBB18:
 749:../Backend/gnu-efi-3.0.9/lib/dpath.c ****               bytelength++;
 3121              		.loc 1 749 15 is_stmt 1 view .LVU557
 749:../Backend/gnu-efi-3.0.9/lib/dpath.c ****               bytelength++;
 3122              		.loc 1 749 20 is_stmt 0 view .LVU558
 3123 0d83 0FB6042B 		movzbl	(%rbx,%rbp), %eax
 3124              	.LVL267:
 750:../Backend/gnu-efi-3.0.9/lib/dpath.c ****             }
 3125              		.loc 1 750 15 is_stmt 1 view .LVU559
 750:../Backend/gnu-efi-3.0.9/lib/dpath.c ****             }
 3126              		.loc 1 750 25 is_stmt 0 view .LVU560
 3127 0d87 4883C501 		addq	$1, %rbp
 3128              	.LVL268:
 3129              	.L156:
 747:../Backend/gnu-efi-3.0.9/lib/dpath.c ****             {
 3130              		.loc 1 747 24 is_stmt 1 view .LVU561
 3131 0d8b 84C0     		testb	%al, %al
 3132 0d8d 75F4     		jne	.L157
 3133              	.LVL269:
 3134              	.L158:
 747:../Backend/gnu-efi-3.0.9/lib/dpath.c ****             {
 3135              		.loc 1 747 24 is_stmt 0 view .LVU562
 3136              	.LBE18:
 759:../Backend/gnu-efi-3.0.9/lib/dpath.c ****           {
 3137              		.loc 1 759 11 is_stmt 1 view .LVU563
 759:../Backend/gnu-efi-3.0.9/lib/dpath.c ****           {
 3138              		.loc 1 759 50 is_stmt 0 view .LVU564
 3139 0d8f 488D142B 		leaq	(%rbx,%rbp), %rdx
 759:../Backend/gnu-efi-3.0.9/lib/dpath.c ****           {
 3140              		.loc 1 759 13 view .LVU565
 3141 0d93 803A00   		cmpb	$0, (%rdx)
 3142 0d96 744D     		je	.L159
 761:../Backend/gnu-efi-3.0.9/lib/dpath.c ****           }
 3143              		.loc 1 761 13 is_stmt 1 view .LVU566
 3144 0d98 488D3500 		leaq	.LC67(%rip), %rsi
 3144      000000
 3145 0d9f 4C89E7   		movq	%r12, %rdi
 3146 0da2 B8000000 		movl	$0, %eax
 3146      00
 3147 0da7 E8000000 		call	CatPrint
 3147      00
 3148              	.LVL270:
 3149              	.L150:
 761:../Backend/gnu-efi-3.0.9/lib/dpath.c ****           }
 3150              		.loc 1 761 13 is_stmt 0 view .LVU567
 3151              	.LBE19:
 769:../Backend/gnu-efi-3.0.9/lib/dpath.c ****     }
 3152              		.loc 1 769 9 is_stmt 1 view .LVU568
 3153 0dac 488D3500 		leaq	.LC35(%rip), %rsi
 3153      000000
 3154 0db3 4C89E7   		movq	%r12, %rdi
 3155 0db6 B8000000 		movl	$0, %eax
 3155      00
 3156 0dbb E8000000 		call	CatPrint
 3156      00
 3157              	.LVL271:
 3158              	.L119:
 772:../Backend/gnu-efi-3.0.9/lib/dpath.c **** // End ACPI Expanded addition
 3159              		.loc 1 772 1 is_stmt 0 view .LVU569
 3160 0dc0 4883C408 		addq	$8, %rsp
 3161              		.cfi_remember_state
 3162              		.cfi_def_cfa_offset 40
 3163 0dc4 5B       		popq	%rbx
 3164              		.cfi_restore 3
 3165              		.cfi_def_cfa_offset 32
 3166 0dc5 5D       		popq	%rbp
 3167              		.cfi_restore 6
 3168              		.cfi_def_cfa_offset 24
 3169 0dc6 415C     		popq	%r12
 3170              		.cfi_restore 12
 3171              		.cfi_def_cfa_offset 16
 3172              	.LVL272:
 772:../Backend/gnu-efi-3.0.9/lib/dpath.c **** // End ACPI Expanded addition
 3173              		.loc 1 772 1 view .LVU570
 3174 0dc8 415D     		popq	%r13
 3175              		.cfi_restore 13
 3176              		.cfi_def_cfa_offset 8
 3177 0dca C3       		ret
 3178              	.LVL273:
 3179              	.L155:
 3180              		.cfi_restore_state
 3181              	.LBB20:
 755:../Backend/gnu-efi-3.0.9/lib/dpath.c ****             bytelength++;
 3182              		.loc 1 755 13 is_stmt 1 view .LVU571
 3183 0dcb 488D3500 		leaq	.LC65(%rip), %rsi
 3183      000000
 3184 0dd2 4C89E7   		movq	%r12, %rdi
 3185 0dd5 B8000000 		movl	$0, %eax
 3185      00
 3186 0dda E8000000 		call	CatPrint
 3186      00
 3187              	.LVL274:
 756:../Backend/gnu-efi-3.0.9/lib/dpath.c ****           }
 3188              		.loc 1 756 13 view .LVU572
 756:../Backend/gnu-efi-3.0.9/lib/dpath.c ****           }
 3189              		.loc 1 756 23 is_stmt 0 view .LVU573
 3190 0ddf 4883C501 		addq	$1, %rbp
 3191              	.LVL275:
 756:../Backend/gnu-efi-3.0.9/lib/dpath.c ****           }
 3192              		.loc 1 756 23 view .LVU574
 3193 0de3 EBAA     		jmp	.L158
 3194              	.L159:
 765:../Backend/gnu-efi-3.0.9/lib/dpath.c ****           }
 3195              		.loc 1 765 13 is_stmt 1 view .LVU575
 3196 0de5 488D3500 		leaq	.LC65(%rip), %rsi
 3196      000000
 3197 0dec 4C89E7   		movq	%r12, %rdi
 3198 0def B8000000 		movl	$0, %eax
 3198      00
 3199 0df4 E8000000 		call	CatPrint
 3199      00
 3200              	.LVL276:
 3201 0df9 EBB1     		jmp	.L150
 3202              	.LBE20:
 3203              		.cfi_endproc
 3204              	.LFE17:
 3206              		.section	.rodata
 3207              		.align 2
 3208              	.LC71:
 3209 05be 4100     		.string	"A"
 3210 05c0 6300     		.string	"c"
 3211 05c2 7000     		.string	"p"
 3212 05c4 6900     		.string	"i"
 3213 05c6 2800     		.string	"("
 3214 05c8 5000     		.string	"P"
 3215 05ca 4E00     		.string	"N"
 3216 05cc 5000     		.string	"P"
 3217 05ce 2500     		.string	"%"
 3218 05d0 3000     		.string	"0"
 3219 05d2 3400     		.string	"4"
 3220 05d4 7800     		.string	"x"
 3221 05d6 00       		.string	""
 3222 05d7 00       		.string	""
 3223              		.align 2
 3224              	.LC72:
 3225 05d8 4100     		.string	"A"
 3226 05da 6300     		.string	"c"
 3227 05dc 7000     		.string	"p"
 3228 05de 6900     		.string	"i"
 3229 05e0 2800     		.string	"("
 3230 05e2 3000     		.string	"0"
 3231 05e4 7800     		.string	"x"
 3232 05e6 2500     		.string	"%"
 3233 05e8 5800     		.string	"X"
 3234 05ea 00       		.string	""
 3235 05eb 00       		.string	""
 3236              		.text
 3238              	_DevPathAcpi:
 3239              	.LVL277:
 3240              	.LFB18:
 783:../Backend/gnu-efi-3.0.9/lib/dpath.c ****     ACPI_HID_DEVICE_PATH        *Acpi;
 3241              		.loc 1 783 1 view -0
 3242              		.cfi_startproc
 783:../Backend/gnu-efi-3.0.9/lib/dpath.c ****     ACPI_HID_DEVICE_PATH        *Acpi;
 3243              		.loc 1 783 1 is_stmt 0 view .LVU577
 3244 0dfb F30F1EFA 		endbr64
 3245 0dff 55       		pushq	%rbp
 3246              		.cfi_def_cfa_offset 16
 3247              		.cfi_offset 6, -16
 3248 0e00 53       		pushq	%rbx
 3249              		.cfi_def_cfa_offset 24
 3250              		.cfi_offset 3, -24
 3251 0e01 4883EC08 		subq	$8, %rsp
 3252              		.cfi_def_cfa_offset 32
 3253 0e05 4889FD   		movq	%rdi, %rbp
 3254 0e08 4889F3   		movq	%rsi, %rbx
 784:../Backend/gnu-efi-3.0.9/lib/dpath.c **** 
 3255              		.loc 1 784 5 is_stmt 1 view .LVU578
 786:../Backend/gnu-efi-3.0.9/lib/dpath.c ****     if ((Acpi->HID & PNP_EISA_ID_MASK) == PNP_EISA_ID_CONST) {
 3256              		.loc 1 786 5 view .LVU579
 3257              	.LVL278:
 787:../Backend/gnu-efi-3.0.9/lib/dpath.c ****         switch ( EISA_ID_TO_NUM( Acpi-> HID ) ) {
 3258              		.loc 1 787 5 view .LVU580
 787:../Backend/gnu-efi-3.0.9/lib/dpath.c ****         switch ( EISA_ID_TO_NUM( Acpi-> HID ) ) {
 3259              		.loc 1 787 14 is_stmt 0 view .LVU581
 3260 0e0b 8B5604   		movl	4(%rsi), %edx
 787:../Backend/gnu-efi-3.0.9/lib/dpath.c ****         switch ( EISA_ID_TO_NUM( Acpi-> HID ) ) {
 3261              		.loc 1 787 8 view .LVU582
 3262 0e0e 6681FAD0 		cmpw	$16848, %dx
 3262      41
 3263 0e13 0F851701 		jne	.L162
 3263      0000
 788:../Backend/gnu-efi-3.0.9/lib/dpath.c ****             case 0x301 : {
 3264              		.loc 1 788 9 is_stmt 1 view .LVU583
 788:../Backend/gnu-efi-3.0.9/lib/dpath.c ****             case 0x301 : {
 3265              		.loc 1 788 18 is_stmt 0 view .LVU584
 3266 0e19 C1EA10   		shrl	$16, %edx
 788:../Backend/gnu-efi-3.0.9/lib/dpath.c ****             case 0x301 : {
 3267              		.loc 1 788 9 view .LVU585
 3268 0e1c 81FA0406 		cmpl	$1540, %edx
 3268      0000
 3269 0e22 0F849200 		je	.L163
 3269      0000
 3270 0e28 7735     		ja	.L164
 3271 0e2a 81FA0104 		cmpl	$1025, %edx
 3271      0000
 3272 0e30 7456     		je	.L165
 3273 0e32 81FA0105 		cmpl	$1281, %edx
 3273      0000
 3274 0e38 7467     		je	.L166
 3275 0e3a 81FA0103 		cmpl	$769, %edx
 3275      0000
 3276 0e40 0F85A300 		jne	.L168
 3276      0000
 790:../Backend/gnu-efi-3.0.9/lib/dpath.c ****                 break ;
 3277              		.loc 1 790 17 is_stmt 1 view .LVU586
 3278 0e46 8B5608   		movl	8(%rsi), %edx
 3279 0e49 488D3500 		leaq	.LC58(%rip), %rsi
 3279      000000
 3280              	.LVL279:
 790:../Backend/gnu-efi-3.0.9/lib/dpath.c ****                 break ;
 3281              		.loc 1 790 17 is_stmt 0 view .LVU587
 3282 0e50 B8000000 		movl	$0, %eax
 3282      00
 3283 0e55 E8000000 		call	CatPrint
 3283      00
 3284              	.LVL280:
 791:../Backend/gnu-efi-3.0.9/lib/dpath.c ****             }
 3285              		.loc 1 791 17 is_stmt 1 view .LVU588
 3286 0e5a E9FD0000 		jmp	.L161
 3286      00
 3287              	.LVL281:
 3288              	.L164:
 788:../Backend/gnu-efi-3.0.9/lib/dpath.c ****             case 0x301 : {
 3289              		.loc 1 788 9 is_stmt 0 view .LVU589
 3290 0e5f 81FA030A 		cmpl	$2563, %edx
 3290      0000
 3291 0e65 746C     		je	.L169
 3292 0e67 81FA080A 		cmpl	$2568, %edx
 3292      0000
 3293 0e6d 757A     		jne	.L168
 810:../Backend/gnu-efi-3.0.9/lib/dpath.c ****                 break ;
 3294              		.loc 1 810 17 is_stmt 1 view .LVU590
 3295 0e6f 8B5608   		movl	8(%rsi), %edx
 3296 0e72 488D3500 		leaq	.LC63(%rip), %rsi
 3296      000000
 3297 0e79 B8000000 		movl	$0, %eax
 3297      00
 3298 0e7e E8000000 		call	CatPrint
 3298      00
 3299              	.LVL282:
 811:../Backend/gnu-efi-3.0.9/lib/dpath.c ****             }
 3300              		.loc 1 811 17 view .LVU591
 3301 0e83 E9D40000 		jmp	.L161
 3301      00
 3302              	.LVL283:
 3303              	.L165:
 794:../Backend/gnu-efi-3.0.9/lib/dpath.c ****                 break ;
 3304              		.loc 1 794 17 view .LVU592
 3305 0e88 8B5608   		movl	8(%rsi), %edx
 3306 0e8b 488D3500 		leaq	.LC59(%rip), %rsi
 3306      000000
 3307 0e92 B8000000 		movl	$0, %eax
 3307      00
 3308 0e97 E8000000 		call	CatPrint
 3308      00
 3309              	.LVL284:
 795:../Backend/gnu-efi-3.0.9/lib/dpath.c ****             }
 3310              		.loc 1 795 17 view .LVU593
 3311 0e9c E9BB0000 		jmp	.L161
 3311      00
 3312              	.LVL285:
 3313              	.L166:
 798:../Backend/gnu-efi-3.0.9/lib/dpath.c ****                 break ;
 3314              		.loc 1 798 17 view .LVU594
 3315 0ea1 8B5608   		movl	8(%rsi), %edx
 3316 0ea4 488D3500 		leaq	.LC60(%rip), %rsi
 3316      000000
 3317 0eab B8000000 		movl	$0, %eax
 3317      00
 3318 0eb0 E8000000 		call	CatPrint
 3318      00
 3319              	.LVL286:
 799:../Backend/gnu-efi-3.0.9/lib/dpath.c ****             }
 3320              		.loc 1 799 17 view .LVU595
 3321 0eb5 E9A20000 		jmp	.L161
 3321      00
 3322              	.LVL287:
 3323              	.L163:
 802:../Backend/gnu-efi-3.0.9/lib/dpath.c ****                 break ;
 3324              		.loc 1 802 17 view .LVU596
 3325 0eba 8B5608   		movl	8(%rsi), %edx
 3326 0ebd 488D3500 		leaq	.LC61(%rip), %rsi
 3326      000000
 3327 0ec4 B8000000 		movl	$0, %eax
 3327      00
 3328 0ec9 E8000000 		call	CatPrint
 3328      00
 3329              	.LVL288:
 803:../Backend/gnu-efi-3.0.9/lib/dpath.c ****             }
 3330              		.loc 1 803 17 view .LVU597
 3331 0ece E9890000 		jmp	.L161
 3331      00
 3332              	.LVL289:
 3333              	.L169:
 806:../Backend/gnu-efi-3.0.9/lib/dpath.c ****                 break ;
 3334              		.loc 1 806 17 view .LVU598
 3335 0ed3 8B5608   		movl	8(%rsi), %edx
 3336 0ed6 488D3500 		leaq	.LC62(%rip), %rsi
 3336      000000
 3337 0edd B8000000 		movl	$0, %eax
 3337      00
 3338 0ee2 E8000000 		call	CatPrint
 3338      00
 3339              	.LVL290:
 807:../Backend/gnu-efi-3.0.9/lib/dpath.c ****             }
 3340              		.loc 1 807 17 view .LVU599
 3341 0ee7 EB73     		jmp	.L161
 3342              	.LVL291:
 3343              	.L168:
 814:../Backend/gnu-efi-3.0.9/lib/dpath.c ****                 if ( Acpi-> UID ) CatPrint( Str , L",%d" , Acpi-> UID ) ;
 3344              		.loc 1 814 17 view .LVU600
 3345 0ee9 488D3500 		leaq	.LC71(%rip), %rsi
 3345      000000
 3346 0ef0 4889EF   		movq	%rbp, %rdi
 3347              	.LVL292:
 814:../Backend/gnu-efi-3.0.9/lib/dpath.c ****                 if ( Acpi-> UID ) CatPrint( Str , L",%d" , Acpi-> UID ) ;
 3348              		.loc 1 814 17 is_stmt 0 view .LVU601
 3349 0ef3 B8000000 		movl	$0, %eax
 3349      00
 3350 0ef8 E8000000 		call	CatPrint
 3350      00
 3351              	.LVL293:
 815:../Backend/gnu-efi-3.0.9/lib/dpath.c ****                 CatPrint( Str , L")" ) ;
 3352              		.loc 1 815 17 is_stmt 1 view .LVU602
 815:../Backend/gnu-efi-3.0.9/lib/dpath.c ****                 CatPrint( Str , L")" ) ;
 3353              		.loc 1 815 26 is_stmt 0 view .LVU603
 3354 0efd 8B5308   		movl	8(%rbx), %edx
 815:../Backend/gnu-efi-3.0.9/lib/dpath.c ****                 CatPrint( Str , L")" ) ;
 3355              		.loc 1 815 20 view .LVU604
 3356 0f00 85D2     		testl	%edx, %edx
 3357 0f02 7516     		jne	.L175
 3358              	.L172:
 816:../Backend/gnu-efi-3.0.9/lib/dpath.c ****                 break ;
 3359              		.loc 1 816 17 is_stmt 1 view .LVU605
 3360 0f04 488D3500 		leaq	.LC35(%rip), %rsi
 3360      000000
 3361 0f0b 4889EF   		movq	%rbp, %rdi
 3362 0f0e B8000000 		movl	$0, %eax
 3362      00
 3363 0f13 E8000000 		call	CatPrint
 3363      00
 3364              	.LVL294:
 817:../Backend/gnu-efi-3.0.9/lib/dpath.c ****             }
 3365              		.loc 1 817 17 view .LVU606
 3366 0f18 EB42     		jmp	.L161
 3367              	.L175:
 815:../Backend/gnu-efi-3.0.9/lib/dpath.c ****                 CatPrint( Str , L")" ) ;
 3368              		.loc 1 815 35 discriminator 1 view .LVU607
 3369 0f1a 488D3500 		leaq	.LC42(%rip), %rsi
 3369      000000
 3370 0f21 4889EF   		movq	%rbp, %rdi
 3371 0f24 B8000000 		movl	$0, %eax
 3371      00
 3372 0f29 E8000000 		call	CatPrint
 3372      00
 3373              	.LVL295:
 3374 0f2e EBD4     		jmp	.L172
 3375              	.LVL296:
 3376              	.L162:
 821:../Backend/gnu-efi-3.0.9/lib/dpath.c ****         if ( Acpi-> UID ) CatPrint( Str , L",%d" , Acpi-> UID ) ;
 3377              		.loc 1 821 9 view .LVU608
 3378 0f30 488D3500 		leaq	.LC72(%rip), %rsi
 3378      000000
 3379 0f37 B8000000 		movl	$0, %eax
 3379      00
 3380 0f3c E8000000 		call	CatPrint
 3380      00
 3381              	.LVL297:
 822:../Backend/gnu-efi-3.0.9/lib/dpath.c ****         CatPrint( Str , L")" ) ; // Hmm... This was originally CatPrint( Str , L")" , Acpi-> HID , 
 3382              		.loc 1 822 9 view .LVU609
 822:../Backend/gnu-efi-3.0.9/lib/dpath.c ****         CatPrint( Str , L")" ) ; // Hmm... This was originally CatPrint( Str , L")" , Acpi-> HID , 
 3383              		.loc 1 822 18 is_stmt 0 view .LVU610
 3384 0f41 8B5308   		movl	8(%rbx), %edx
 822:../Backend/gnu-efi-3.0.9/lib/dpath.c ****         CatPrint( Str , L")" ) ; // Hmm... This was originally CatPrint( Str , L")" , Acpi-> HID , 
 3385              		.loc 1 822 12 view .LVU611
 3386 0f44 85D2     		testl	%edx, %edx
 3387 0f46 751B     		jne	.L176
 3388              	.L173:
 823:../Backend/gnu-efi-3.0.9/lib/dpath.c ****     }
 3389              		.loc 1 823 9 is_stmt 1 view .LVU612
 3390 0f48 488D3500 		leaq	.LC35(%rip), %rsi
 3390      000000
 3391 0f4f 4889EF   		movq	%rbp, %rdi
 3392 0f52 B8000000 		movl	$0, %eax
 3392      00
 3393 0f57 E8000000 		call	CatPrint
 3393      00
 3394              	.LVL298:
 3395              	.L161:
 825:../Backend/gnu-efi-3.0.9/lib/dpath.c **** 
 3396              		.loc 1 825 1 is_stmt 0 view .LVU613
 3397 0f5c 4883C408 		addq	$8, %rsp
 3398              		.cfi_remember_state
 3399              		.cfi_def_cfa_offset 24
 3400 0f60 5B       		popq	%rbx
 3401              		.cfi_restore 3
 3402              		.cfi_def_cfa_offset 16
 3403              	.LVL299:
 825:../Backend/gnu-efi-3.0.9/lib/dpath.c **** 
 3404              		.loc 1 825 1 view .LVU614
 3405 0f61 5D       		popq	%rbp
 3406              		.cfi_restore 6
 3407              		.cfi_def_cfa_offset 8
 3408              	.LVL300:
 825:../Backend/gnu-efi-3.0.9/lib/dpath.c **** 
 3409              		.loc 1 825 1 view .LVU615
 3410 0f62 C3       		ret
 3411              	.LVL301:
 3412              	.L176:
 3413              		.cfi_restore_state
 822:../Backend/gnu-efi-3.0.9/lib/dpath.c ****         CatPrint( Str , L")" ) ; // Hmm... This was originally CatPrint( Str , L")" , Acpi-> HID , 
 3414              		.loc 1 822 27 is_stmt 1 discriminator 1 view .LVU616
 3415 0f63 488D3500 		leaq	.LC42(%rip), %rsi
 3415      000000
 3416 0f6a 4889EF   		movq	%rbp, %rdi
 3417 0f6d B8000000 		movl	$0, %eax
 3417      00
 3418 0f72 E8000000 		call	CatPrint
 3418      00
 3419              	.LVL302:
 3420 0f77 EBCF     		jmp	.L173
 3421              		.cfi_endproc
 3422              	.LFE18:
 3424              		.section	.rodata
 3425              		.align 2
 3426              	.LC73:
 3427 05ec 4300     		.string	"C"
 3428 05ee 7400     		.string	"t"
 3429 05f0 7200     		.string	"r"
 3430 05f2 6C00     		.string	"l"
 3431 05f4 2800     		.string	"("
 3432 05f6 2500     		.string	"%"
 3433 05f8 6400     		.string	"d"
 3434 05fa 2900     		.string	")"
 3435 05fc 00       		.string	""
 3436 05fd 00       		.string	""
 3437              		.text
 3439              	_DevPathController:
 3440              	.LVL303:
 3441              	.LFB14:
 520:../Backend/gnu-efi-3.0.9/lib/dpath.c ****     CONTROLLER_DEVICE_PATH  *Controller;
 3442              		.loc 1 520 1 view -0
 3443              		.cfi_startproc
 520:../Backend/gnu-efi-3.0.9/lib/dpath.c ****     CONTROLLER_DEVICE_PATH  *Controller;
 3444              		.loc 1 520 1 is_stmt 0 view .LVU618
 3445 0f79 F30F1EFA 		endbr64
 3446 0f7d 4883EC08 		subq	$8, %rsp
 3447              		.cfi_def_cfa_offset 16
 521:../Backend/gnu-efi-3.0.9/lib/dpath.c **** 
 3448              		.loc 1 521 5 is_stmt 1 view .LVU619
 523:../Backend/gnu-efi-3.0.9/lib/dpath.c ****     CatPrint(Str, L"Ctrl(%d)",
 3449              		.loc 1 523 5 view .LVU620
 3450              	.LVL304:
 524:../Backend/gnu-efi-3.0.9/lib/dpath.c ****         Controller->Controller
 3451              		.loc 1 524 5 view .LVU621
 3452 0f81 8B5604   		movl	4(%rsi), %edx
 3453 0f84 488D3500 		leaq	.LC73(%rip), %rsi
 3453      000000
 3454              	.LVL305:
 524:../Backend/gnu-efi-3.0.9/lib/dpath.c ****         Controller->Controller
 3455              		.loc 1 524 5 is_stmt 0 view .LVU622
 3456 0f8b B8000000 		movl	$0, %eax
 3456      00
 3457 0f90 E8000000 		call	CatPrint
 3457      00
 3458              	.LVL306:
 527:../Backend/gnu-efi-3.0.9/lib/dpath.c **** 
 3459              		.loc 1 527 1 view .LVU623
 3460 0f95 4883C408 		addq	$8, %rsp
 3461              		.cfi_def_cfa_offset 8
 3462 0f99 C3       		ret
 3463              		.cfi_endproc
 3464              	.LFE14:
 3466              		.section	.rodata
 3467 05fe 0000     		.align 8
 3468              	.LC74:
 3469 0600 4D00     		.string	"M"
 3470 0602 6500     		.string	"e"
 3471 0604 6D00     		.string	"m"
 3472 0606 4D00     		.string	"M"
 3473 0608 6100     		.string	"a"
 3474 060a 7000     		.string	"p"
 3475 060c 2800     		.string	"("
 3476 060e 2500     		.string	"%"
 3477 0610 6400     		.string	"d"
 3478 0612 2C00     		.string	","
 3479 0614 3000     		.string	"0"
 3480 0616 7800     		.string	"x"
 3481 0618 2500     		.string	"%"
 3482 061a 7800     		.string	"x"
 3483 061c 2C00     		.string	","
 3484 061e 3000     		.string	"0"
 3485 0620 7800     		.string	"x"
 3486 0622 2500     		.string	"%"
 3487 0624 7800     		.string	"x"
 3488 0626 2900     		.string	")"
 3489 0628 00       		.string	""
 3490 0629 00       		.string	""
 3491              		.text
 3493              	_DevPathMemMap:
 3494              	.LVL307:
 3495              	.LFB13:
 504:../Backend/gnu-efi-3.0.9/lib/dpath.c ****     MEMMAP_DEVICE_PATH      *MemMap;
 3496              		.loc 1 504 1 is_stmt 1 view -0
 3497              		.cfi_startproc
 504:../Backend/gnu-efi-3.0.9/lib/dpath.c ****     MEMMAP_DEVICE_PATH      *MemMap;
 3498              		.loc 1 504 1 is_stmt 0 view .LVU625
 3499 0f9a F30F1EFA 		endbr64
 3500 0f9e 4883EC08 		subq	$8, %rsp
 3501              		.cfi_def_cfa_offset 16
 505:../Backend/gnu-efi-3.0.9/lib/dpath.c **** 
 3502              		.loc 1 505 5 is_stmt 1 view .LVU626
 507:../Backend/gnu-efi-3.0.9/lib/dpath.c ****     CatPrint(Str, L"MemMap(%d,0x%x,0x%x)",
 3503              		.loc 1 507 5 view .LVU627
 3504              	.LVL308:
 508:../Backend/gnu-efi-3.0.9/lib/dpath.c ****         MemMap->MemoryType,
 3505              		.loc 1 508 5 view .LVU628
 3506 0fa2 488B4E08 		movq	8(%rsi), %rcx
 3507 0fa6 8B5604   		movl	4(%rsi), %edx
 3508 0fa9 4C8B4610 		movq	16(%rsi), %r8
 3509 0fad 488D3500 		leaq	.LC74(%rip), %rsi
 3509      000000
 3510              	.LVL309:
 508:../Backend/gnu-efi-3.0.9/lib/dpath.c ****         MemMap->MemoryType,
 3511              		.loc 1 508 5 is_stmt 0 view .LVU629
 3512 0fb4 B8000000 		movl	$0, %eax
 3512      00
 3513 0fb9 E8000000 		call	CatPrint
 3513      00
 3514              	.LVL310:
 513:../Backend/gnu-efi-3.0.9/lib/dpath.c **** 
 3515              		.loc 1 513 1 view .LVU630
 3516 0fbe 4883C408 		addq	$8, %rsp
 3517              		.cfi_def_cfa_offset 8
 3518 0fc2 C3       		ret
 3519              		.cfi_endproc
 3520              	.LFE13:
 3522              		.section	.rodata
 3523              		.align 2
 3524              	.LC75:
 3525 062a 5000     		.string	"P"
 3526 062c 6300     		.string	"c"
 3527 062e 6300     		.string	"c"
 3528 0630 6100     		.string	"a"
 3529 0632 7200     		.string	"r"
 3530 0634 6400     		.string	"d"
 3531 0636 2800     		.string	"("
 3532 0638 3000     		.string	"0"
 3533 063a 7800     		.string	"x"
 3534 063c 2500     		.string	"%"
 3535 063e 7800     		.string	"x"
 3536 0640 2900     		.string	")"
 3537 0642 00       		.string	""
 3538 0643 00       		.string	""
 3539              		.text
 3541              	_DevPathPccard:
 3542              	.LVL311:
 3543              	.LFB12:
 492:../Backend/gnu-efi-3.0.9/lib/dpath.c ****     PCCARD_DEVICE_PATH      *Pccard;
 3544              		.loc 1 492 1 is_stmt 1 view -0
 3545              		.cfi_startproc
 492:../Backend/gnu-efi-3.0.9/lib/dpath.c ****     PCCARD_DEVICE_PATH      *Pccard;
 3546              		.loc 1 492 1 is_stmt 0 view .LVU632
 3547 0fc3 F30F1EFA 		endbr64
 3548 0fc7 4883EC08 		subq	$8, %rsp
 3549              		.cfi_def_cfa_offset 16
 493:../Backend/gnu-efi-3.0.9/lib/dpath.c **** 
 3550              		.loc 1 493 5 is_stmt 1 view .LVU633
 495:../Backend/gnu-efi-3.0.9/lib/dpath.c ****     CatPrint(Str, L"Pccard(0x%x)", Pccard-> FunctionNumber );
 3551              		.loc 1 495 5 view .LVU634
 3552              	.LVL312:
 496:../Backend/gnu-efi-3.0.9/lib/dpath.c **** }
 3553              		.loc 1 496 5 view .LVU635
 3554 0fcb 0FB65604 		movzbl	4(%rsi), %edx
 3555 0fcf 488D3500 		leaq	.LC75(%rip), %rsi
 3555      000000
 3556              	.LVL313:
 496:../Backend/gnu-efi-3.0.9/lib/dpath.c **** }
 3557              		.loc 1 496 5 is_stmt 0 view .LVU636
 3558 0fd6 B8000000 		movl	$0, %eax
 3558      00
 3559 0fdb E8000000 		call	CatPrint
 3559      00
 3560              	.LVL314:
 497:../Backend/gnu-efi-3.0.9/lib/dpath.c **** 
 3561              		.loc 1 497 1 view .LVU637
 3562 0fe0 4883C408 		addq	$8, %rsp
 3563              		.cfi_def_cfa_offset 8
 3564 0fe4 C3       		ret
 3565              		.cfi_endproc
 3566              	.LFE12:
 3568              		.section	.rodata
 3569              		.align 2
 3570              	.LC76:
 3571 0644 5000     		.string	"P"
 3572 0646 6300     		.string	"c"
 3573 0648 6900     		.string	"i"
 3574 064a 2800     		.string	"("
 3575 064c 3000     		.string	"0"
 3576 064e 7800     		.string	"x"
 3577 0650 2500     		.string	"%"
 3578 0652 7800     		.string	"x"
 3579 0654 2C00     		.string	","
 3580 0656 3000     		.string	"0"
 3581 0658 7800     		.string	"x"
 3582 065a 2500     		.string	"%"
 3583 065c 7800     		.string	"x"
 3584 065e 2900     		.string	")"
 3585 0660 00       		.string	""
 3586 0661 00       		.string	""
 3587              		.text
 3589              	_DevPathPci:
 3590              	.LVL315:
 3591              	.LFB11:
 480:../Backend/gnu-efi-3.0.9/lib/dpath.c ****     PCI_DEVICE_PATH         *Pci;
 3592              		.loc 1 480 1 is_stmt 1 view -0
 3593              		.cfi_startproc
 480:../Backend/gnu-efi-3.0.9/lib/dpath.c ****     PCI_DEVICE_PATH         *Pci;
 3594              		.loc 1 480 1 is_stmt 0 view .LVU639
 3595 0fe5 F30F1EFA 		endbr64
 3596 0fe9 4883EC08 		subq	$8, %rsp
 3597              		.cfi_def_cfa_offset 16
 481:../Backend/gnu-efi-3.0.9/lib/dpath.c **** 
 3598              		.loc 1 481 5 is_stmt 1 view .LVU640
 483:../Backend/gnu-efi-3.0.9/lib/dpath.c ****     CatPrint(Str, L"Pci(0x%x,0x%x)", Pci->Device, Pci->Function);
 3599              		.loc 1 483 5 view .LVU641
 3600              	.LVL316:
 484:../Backend/gnu-efi-3.0.9/lib/dpath.c **** }
 3601              		.loc 1 484 5 view .LVU642
 3602 0fed 0FB64E04 		movzbl	4(%rsi), %ecx
 3603 0ff1 0FB65605 		movzbl	5(%rsi), %edx
 3604 0ff5 488D3500 		leaq	.LC76(%rip), %rsi
 3604      000000
 3605              	.LVL317:
 484:../Backend/gnu-efi-3.0.9/lib/dpath.c **** }
 3606              		.loc 1 484 5 is_stmt 0 view .LVU643
 3607 0ffc B8000000 		movl	$0, %eax
 3607      00
 3608 1001 E8000000 		call	CatPrint
 3608      00
 3609              	.LVL318:
 485:../Backend/gnu-efi-3.0.9/lib/dpath.c **** 
 3610              		.loc 1 485 1 view .LVU644
 3611 1006 4883C408 		addq	$8, %rsp
 3612              		.cfi_def_cfa_offset 8
 3613 100a C3       		ret
 3614              		.cfi_endproc
 3615              	.LFE11:
 3617              		.section	.rodata
 3618 0662 00000000 		.align 8
 3618      0000
 3619              	.LC77:
 3620 0668 4800     		.string	"H"
 3621 066a 6100     		.string	"a"
 3622 066c 7200     		.string	"r"
 3623 066e 6400     		.string	"d"
 3624 0670 7700     		.string	"w"
 3625 0672 6100     		.string	"a"
 3626 0674 7200     		.string	"r"
 3627 0676 6500     		.string	"e"
 3628 0678 5000     		.string	"P"
 3629 067a 6100     		.string	"a"
 3630 067c 7400     		.string	"t"
 3631 067e 6800     		.string	"h"
 3632 0680 2800     		.string	"("
 3633 0682 2500     		.string	"%"
 3634 0684 6400     		.string	"d"
 3635 0686 00       		.string	""
 3636 0687 00       		.string	""
 3637              		.align 2
 3638              	.LC78:
 3639 0688 4100     		.string	"A"
 3640 068a 6300     		.string	"c"
 3641 068c 7000     		.string	"p"
 3642 068e 6900     		.string	"i"
 3643 0690 5000     		.string	"P"
 3644 0692 6100     		.string	"a"
 3645 0694 7400     		.string	"t"
 3646 0696 6800     		.string	"h"
 3647 0698 2800     		.string	"("
 3648 069a 2500     		.string	"%"
 3649 069c 6400     		.string	"d"
 3650 069e 00       		.string	""
 3651 069f 00       		.string	""
 3652              		.align 2
 3653              	.LC79:
 3654 06a0 4D00     		.string	"M"
 3655 06a2 7300     		.string	"s"
 3656 06a4 6700     		.string	"g"
 3657 06a6 2800     		.string	"("
 3658 06a8 2500     		.string	"%"
 3659 06aa 6400     		.string	"d"
 3660 06ac 00       		.string	""
 3661 06ad 00       		.string	""
 3662              		.align 2
 3663              	.LC80:
 3664 06ae 4D00     		.string	"M"
 3665 06b0 6500     		.string	"e"
 3666 06b2 6400     		.string	"d"
 3667 06b4 6900     		.string	"i"
 3668 06b6 6100     		.string	"a"
 3669 06b8 5000     		.string	"P"
 3670 06ba 6100     		.string	"a"
 3671 06bc 7400     		.string	"t"
 3672 06be 6800     		.string	"h"
 3673 06c0 2800     		.string	"("
 3674 06c2 2500     		.string	"%"
 3675 06c4 6400     		.string	"d"
 3676 06c6 00       		.string	""
 3677 06c7 00       		.string	""
 3678              		.align 2
 3679              	.LC81:
 3680 06c8 4200     		.string	"B"
 3681 06ca 6200     		.string	"b"
 3682 06cc 7300     		.string	"s"
 3683 06ce 5000     		.string	"P"
 3684 06d0 6100     		.string	"a"
 3685 06d2 7400     		.string	"t"
 3686 06d4 6800     		.string	"h"
 3687 06d6 2800     		.string	"("
 3688 06d8 2500     		.string	"%"
 3689 06da 6400     		.string	"d"
 3690 06dc 00       		.string	""
 3691 06dd 00       		.string	""
 3692              		.align 2
 3693              	.LC82:
 3694 06de 5000     		.string	"P"
 3695 06e0 6100     		.string	"a"
 3696 06e2 7400     		.string	"t"
 3697 06e4 6800     		.string	"h"
 3698 06e6 2800     		.string	"("
 3699 06e8 2500     		.string	"%"
 3700 06ea 6400     		.string	"d"
 3701 06ec 2C00     		.string	","
 3702 06ee 2500     		.string	"%"
 3703 06f0 6400     		.string	"d"
 3704 06f2 00       		.string	""
 3705 06f3 00       		.string	""
 3706              		.align 2
 3707              	.LC83:
 3708 06f4 2C00     		.string	","
 3709 06f6 3000     		.string	"0"
 3710 06f8 7800     		.string	"x"
 3711 06fa 00       		.string	""
 3712 06fb 00       		.string	""
 3713              		.text
 3715              	_DevPathNodeUnknown:
 3716              	.LVL319:
 3717              	.LFB42:
1242:../Backend/gnu-efi-3.0.9/lib/dpath.c **** 
1243:../Backend/gnu-efi-3.0.9/lib/dpath.c **** /**
1244:../Backend/gnu-efi-3.0.9/lib/dpath.c ****  * Print unknown device node.
1245:../Backend/gnu-efi-3.0.9/lib/dpath.c ****  * UEFI 2.4 § 9.6.1.6 table 89.
1246:../Backend/gnu-efi-3.0.9/lib/dpath.c ****  */
1247:../Backend/gnu-efi-3.0.9/lib/dpath.c **** 
1248:../Backend/gnu-efi-3.0.9/lib/dpath.c **** static VOID
1249:../Backend/gnu-efi-3.0.9/lib/dpath.c **** _DevPathNodeUnknown (
1250:../Backend/gnu-efi-3.0.9/lib/dpath.c ****     IN OUT POOL_PRINT       *Str,
1251:../Backend/gnu-efi-3.0.9/lib/dpath.c ****     IN VOID                 *DevPath
1252:../Backend/gnu-efi-3.0.9/lib/dpath.c ****     )
1253:../Backend/gnu-efi-3.0.9/lib/dpath.c **** {
 3718              		.loc 1 1253 1 is_stmt 1 view -0
 3719              		.cfi_startproc
 3720              		.loc 1 1253 1 is_stmt 0 view .LVU646
 3721 100b F30F1EFA 		endbr64
 3722 100f 4155     		pushq	%r13
 3723              		.cfi_def_cfa_offset 16
 3724              		.cfi_offset 13, -16
 3725 1011 4154     		pushq	%r12
 3726              		.cfi_def_cfa_offset 24
 3727              		.cfi_offset 12, -24
 3728 1013 55       		pushq	%rbp
 3729              		.cfi_def_cfa_offset 32
 3730              		.cfi_offset 6, -32
 3731 1014 53       		pushq	%rbx
 3732              		.cfi_def_cfa_offset 40
 3733              		.cfi_offset 3, -40
 3734 1015 4883EC08 		subq	$8, %rsp
 3735              		.cfi_def_cfa_offset 48
 3736 1019 4989FC   		movq	%rdi, %r12
 3737 101c 4889F3   		movq	%rsi, %rbx
1254:../Backend/gnu-efi-3.0.9/lib/dpath.c ****     EFI_DEVICE_PATH * Path ;
 3738              		.loc 1 1254 5 is_stmt 1 view .LVU647
1255:../Backend/gnu-efi-3.0.9/lib/dpath.c ****     UINT8 * value ;
 3739              		.loc 1 1255 5 view .LVU648
1256:../Backend/gnu-efi-3.0.9/lib/dpath.c ****     int length , index ;
 3740              		.loc 1 1256 5 view .LVU649
1257:../Backend/gnu-efi-3.0.9/lib/dpath.c ****     Path = DevPath ;
 3741              		.loc 1 1257 5 view .LVU650
 3742              	.LVL320:
1258:../Backend/gnu-efi-3.0.9/lib/dpath.c ****     value = DevPath ;
 3743              		.loc 1 1258 5 view .LVU651
1259:../Backend/gnu-efi-3.0.9/lib/dpath.c ****     value += 4 ;
 3744              		.loc 1 1259 5 view .LVU652
 3745              		.loc 1 1259 11 is_stmt 0 view .LVU653
 3746 101f 488D6E04 		leaq	4(%rsi), %rbp
 3747              	.LVL321:
1260:../Backend/gnu-efi-3.0.9/lib/dpath.c ****     switch ( Path-> Type ) {
 3748              		.loc 1 1260 5 is_stmt 1 view .LVU654
 3749              		.loc 1 1260 18 is_stmt 0 view .LVU655
 3750 1023 0FB616   		movzbl	(%rsi), %edx
 3751              		.loc 1 1260 5 view .LVU656
 3752 1026 80FA05   		cmpb	$5, %dl
 3753 1029 0F879E00 		ja	.L186
 3753      0000
 3754 102f 0FB6C2   		movzbl	%dl, %eax
 3755 1032 488D0D00 		leaq	.L188(%rip), %rcx
 3755      000000
 3756 1039 48630481 		movslq	(%rcx,%rax,4), %rax
 3757 103d 4801C8   		addq	%rcx, %rax
 3758 1040 3EFFE0   		notrack jmp	*%rax
 3759              		.section	.rodata
 3760              		.align 4
 3761              		.align 4
 3762              	.L188:
 3763 06fc 00000000 		.long	.L186-.L188
 3764 0700 00000000 		.long	.L192-.L188
 3765 0704 00000000 		.long	.L191-.L188
 3766 0708 00000000 		.long	.L190-.L188
 3767 070c 00000000 		.long	.L189-.L188
 3768 0710 00000000 		.long	.L187-.L188
 3769              		.text
 3770              	.L192:
1261:../Backend/gnu-efi-3.0.9/lib/dpath.c ****         case HARDWARE_DEVICE_PATH : { /* Unknown Hardware Device Path */
1262:../Backend/gnu-efi-3.0.9/lib/dpath.c ****             CatPrint( Str , L"HardwarePath(%d" , Path-> SubType ) ;
 3771              		.loc 1 1262 13 is_stmt 1 view .LVU657
 3772 1043 0FB65601 		movzbl	1(%rsi), %edx
 3773 1047 488D3500 		leaq	.LC77(%rip), %rsi
 3773      000000
 3774              	.LVL322:
 3775              		.loc 1 1262 13 is_stmt 0 view .LVU658
 3776 104e B8000000 		movl	$0, %eax
 3776      00
 3777 1053 E8000000 		call	CatPrint
 3777      00
 3778              	.LVL323:
1263:../Backend/gnu-efi-3.0.9/lib/dpath.c ****             break ;
 3779              		.loc 1 1263 13 is_stmt 1 view .LVU659
 3780              	.L193:
1264:../Backend/gnu-efi-3.0.9/lib/dpath.c ****         }
1265:../Backend/gnu-efi-3.0.9/lib/dpath.c ****         case ACPI_DEVICE_PATH : { /* Unknown ACPI Device Path */
1266:../Backend/gnu-efi-3.0.9/lib/dpath.c ****             CatPrint( Str , L"AcpiPath(%d" , Path-> SubType ) ;
1267:../Backend/gnu-efi-3.0.9/lib/dpath.c ****             break ;
1268:../Backend/gnu-efi-3.0.9/lib/dpath.c ****         }
1269:../Backend/gnu-efi-3.0.9/lib/dpath.c ****         case MESSAGING_DEVICE_PATH : { /* Unknown Messaging Device Path */
1270:../Backend/gnu-efi-3.0.9/lib/dpath.c ****             CatPrint( Str , L"Msg(%d" , Path-> SubType ) ;
1271:../Backend/gnu-efi-3.0.9/lib/dpath.c ****             break ;
1272:../Backend/gnu-efi-3.0.9/lib/dpath.c ****         }
1273:../Backend/gnu-efi-3.0.9/lib/dpath.c ****         case MEDIA_DEVICE_PATH : { /* Unknown Media Device Path */
1274:../Backend/gnu-efi-3.0.9/lib/dpath.c ****             CatPrint( Str , L"MediaPath(%d" , Path-> SubType ) ;
1275:../Backend/gnu-efi-3.0.9/lib/dpath.c ****             break ;
1276:../Backend/gnu-efi-3.0.9/lib/dpath.c ****         }
1277:../Backend/gnu-efi-3.0.9/lib/dpath.c ****         case BBS_DEVICE_PATH : { /* Unknown BIOS Boot Specification Device Path */
1278:../Backend/gnu-efi-3.0.9/lib/dpath.c ****             CatPrint( Str , L"BbsPath(%d" , Path-> SubType ) ;
1279:../Backend/gnu-efi-3.0.9/lib/dpath.c ****             break ;
1280:../Backend/gnu-efi-3.0.9/lib/dpath.c ****         }
1281:../Backend/gnu-efi-3.0.9/lib/dpath.c ****         default : { /* Unknown Device Path */
1282:../Backend/gnu-efi-3.0.9/lib/dpath.c ****             CatPrint( Str , L"Path(%d,%d" , Path-> Type , Path-> SubType ) ;
1283:../Backend/gnu-efi-3.0.9/lib/dpath.c ****             break ;
1284:../Backend/gnu-efi-3.0.9/lib/dpath.c ****         }
1285:../Backend/gnu-efi-3.0.9/lib/dpath.c ****     }
1286:../Backend/gnu-efi-3.0.9/lib/dpath.c ****     length = DevicePathNodeLength( Path ) ;
 3781              		.loc 1 1286 5 view .LVU660
 3782              		.loc 1 1286 14 is_stmt 0 view .LVU661
 3783 1058 440FB66B 		movzbl	2(%rbx), %r13d
 3783      02
 3784 105d 0FB64303 		movzbl	3(%rbx), %eax
 3785 1061 C1E008   		sall	$8, %eax
 3786              		.loc 1 1286 12 view .LVU662
 3787 1064 4109C5   		orl	%eax, %r13d
 3788              	.LVL324:
1287:../Backend/gnu-efi-3.0.9/lib/dpath.c ****     for ( index = 0 ; index < length ; index ++ ) {
 3789              		.loc 1 1287 5 is_stmt 1 view .LVU663
 3790              		.loc 1 1287 17 is_stmt 0 view .LVU664
 3791 1067 BB000000 		movl	$0, %ebx
 3791      00
 3792              	.LVL325:
 3793              		.loc 1 1287 5 view .LVU665
 3794 106c E99B0000 		jmp	.L194
 3794      00
 3795              	.LVL326:
 3796              	.L191:
1266:../Backend/gnu-efi-3.0.9/lib/dpath.c ****             break ;
 3797              		.loc 1 1266 13 is_stmt 1 view .LVU666
 3798 1071 0FB65601 		movzbl	1(%rsi), %edx
 3799 1075 488D3500 		leaq	.LC78(%rip), %rsi
 3799      000000
 3800 107c B8000000 		movl	$0, %eax
 3800      00
 3801 1081 E8000000 		call	CatPrint
 3801      00
 3802              	.LVL327:
1267:../Backend/gnu-efi-3.0.9/lib/dpath.c ****         }
 3803              		.loc 1 1267 13 view .LVU667
 3804 1086 EBD0     		jmp	.L193
 3805              	.LVL328:
 3806              	.L190:
1270:../Backend/gnu-efi-3.0.9/lib/dpath.c ****             break ;
 3807              		.loc 1 1270 13 view .LVU668
 3808 1088 0FB65601 		movzbl	1(%rsi), %edx
 3809 108c 488D3500 		leaq	.LC79(%rip), %rsi
 3809      000000
 3810 1093 B8000000 		movl	$0, %eax
 3810      00
 3811 1098 E8000000 		call	CatPrint
 3811      00
 3812              	.LVL329:
1271:../Backend/gnu-efi-3.0.9/lib/dpath.c ****         }
 3813              		.loc 1 1271 13 view .LVU669
 3814 109d EBB9     		jmp	.L193
 3815              	.LVL330:
 3816              	.L189:
1274:../Backend/gnu-efi-3.0.9/lib/dpath.c ****             break ;
 3817              		.loc 1 1274 13 view .LVU670
 3818 109f 0FB65601 		movzbl	1(%rsi), %edx
 3819 10a3 488D3500 		leaq	.LC80(%rip), %rsi
 3819      000000
 3820 10aa B8000000 		movl	$0, %eax
 3820      00
 3821 10af E8000000 		call	CatPrint
 3821      00
 3822              	.LVL331:
1275:../Backend/gnu-efi-3.0.9/lib/dpath.c ****         }
 3823              		.loc 1 1275 13 view .LVU671
 3824 10b4 EBA2     		jmp	.L193
 3825              	.LVL332:
 3826              	.L187:
1278:../Backend/gnu-efi-3.0.9/lib/dpath.c ****             break ;
 3827              		.loc 1 1278 13 view .LVU672
 3828 10b6 0FB65601 		movzbl	1(%rsi), %edx
 3829 10ba 488D3500 		leaq	.LC81(%rip), %rsi
 3829      000000
 3830 10c1 B8000000 		movl	$0, %eax
 3830      00
 3831 10c6 E8000000 		call	CatPrint
 3831      00
 3832              	.LVL333:
1279:../Backend/gnu-efi-3.0.9/lib/dpath.c ****         }
 3833              		.loc 1 1279 13 view .LVU673
 3834 10cb EB8B     		jmp	.L193
 3835              	.LVL334:
 3836              	.L186:
1282:../Backend/gnu-efi-3.0.9/lib/dpath.c ****             break ;
 3837              		.loc 1 1282 13 view .LVU674
 3838 10cd 0FB64B01 		movzbl	1(%rbx), %ecx
 3839 10d1 0FB6D2   		movzbl	%dl, %edx
 3840 10d4 488D3500 		leaq	.LC82(%rip), %rsi
 3840      000000
 3841 10db 4C89E7   		movq	%r12, %rdi
 3842              	.LVL335:
1282:../Backend/gnu-efi-3.0.9/lib/dpath.c ****             break ;
 3843              		.loc 1 1282 13 is_stmt 0 view .LVU675
 3844 10de B8000000 		movl	$0, %eax
 3844      00
 3845 10e3 E8000000 		call	CatPrint
 3845      00
 3846              	.LVL336:
1283:../Backend/gnu-efi-3.0.9/lib/dpath.c ****         }
 3847              		.loc 1 1283 13 is_stmt 1 view .LVU676
 3848 10e8 E96BFFFF 		jmp	.L193
 3848      FF
 3849              	.LVL337:
 3850              	.L195:
1288:../Backend/gnu-efi-3.0.9/lib/dpath.c ****         if ( index == 0 ) CatPrint( Str , L",0x" ) ;
1289:../Backend/gnu-efi-3.0.9/lib/dpath.c ****         CatPrint( Str , L"%02x" , * value ) ;
 3851              		.loc 1 1289 9 view .LVU677
 3852 10ed 0FB65500 		movzbl	0(%rbp), %edx
 3853 10f1 488D3500 		leaq	.LC41(%rip), %rsi
 3853      000000
 3854 10f8 4C89E7   		movq	%r12, %rdi
 3855 10fb B8000000 		movl	$0, %eax
 3855      00
 3856 1100 E8000000 		call	CatPrint
 3856      00
 3857              	.LVL338:
1290:../Backend/gnu-efi-3.0.9/lib/dpath.c **** 	value ++ ;
 3858              		.loc 1 1290 2 view .LVU678
 3859              		.loc 1 1290 8 is_stmt 0 view .LVU679
 3860 1105 4883C501 		addq	$1, %rbp
 3861              	.LVL339:
1287:../Backend/gnu-efi-3.0.9/lib/dpath.c ****         if ( index == 0 ) CatPrint( Str , L",0x" ) ;
 3862              		.loc 1 1287 46 is_stmt 1 discriminator 2 view .LVU680
 3863 1109 83C301   		addl	$1, %ebx
 3864              	.LVL340:
 3865              	.L194:
1287:../Backend/gnu-efi-3.0.9/lib/dpath.c ****         if ( index == 0 ) CatPrint( Str , L",0x" ) ;
 3866              		.loc 1 1287 29 discriminator 1 view .LVU681
 3867 110c 4439EB   		cmpl	%r13d, %ebx
 3868 110f 7D1A     		jge	.L198
1288:../Backend/gnu-efi-3.0.9/lib/dpath.c ****         if ( index == 0 ) CatPrint( Str , L",0x" ) ;
 3869              		.loc 1 1288 9 view .LVU682
1288:../Backend/gnu-efi-3.0.9/lib/dpath.c ****         if ( index == 0 ) CatPrint( Str , L",0x" ) ;
 3870              		.loc 1 1288 12 is_stmt 0 view .LVU683
 3871 1111 85DB     		testl	%ebx, %ebx
 3872 1113 75D8     		jne	.L195
1288:../Backend/gnu-efi-3.0.9/lib/dpath.c ****         if ( index == 0 ) CatPrint( Str , L",0x" ) ;
 3873              		.loc 1 1288 27 is_stmt 1 discriminator 1 view .LVU684
 3874 1115 488D3500 		leaq	.LC83(%rip), %rsi
 3874      000000
 3875 111c 4C89E7   		movq	%r12, %rdi
 3876 111f B8000000 		movl	$0, %eax
 3876      00
 3877 1124 E8000000 		call	CatPrint
 3877      00
 3878              	.LVL341:
 3879 1129 EBC2     		jmp	.L195
 3880              	.L198:
1291:../Backend/gnu-efi-3.0.9/lib/dpath.c ****     }
1292:../Backend/gnu-efi-3.0.9/lib/dpath.c ****     CatPrint( Str , L")" ) ;
 3881              		.loc 1 1292 5 view .LVU685
 3882 112b 488D3500 		leaq	.LC35(%rip), %rsi
 3882      000000
 3883 1132 4C89E7   		movq	%r12, %rdi
 3884 1135 B8000000 		movl	$0, %eax
 3884      00
 3885 113a E8000000 		call	CatPrint
 3885      00
 3886              	.LVL342:
1293:../Backend/gnu-efi-3.0.9/lib/dpath.c **** }
 3887              		.loc 1 1293 1 is_stmt 0 view .LVU686
 3888 113f 4883C408 		addq	$8, %rsp
 3889              		.cfi_def_cfa_offset 40
 3890 1143 5B       		popq	%rbx
 3891              		.cfi_restore 3
 3892              		.cfi_def_cfa_offset 32
 3893              	.LVL343:
 3894              		.loc 1 1293 1 view .LVU687
 3895 1144 5D       		popq	%rbp
 3896              		.cfi_restore 6
 3897              		.cfi_def_cfa_offset 24
 3898              	.LVL344:
 3899              		.loc 1 1293 1 view .LVU688
 3900 1145 415C     		popq	%r12
 3901              		.cfi_restore 12
 3902              		.cfi_def_cfa_offset 16
 3903              	.LVL345:
 3904              		.loc 1 1293 1 view .LVU689
 3905 1147 415D     		popq	%r13
 3906              		.cfi_restore 13
 3907              		.cfi_def_cfa_offset 8
 3908              	.LVL346:
 3909              		.loc 1 1293 1 view .LVU690
 3910 1149 C3       		ret
 3911              		.cfi_endproc
 3912              	.LFE42:
 3914              		.section	.rodata
 3915              		.align 2
 3916              	.LC84:
 3917 0714 4800     		.string	"H"
 3918 0716 7700     		.string	"w"
 3919 0718 00       		.string	""
 3920 0719 00       		.string	""
 3921              		.align 2
 3922              	.LC85:
 3923 071a 4D00     		.string	"M"
 3924 071c 7300     		.string	"s"
 3925 071e 6700     		.string	"g"
 3926 0720 00       		.string	""
 3927 0721 00       		.string	""
 3928              		.align 2
 3929              	.LC86:
 3930 0722 4D00     		.string	"M"
 3931 0724 6500     		.string	"e"
 3932 0726 6400     		.string	"d"
 3933 0728 6900     		.string	"i"
 3934 072a 6100     		.string	"a"
 3935 072c 00       		.string	""
 3936 072d 00       		.string	""
 3937              		.align 2
 3938              	.LC87:
 3939 072e 5600     		.string	"V"
 3940 0730 6500     		.string	"e"
 3941 0732 6E00     		.string	"n"
 3942 0734 2500     		.string	"%"
 3943 0736 7300     		.string	"s"
 3944 0738 2800     		.string	"("
 3945 073a 2500     		.string	"%"
 3946 073c 6700     		.string	"g"
 3947 073e 00       		.string	""
 3948 073f 00       		.string	""
 3949              		.align 2
 3950              	.LC88:
 3951 0740 3A00     		.string	":"
 3952 0742 2500     		.string	"%"
 3953 0744 3000     		.string	"0"
 3954 0746 3200     		.string	"2"
 3955 0748 7800     		.string	"x"
 3956 074a 2900     		.string	")"
 3957 074c 00       		.string	""
 3958 074d 00       		.string	""
 3959              		.text
 3961              	_DevPathVendor:
 3962              	.LVL347:
 3963              	.LFB15:
 534:../Backend/gnu-efi-3.0.9/lib/dpath.c ****     VENDOR_DEVICE_PATH                  *Vendor;
 3964              		.loc 1 534 1 is_stmt 1 view -0
 3965              		.cfi_startproc
 534:../Backend/gnu-efi-3.0.9/lib/dpath.c ****     VENDOR_DEVICE_PATH                  *Vendor;
 3966              		.loc 1 534 1 is_stmt 0 view .LVU692
 3967 114a F30F1EFA 		endbr64
 3968 114e 4154     		pushq	%r12
 3969              		.cfi_def_cfa_offset 16
 3970              		.cfi_offset 12, -16
 3971 1150 55       		pushq	%rbp
 3972              		.cfi_def_cfa_offset 24
 3973              		.cfi_offset 6, -24
 3974 1151 53       		pushq	%rbx
 3975              		.cfi_def_cfa_offset 32
 3976              		.cfi_offset 3, -32
 3977 1152 4889FD   		movq	%rdi, %rbp
 3978 1155 4889F3   		movq	%rsi, %rbx
 535:../Backend/gnu-efi-3.0.9/lib/dpath.c ****     CHAR16                              *Type;
 3979              		.loc 1 535 5 is_stmt 1 view .LVU693
 536:../Backend/gnu-efi-3.0.9/lib/dpath.c ****     UNKNOWN_DEVICE_VENDOR_DEVICE_PATH   *UnknownDevPath;
 3980              		.loc 1 536 5 view .LVU694
 537:../Backend/gnu-efi-3.0.9/lib/dpath.c **** 
 3981              		.loc 1 537 5 view .LVU695
 539:../Backend/gnu-efi-3.0.9/lib/dpath.c ****     switch (DevicePathType(&Vendor->Header)) {
 3982              		.loc 1 539 5 view .LVU696
 3983              	.LVL348:
 540:../Backend/gnu-efi-3.0.9/lib/dpath.c ****     case HARDWARE_DEVICE_PATH:  Type = L"Hw";        break;
 3984              		.loc 1 540 5 view .LVU697
 3985 1158 0FB606   		movzbl	(%rsi), %eax
 3986 115b 83E07F   		andl	$127, %eax
 3987 115e 3C03     		cmpb	$3, %al
 3988 1160 7411     		je	.L203
 3989 1162 3C04     		cmpb	$4, %al
 3990 1164 7416     		je	.L204
 3991 1166 3C01     		cmpb	$1, %al
 3992 1168 7560     		jne	.L205
 3993 116a 488D1500 		leaq	.LC84(%rip), %rdx
 3993      000000
 3994 1171 EB10     		jmp	.L200
 3995              	.L203:
 542:../Backend/gnu-efi-3.0.9/lib/dpath.c ****     case MEDIA_DEVICE_PATH:     Type = L"Media";     break;
 3996              		.loc 1 542 38 is_stmt 0 view .LVU698
 3997 1173 488D1500 		leaq	.LC85(%rip), %rdx
 3997      000000
 3998 117a EB07     		jmp	.L200
 3999              	.L204:
 543:../Backend/gnu-efi-3.0.9/lib/dpath.c ****     default:                    Type = L"?";         break;
 4000              		.loc 1 543 38 view .LVU699
 4001 117c 488D1500 		leaq	.LC86(%rip), %rdx
 4001      000000
 4002              	.L200:
 4003              	.LVL349:
 547:../Backend/gnu-efi-3.0.9/lib/dpath.c ****     if (CompareGuid (&Vendor->Guid, &UnknownDevice) == 0) {
 4004              		.loc 1 547 5 is_stmt 1 view .LVU700
 4005 1183 4C8D6304 		leaq	4(%rbx), %r12
 4006 1187 4C89E1   		movq	%r12, %rcx
 4007 118a 488D3500 		leaq	.LC87(%rip), %rsi
 4007      000000
 4008              	.LVL350:
 547:../Backend/gnu-efi-3.0.9/lib/dpath.c ****     if (CompareGuid (&Vendor->Guid, &UnknownDevice) == 0) {
 4009              		.loc 1 547 5 is_stmt 0 view .LVU701
 4010 1191 4889EF   		movq	%rbp, %rdi
 4011              	.LVL351:
 547:../Backend/gnu-efi-3.0.9/lib/dpath.c ****     if (CompareGuid (&Vendor->Guid, &UnknownDevice) == 0) {
 4012              		.loc 1 547 5 view .LVU702
 4013 1194 B8000000 		movl	$0, %eax
 4013      00
 4014 1199 E8000000 		call	CatPrint
 4014      00
 4015              	.LVL352:
 548:../Backend/gnu-efi-3.0.9/lib/dpath.c ****         //
 4016              		.loc 1 548 5 is_stmt 1 view .LVU703
 548:../Backend/gnu-efi-3.0.9/lib/dpath.c ****         //
 4017              		.loc 1 548 9 is_stmt 0 view .LVU704
 4018 119e 488D3500 		leaq	UnknownDevice(%rip), %rsi
 4018      000000
 4019 11a5 4C89E7   		movq	%r12, %rdi
 4020 11a8 E8000000 		call	CompareGuid
 4020      00
 4021              	.LVL353:
 548:../Backend/gnu-efi-3.0.9/lib/dpath.c ****         //
 4022              		.loc 1 548 8 discriminator 1 view .LVU705
 4023 11ad 4885C0   		testq	%rax, %rax
 4024 11b0 7521     		jne	.L201
 552:../Backend/gnu-efi-3.0.9/lib/dpath.c ****         CatPrint(Str, L":%02x)", UnknownDevPath->LegacyDriveLetter);
 4025              		.loc 1 552 9 is_stmt 1 view .LVU706
 4026              	.LVL354:
 553:../Backend/gnu-efi-3.0.9/lib/dpath.c ****     } else {
 4027              		.loc 1 553 9 view .LVU707
 4028 11b2 0FB65314 		movzbl	20(%rbx), %edx
 4029 11b6 488D3500 		leaq	.LC88(%rip), %rsi
 4029      000000
 4030 11bd 4889EF   		movq	%rbp, %rdi
 4031 11c0 E8000000 		call	CatPrint
 4031      00
 4032              	.LVL355:
 4033              	.L199:
 557:../Backend/gnu-efi-3.0.9/lib/dpath.c **** 
 4034              		.loc 1 557 1 is_stmt 0 view .LVU708
 4035 11c5 5B       		popq	%rbx
 4036              		.cfi_remember_state
 4037              		.cfi_restore 3
 4038              		.cfi_def_cfa_offset 24
 4039              	.LVL356:
 557:../Backend/gnu-efi-3.0.9/lib/dpath.c **** 
 4040              		.loc 1 557 1 view .LVU709
 4041 11c6 5D       		popq	%rbp
 4042              		.cfi_restore 6
 4043              		.cfi_def_cfa_offset 16
 4044              	.LVL357:
 557:../Backend/gnu-efi-3.0.9/lib/dpath.c **** 
 4045              		.loc 1 557 1 view .LVU710
 4046 11c7 415C     		popq	%r12
 4047              		.cfi_restore 12
 4048              		.cfi_def_cfa_offset 8
 4049              	.LVL358:
 557:../Backend/gnu-efi-3.0.9/lib/dpath.c **** 
 4050              		.loc 1 557 1 view .LVU711
 4051 11c9 C3       		ret
 4052              	.LVL359:
 4053              	.L205:
 4054              		.cfi_restore_state
 544:../Backend/gnu-efi-3.0.9/lib/dpath.c ****     }
 4055              		.loc 1 544 38 view .LVU712
 4056 11ca 488D1500 		leaq	.LC7(%rip), %rdx
 4056      000000
 4057 11d1 EBB0     		jmp	.L200
 4058              	.LVL360:
 4059              	.L201:
 555:../Backend/gnu-efi-3.0.9/lib/dpath.c ****     }
 4060              		.loc 1 555 9 is_stmt 1 view .LVU713
 4061 11d3 488D3500 		leaq	.LC35(%rip), %rsi
 4061      000000
 4062 11da 4889EF   		movq	%rbp, %rdi
 4063 11dd B8000000 		movl	$0, %eax
 4063      00
 4064 11e2 E8000000 		call	CatPrint
 4064      00
 4065              	.LVL361:
 557:../Backend/gnu-efi-3.0.9/lib/dpath.c **** 
 4066              		.loc 1 557 1 is_stmt 0 view .LVU714
 4067 11e7 EBDC     		jmp	.L199
 4068              		.cfi_endproc
 4069              	.LFE15:
 4071              		.globl	DevicePathFromHandle
 4072              		.hidden	DevicePathFromHandle
 4074              	DevicePathFromHandle:
 4075              	.LVL362:
 4076              	.LFB0:
  35:../Backend/gnu-efi-3.0.9/lib/dpath.c ****     EFI_STATUS          Status;
 4077              		.loc 1 35 1 is_stmt 1 view -0
 4078              		.cfi_startproc
  35:../Backend/gnu-efi-3.0.9/lib/dpath.c ****     EFI_STATUS          Status;
 4079              		.loc 1 35 1 is_stmt 0 view .LVU716
 4080 11e9 F30F1EFA 		endbr64
 4081 11ed 4883EC48 		subq	$72, %rsp
 4082              		.cfi_def_cfa_offset 80
 4083 11f1 4889F9   		movq	%rdi, %rcx
  36:../Backend/gnu-efi-3.0.9/lib/dpath.c ****     EFI_DEVICE_PATH     *DevicePath;
 4084              		.loc 1 36 5 is_stmt 1 view .LVU717
  37:../Backend/gnu-efi-3.0.9/lib/dpath.c **** 
 4085              		.loc 1 37 5 view .LVU718
  40:../Backend/gnu-efi-3.0.9/lib/dpath.c ****     if (EFI_ERROR(Status)) {
 4086              		.loc 1 40 5 view .LVU719
  40:../Backend/gnu-efi-3.0.9/lib/dpath.c ****     if (EFI_ERROR(Status)) {
 4087              		.loc 1 40 14 is_stmt 0 view .LVU720
 4088 11f4 488B0500 		movq	BS(%rip), %rax
 4088      000000
 4089 11fb 488B8018 		movq	280(%rax), %rax
 4089      010000
 4090 1202 C7442428 		movl	$2, 40(%rsp)
 4090      02000000 
 4091 120a 48C74424 		movq	$0, 32(%rsp)
 4091      20000000 
 4091      00
 4092 1213 41B90000 		movl	$0, %r9d
 4092      0000
 4093 1219 4C8D4424 		leaq	56(%rsp), %r8
 4093      38
 4094 121e 488D1500 		leaq	gEfiDevicePathProtocolGuid(%rip), %rdx
 4094      000000
 4095 1225 FFD0     		call	*%rax
 4096              	.LVL363:
  41:../Backend/gnu-efi-3.0.9/lib/dpath.c ****         DevicePath = NULL;
 4097              		.loc 1 41 5 is_stmt 1 view .LVU721
  41:../Backend/gnu-efi-3.0.9/lib/dpath.c ****         DevicePath = NULL;
 4098              		.loc 1 41 8 is_stmt 0 view .LVU722
 4099 1227 4885C0   		testq	%rax, %rax
 4100 122a 780A     		js	.L210
 4101              	.L208:
  45:../Backend/gnu-efi-3.0.9/lib/dpath.c **** }
 4102              		.loc 1 45 5 is_stmt 1 view .LVU723
  46:../Backend/gnu-efi-3.0.9/lib/dpath.c **** 
 4103              		.loc 1 46 1 is_stmt 0 view .LVU724
 4104 122c 488B4424 		movq	56(%rsp), %rax
 4104      38
 4105              	.LVL364:
  46:../Backend/gnu-efi-3.0.9/lib/dpath.c **** 
 4106              		.loc 1 46 1 view .LVU725
 4107 1231 4883C448 		addq	$72, %rsp
 4108              		.cfi_remember_state
 4109              		.cfi_def_cfa_offset 8
 4110 1235 C3       		ret
 4111              	.LVL365:
 4112              	.L210:
 4113              		.cfi_restore_state
  42:../Backend/gnu-efi-3.0.9/lib/dpath.c ****     }
 4114              		.loc 1 42 9 is_stmt 1 view .LVU726
  42:../Backend/gnu-efi-3.0.9/lib/dpath.c ****     }
 4115              		.loc 1 42 20 is_stmt 0 view .LVU727
 4116 1236 48C74424 		movq	$0, 56(%rsp)
 4116      38000000 
 4116      00
 4117 123f EBEB     		jmp	.L208
 4118              		.cfi_endproc
 4119              	.LFE0:
 4121              		.globl	DevicePathInstance
 4122              		.hidden	DevicePathInstance
 4124              	DevicePathInstance:
 4125              	.LVL366:
 4126              	.LFB1:
  54:../Backend/gnu-efi-3.0.9/lib/dpath.c ****     EFI_DEVICE_PATH         *Start, *Next, *DevPath;
 4127              		.loc 1 54 1 is_stmt 1 view -0
 4128              		.cfi_startproc
  54:../Backend/gnu-efi-3.0.9/lib/dpath.c ****     EFI_DEVICE_PATH         *Start, *Next, *DevPath;
 4129              		.loc 1 54 1 is_stmt 0 view .LVU729
 4130 1241 F30F1EFA 		endbr64
 4131 1245 4156     		pushq	%r14
 4132              		.cfi_def_cfa_offset 16
 4133              		.cfi_offset 14, -16
 4134 1247 4155     		pushq	%r13
 4135              		.cfi_def_cfa_offset 24
 4136              		.cfi_offset 13, -24
 4137 1249 4154     		pushq	%r12
 4138              		.cfi_def_cfa_offset 32
 4139              		.cfi_offset 12, -32
 4140 124b 55       		pushq	%rbp
 4141              		.cfi_def_cfa_offset 40
 4142              		.cfi_offset 6, -40
 4143 124c 53       		pushq	%rbx
 4144              		.cfi_def_cfa_offset 48
 4145              		.cfi_offset 3, -48
  55:../Backend/gnu-efi-3.0.9/lib/dpath.c ****     UINTN                   Count;
 4146              		.loc 1 55 5 is_stmt 1 view .LVU730
  56:../Backend/gnu-efi-3.0.9/lib/dpath.c **** 
 4147              		.loc 1 56 5 view .LVU731
  58:../Backend/gnu-efi-3.0.9/lib/dpath.c ****     Start = DevPath;
 4148              		.loc 1 58 5 view .LVU732
  58:../Backend/gnu-efi-3.0.9/lib/dpath.c ****     Start = DevPath;
 4149              		.loc 1 58 13 is_stmt 0 view .LVU733
 4150 124d 4C8B27   		movq	(%rdi), %r12
 4151              	.LVL367:
  59:../Backend/gnu-efi-3.0.9/lib/dpath.c **** 
 4152              		.loc 1 59 5 is_stmt 1 view .LVU734
  61:../Backend/gnu-efi-3.0.9/lib/dpath.c ****         return NULL;
 4153              		.loc 1 61 5 view .LVU735
  61:../Backend/gnu-efi-3.0.9/lib/dpath.c ****         return NULL;
 4154              		.loc 1 61 8 is_stmt 0 view .LVU736
 4155 1250 4D85E4   		testq	%r12, %r12
 4156 1253 7465     		je	.L211
 4157 1255 4989FD   		movq	%rdi, %r13
 4158 1258 4989F6   		movq	%rsi, %r14
  58:../Backend/gnu-efi-3.0.9/lib/dpath.c ****     Start = DevPath;
 4159              		.loc 1 58 13 view .LVU737
 4160 125b 4C89E5   		movq	%r12, %rbp
  69:../Backend/gnu-efi-3.0.9/lib/dpath.c ****         Next = NextDevicePathNode(DevPath);
 4161              		.loc 1 69 16 view .LVU738
 4162 125e BA000000 		movl	$0, %edx
 4162      00
 4163              	.LVL368:
 4164              	.L215:
  70:../Backend/gnu-efi-3.0.9/lib/dpath.c **** 
 4165              		.loc 1 70 9 is_stmt 1 view .LVU739
  70:../Backend/gnu-efi-3.0.9/lib/dpath.c **** 
 4166              		.loc 1 70 16 is_stmt 0 view .LVU740
 4167 1263 0FB65D02 		movzbl	2(%rbp), %ebx
 4168 1267 0FB64503 		movzbl	3(%rbp), %eax
 4169 126b C1E008   		sall	$8, %eax
 4170 126e 09C3     		orl	%eax, %ebx
 4171 1270 4863DB   		movslq	%ebx, %rbx
  70:../Backend/gnu-efi-3.0.9/lib/dpath.c **** 
 4172              		.loc 1 70 14 view .LVU741
 4173 1273 4801EB   		addq	%rbp, %rbx
 4174              	.LVL369:
  72:../Backend/gnu-efi-3.0.9/lib/dpath.c ****             break;
 4175              		.loc 1 72 9 is_stmt 1 view .LVU742
  72:../Backend/gnu-efi-3.0.9/lib/dpath.c ****             break;
 4176              		.loc 1 72 13 is_stmt 0 view .LVU743
 4177 1276 0FB64500 		movzbl	0(%rbp), %eax
  72:../Backend/gnu-efi-3.0.9/lib/dpath.c ****             break;
 4178              		.loc 1 72 12 view .LVU744
 4179 127a F7D0     		notl	%eax
 4180 127c A87F     		testb	$127, %al
 4181 127e 742A     		je	.L213
  76:../Backend/gnu-efi-3.0.9/lib/dpath.c ****             //
 4182              		.loc 1 76 9 is_stmt 1 view .LVU745
  76:../Backend/gnu-efi-3.0.9/lib/dpath.c ****             //
 4183              		.loc 1 76 12 is_stmt 0 view .LVU746
 4184 1280 4881FA00 		cmpq	$512, %rdx
 4184      020000
 4185 1287 7709     		ja	.L219
  85:../Backend/gnu-efi-3.0.9/lib/dpath.c ****     }
 4186              		.loc 1 85 9 is_stmt 1 view .LVU747
 4187              	.LVL370:
  69:../Backend/gnu-efi-3.0.9/lib/dpath.c ****         Next = NextDevicePathNode(DevPath);
 4188              		.loc 1 69 28 view .LVU748
 4189 1289 4883C201 		addq	$1, %rdx
 4190              	.LVL371:
  69:../Backend/gnu-efi-3.0.9/lib/dpath.c ****         Next = NextDevicePathNode(DevPath);
 4191              		.loc 1 69 5 view .LVU749
  85:../Backend/gnu-efi-3.0.9/lib/dpath.c ****     }
 4192              		.loc 1 85 17 is_stmt 0 view .LVU750
 4193 128d 4889DD   		movq	%rbx, %rbp
  70:../Backend/gnu-efi-3.0.9/lib/dpath.c **** 
 4194              		.loc 1 70 14 view .LVU751
 4195 1290 EBD1     		jmp	.L215
 4196              	.LVL372:
 4197              	.L219:
  80:../Backend/gnu-efi-3.0.9/lib/dpath.c ****             DumpHex (0, 0, ((UINT8 *) DevPath) - ((UINT8 *) Start), Start);
 4198              		.loc 1 80 129 is_stmt 1 view .LVU752
  81:../Backend/gnu-efi-3.0.9/lib/dpath.c ****             break;
 4199              		.loc 1 81 13 view .LVU753
  81:../Backend/gnu-efi-3.0.9/lib/dpath.c ****             break;
 4200              		.loc 1 81 48 is_stmt 0 view .LVU754
 4201 1292 4889EA   		movq	%rbp, %rdx
 4202              	.LVL373:
  81:../Backend/gnu-efi-3.0.9/lib/dpath.c ****             break;
 4203              		.loc 1 81 48 view .LVU755
 4204 1295 4C29E2   		subq	%r12, %rdx
  81:../Backend/gnu-efi-3.0.9/lib/dpath.c ****             break;
 4205              		.loc 1 81 13 view .LVU756
 4206 1298 4C89E1   		movq	%r12, %rcx
 4207 129b BE000000 		movl	$0, %esi
 4207      00
 4208              	.LVL374:
  81:../Backend/gnu-efi-3.0.9/lib/dpath.c ****             break;
 4209              		.loc 1 81 13 view .LVU757
 4210 12a0 BF000000 		movl	$0, %edi
 4210      00
 4211              	.LVL375:
  81:../Backend/gnu-efi-3.0.9/lib/dpath.c ****             break;
 4212              		.loc 1 81 13 view .LVU758
 4213 12a5 E8000000 		call	DumpHex
 4213      00
 4214              	.LVL376:
  82:../Backend/gnu-efi-3.0.9/lib/dpath.c ****         }
 4215              		.loc 1 82 13 is_stmt 1 view .LVU759
 4216              	.L213:
  89:../Backend/gnu-efi-3.0.9/lib/dpath.c **** 
 4217              		.loc 1 89 76 view .LVU760
  95:../Backend/gnu-efi-3.0.9/lib/dpath.c ****         Next = NULL;
 4218              		.loc 1 95 5 view .LVU761
  95:../Backend/gnu-efi-3.0.9/lib/dpath.c ****         Next = NULL;
 4219              		.loc 1 95 8 is_stmt 0 view .LVU762
 4220 12aa 807D01FF 		cmpb	$-1, 1(%rbp)
 4221 12ae 7416     		je	.L220
 4222              	.LVL377:
 4223              	.L216:
  99:../Backend/gnu-efi-3.0.9/lib/dpath.c **** 
 4224              		.loc 1 99 5 is_stmt 1 view .LVU763
  99:../Backend/gnu-efi-3.0.9/lib/dpath.c **** 
 4225              		.loc 1 99 17 is_stmt 0 view .LVU764
 4226 12b0 49895D00 		movq	%rbx, 0(%r13)
 105:../Backend/gnu-efi-3.0.9/lib/dpath.c ****     return Start;
 4227              		.loc 1 105 5 is_stmt 1 view .LVU765
 105:../Backend/gnu-efi-3.0.9/lib/dpath.c ****     return Start;
 4228              		.loc 1 105 33 is_stmt 0 view .LVU766
 4229 12b4 4C29E5   		subq	%r12, %rbp
 4230              	.LVL378:
 105:../Backend/gnu-efi-3.0.9/lib/dpath.c ****     return Start;
 4231              		.loc 1 105 11 view .LVU767
 4232 12b7 49892E   		movq	%rbp, (%r14)
 106:../Backend/gnu-efi-3.0.9/lib/dpath.c **** }
 4233              		.loc 1 106 5 is_stmt 1 view .LVU768
 4234              	.LVL379:
 4235              	.L211:
 107:../Backend/gnu-efi-3.0.9/lib/dpath.c **** 
 4236              		.loc 1 107 1 is_stmt 0 view .LVU769
 4237 12ba 4C89E0   		movq	%r12, %rax
 4238 12bd 5B       		popq	%rbx
 4239              		.cfi_remember_state
 4240              		.cfi_restore 3
 4241              		.cfi_def_cfa_offset 40
 4242 12be 5D       		popq	%rbp
 4243              		.cfi_restore 6
 4244              		.cfi_def_cfa_offset 32
 4245 12bf 415C     		popq	%r12
 4246              		.cfi_restore 12
 4247              		.cfi_def_cfa_offset 24
 4248              	.LVL380:
 107:../Backend/gnu-efi-3.0.9/lib/dpath.c **** 
 4249              		.loc 1 107 1 view .LVU770
 4250 12c1 415D     		popq	%r13
 4251              		.cfi_restore 13
 4252              		.cfi_def_cfa_offset 16
 4253 12c3 415E     		popq	%r14
 4254              		.cfi_restore 14
 4255              		.cfi_def_cfa_offset 8
 4256 12c5 C3       		ret
 4257              	.LVL381:
 4258              	.L220:
 4259              		.cfi_restore_state
  96:../Backend/gnu-efi-3.0.9/lib/dpath.c ****     }
 4260              		.loc 1 96 14 view .LVU771
 4261 12c6 BB000000 		movl	$0, %ebx
 4261      00
 4262              	.LVL382:
  96:../Backend/gnu-efi-3.0.9/lib/dpath.c ****     }
 4263              		.loc 1 96 14 view .LVU772
 4264 12cb EBE3     		jmp	.L216
 4265              		.cfi_endproc
 4266              	.LFE1:
 4268              		.globl	DevicePathInstanceCount
 4269              		.hidden	DevicePathInstanceCount
 4271              	DevicePathInstanceCount:
 4272              	.LVL383:
 4273              	.LFB2:
 113:../Backend/gnu-efi-3.0.9/lib/dpath.c ****     UINTN       Count, Size;
 4274              		.loc 1 113 1 is_stmt 1 view -0
 4275              		.cfi_startproc
 113:../Backend/gnu-efi-3.0.9/lib/dpath.c ****     UINTN       Count, Size;
 4276              		.loc 1 113 1 is_stmt 0 view .LVU774
 4277 12cd F30F1EFA 		endbr64
 4278 12d1 53       		pushq	%rbx
 4279              		.cfi_def_cfa_offset 16
 4280              		.cfi_offset 3, -16
 4281 12d2 4883EC20 		subq	$32, %rsp
 4282              		.cfi_def_cfa_offset 48
 4283 12d6 48897C24 		movq	%rdi, 8(%rsp)
 4283      08
 114:../Backend/gnu-efi-3.0.9/lib/dpath.c **** 
 4284              		.loc 1 114 5 is_stmt 1 view .LVU775
 116:../Backend/gnu-efi-3.0.9/lib/dpath.c ****     while (DevicePathInstance(&DevicePath, &Size)) {
 4285              		.loc 1 116 5 view .LVU776
 4286              	.LVL384:
 117:../Backend/gnu-efi-3.0.9/lib/dpath.c ****         Count += 1;
 4287              		.loc 1 117 5 view .LVU777
 116:../Backend/gnu-efi-3.0.9/lib/dpath.c ****     while (DevicePathInstance(&DevicePath, &Size)) {
 4288              		.loc 1 116 11 is_stmt 0 view .LVU778
 4289 12db BB000000 		movl	$0, %ebx
 4289      00
 117:../Backend/gnu-efi-3.0.9/lib/dpath.c ****         Count += 1;
 4290              		.loc 1 117 11 view .LVU779
 4291 12e0 EB04     		jmp	.L222
 4292              	.LVL385:
 4293              	.L223:
 118:../Backend/gnu-efi-3.0.9/lib/dpath.c ****     }
 4294              		.loc 1 118 9 is_stmt 1 view .LVU780
 118:../Backend/gnu-efi-3.0.9/lib/dpath.c ****     }
 4295              		.loc 1 118 15 is_stmt 0 view .LVU781
 4296 12e2 4883C301 		addq	$1, %rbx
 4297              	.LVL386:
 4298              	.L222:
 117:../Backend/gnu-efi-3.0.9/lib/dpath.c ****         Count += 1;
 4299              		.loc 1 117 12 is_stmt 1 view .LVU782
 4300 12e6 488D7424 		leaq	24(%rsp), %rsi
 4300      18
 4301 12eb 488D7C24 		leaq	8(%rsp), %rdi
 4301      08
 4302 12f0 E8000000 		call	DevicePathInstance
 4302      00
 4303              	.LVL387:
 117:../Backend/gnu-efi-3.0.9/lib/dpath.c ****         Count += 1;
 4304              		.loc 1 117 12 is_stmt 0 discriminator 1 view .LVU783
 4305 12f5 4885C0   		testq	%rax, %rax
 4306 12f8 75E8     		jne	.L223
 121:../Backend/gnu-efi-3.0.9/lib/dpath.c **** }
 4307              		.loc 1 121 5 is_stmt 1 view .LVU784
 122:../Backend/gnu-efi-3.0.9/lib/dpath.c **** 
 4308              		.loc 1 122 1 is_stmt 0 view .LVU785
 4309 12fa 4889D8   		movq	%rbx, %rax
 4310 12fd 4883C420 		addq	$32, %rsp
 4311              		.cfi_def_cfa_offset 16
 4312 1301 5B       		popq	%rbx
 4313              		.cfi_restore 3
 4314              		.cfi_def_cfa_offset 8
 4315              	.LVL388:
 122:../Backend/gnu-efi-3.0.9/lib/dpath.c **** 
 4316              		.loc 1 122 1 view .LVU786
 4317 1302 C3       		ret
 4318              		.cfi_endproc
 4319              	.LFE2:
 4321              		.globl	DevicePathSize
 4322              		.hidden	DevicePathSize
 4324              	DevicePathSize:
 4325              	.LVL389:
 4326              	.LFB6:
 291:../Backend/gnu-efi-3.0.9/lib/dpath.c ****     EFI_DEVICE_PATH     *Start;
 4327              		.loc 1 291 1 is_stmt 1 view -0
 4328              		.cfi_startproc
 291:../Backend/gnu-efi-3.0.9/lib/dpath.c ****     EFI_DEVICE_PATH     *Start;
 4329              		.loc 1 291 1 is_stmt 0 view .LVU788
 4330 1303 F30F1EFA 		endbr64
 292:../Backend/gnu-efi-3.0.9/lib/dpath.c **** 
 4331              		.loc 1 292 5 is_stmt 1 view .LVU789
 298:../Backend/gnu-efi-3.0.9/lib/dpath.c ****     while (!IsDevicePathEnd(DevPath)) {
 4332              		.loc 1 298 5 view .LVU790
 4333              	.LVL390:
 299:../Backend/gnu-efi-3.0.9/lib/dpath.c ****         DevPath = NextDevicePathNode(DevPath);
 4334              		.loc 1 299 5 view .LVU791
 299:../Backend/gnu-efi-3.0.9/lib/dpath.c ****         DevPath = NextDevicePathNode(DevPath);
 4335              		.loc 1 299 11 is_stmt 0 view .LVU792
 4336 1307 4889F8   		movq	%rdi, %rax
 4337 130a EB13     		jmp	.L226
 4338              	.LVL391:
 4339              	.L227:
 300:../Backend/gnu-efi-3.0.9/lib/dpath.c ****     }
 4340              		.loc 1 300 9 is_stmt 1 view .LVU793
 300:../Backend/gnu-efi-3.0.9/lib/dpath.c ****     }
 4341              		.loc 1 300 19 is_stmt 0 view .LVU794
 4342 130c 0FB65002 		movzbl	2(%rax), %edx
 4343 1310 0FB64803 		movzbl	3(%rax), %ecx
 4344 1314 C1E108   		sall	$8, %ecx
 4345 1317 09CA     		orl	%ecx, %edx
 4346 1319 4863D2   		movslq	%edx, %rdx
 300:../Backend/gnu-efi-3.0.9/lib/dpath.c ****     }
 4347              		.loc 1 300 17 view .LVU795
 4348 131c 4801D0   		addq	%rdx, %rax
 4349              	.LVL392:
 4350              	.L226:
 299:../Backend/gnu-efi-3.0.9/lib/dpath.c ****         DevPath = NextDevicePathNode(DevPath);
 4351              		.loc 1 299 12 is_stmt 1 view .LVU796
 299:../Backend/gnu-efi-3.0.9/lib/dpath.c ****         DevPath = NextDevicePathNode(DevPath);
 4352              		.loc 1 299 13 is_stmt 0 view .LVU797
 4353 131f 0FB610   		movzbl	(%rax), %edx
 299:../Backend/gnu-efi-3.0.9/lib/dpath.c ****         DevPath = NextDevicePathNode(DevPath);
 4354              		.loc 1 299 12 view .LVU798
 4355 1322 F7D2     		notl	%edx
 4356 1324 F6C27F   		testb	$127, %dl
 4357 1327 75E3     		jne	.L227
 299:../Backend/gnu-efi-3.0.9/lib/dpath.c ****         DevPath = NextDevicePathNode(DevPath);
 4358              		.loc 1 299 12 discriminator 1 view .LVU799
 4359 1329 807801FF 		cmpb	$-1, 1(%rax)
 4360 132d 75DD     		jne	.L227
 307:../Backend/gnu-efi-3.0.9/lib/dpath.c **** }
 4361              		.loc 1 307 5 is_stmt 1 view .LVU800
 307:../Backend/gnu-efi-3.0.9/lib/dpath.c **** }
 4362              		.loc 1 307 29 is_stmt 0 view .LVU801
 4363 132f 4829F8   		subq	%rdi, %rax
 4364              	.LVL393:
 307:../Backend/gnu-efi-3.0.9/lib/dpath.c **** }
 4365              		.loc 1 307 46 view .LVU802
 4366 1332 4883C004 		addq	$4, %rax
 308:../Backend/gnu-efi-3.0.9/lib/dpath.c **** 
 4367              		.loc 1 308 1 view .LVU803
 4368 1336 C3       		ret
 4369              		.cfi_endproc
 4370              	.LFE6:
 4372              		.globl	DuplicateDevicePath
 4373              		.hidden	DuplicateDevicePath
 4375              	DuplicateDevicePath:
 4376              	.LVL394:
 4377              	.LFB7:
 314:../Backend/gnu-efi-3.0.9/lib/dpath.c ****     EFI_DEVICE_PATH     *NewDevPath;
 4378              		.loc 1 314 1 is_stmt 1 view -0
 4379              		.cfi_startproc
 314:../Backend/gnu-efi-3.0.9/lib/dpath.c ****     EFI_DEVICE_PATH     *NewDevPath;
 4380              		.loc 1 314 1 is_stmt 0 view .LVU805
 4381 1337 F30F1EFA 		endbr64
 4382 133b 4154     		pushq	%r12
 4383              		.cfi_def_cfa_offset 16
 4384              		.cfi_offset 12, -16
 4385 133d 55       		pushq	%rbp
 4386              		.cfi_def_cfa_offset 24
 4387              		.cfi_offset 6, -24
 4388 133e 53       		pushq	%rbx
 4389              		.cfi_def_cfa_offset 32
 4390              		.cfi_offset 3, -32
 4391 133f 4889FD   		movq	%rdi, %rbp
 315:../Backend/gnu-efi-3.0.9/lib/dpath.c ****     UINTN               Size;
 4392              		.loc 1 315 5 is_stmt 1 view .LVU806
 316:../Backend/gnu-efi-3.0.9/lib/dpath.c **** 
 4393              		.loc 1 316 5 view .LVU807
 323:../Backend/gnu-efi-3.0.9/lib/dpath.c **** 
 4394              		.loc 1 323 5 view .LVU808
 323:../Backend/gnu-efi-3.0.9/lib/dpath.c **** 
 4395              		.loc 1 323 12 is_stmt 0 view .LVU809
 4396 1342 E8000000 		call	DevicePathSize
 4396      00
 4397              	.LVL395:
 323:../Backend/gnu-efi-3.0.9/lib/dpath.c **** 
 4398              		.loc 1 323 12 view .LVU810
 4399 1347 4989C4   		movq	%rax, %r12
 4400              	.LVL396:
 329:../Backend/gnu-efi-3.0.9/lib/dpath.c ****     if (NewDevPath) {
 4401              		.loc 1 329 5 is_stmt 1 view .LVU811
 329:../Backend/gnu-efi-3.0.9/lib/dpath.c ****     if (NewDevPath) {
 4402              		.loc 1 329 18 is_stmt 0 view .LVU812
 4403 134a 4889C7   		movq	%rax, %rdi
 4404 134d E8000000 		call	AllocatePool
 4404      00
 4405              	.LVL397:
 329:../Backend/gnu-efi-3.0.9/lib/dpath.c ****     if (NewDevPath) {
 4406              		.loc 1 329 18 view .LVU813
 4407 1352 4889C3   		movq	%rax, %rbx
 4408              	.LVL398:
 330:../Backend/gnu-efi-3.0.9/lib/dpath.c ****         CopyMem (NewDevPath, DevPath, Size);
 4409              		.loc 1 330 5 is_stmt 1 view .LVU814
 330:../Backend/gnu-efi-3.0.9/lib/dpath.c ****         CopyMem (NewDevPath, DevPath, Size);
 4410              		.loc 1 330 8 is_stmt 0 view .LVU815
 4411 1355 4885C0   		testq	%rax, %rax
 4412 1358 740E     		je	.L228
 331:../Backend/gnu-efi-3.0.9/lib/dpath.c ****     }
 4413              		.loc 1 331 9 is_stmt 1 view .LVU816
 4414 135a 4C89E2   		movq	%r12, %rdx
 4415 135d 4889EE   		movq	%rbp, %rsi
 4416 1360 4889C7   		movq	%rax, %rdi
 4417 1363 E8000000 		call	CopyMem
 4417      00
 4418              	.LVL399:
 334:../Backend/gnu-efi-3.0.9/lib/dpath.c **** }
 4419              		.loc 1 334 5 view .LVU817
 4420              	.L228:
 335:../Backend/gnu-efi-3.0.9/lib/dpath.c **** 
 4421              		.loc 1 335 1 is_stmt 0 view .LVU818
 4422 1368 4889D8   		movq	%rbx, %rax
 4423 136b 5B       		popq	%rbx
 4424              		.cfi_restore 3
 4425              		.cfi_def_cfa_offset 24
 4426              	.LVL400:
 335:../Backend/gnu-efi-3.0.9/lib/dpath.c **** 
 4427              		.loc 1 335 1 view .LVU819
 4428 136c 5D       		popq	%rbp
 4429              		.cfi_restore 6
 4430              		.cfi_def_cfa_offset 16
 4431              	.LVL401:
 335:../Backend/gnu-efi-3.0.9/lib/dpath.c **** 
 4432              		.loc 1 335 1 view .LVU820
 4433 136d 415C     		popq	%r12
 4434              		.cfi_restore 12
 4435              		.cfi_def_cfa_offset 8
 4436              	.LVL402:
 335:../Backend/gnu-efi-3.0.9/lib/dpath.c **** 
 4437              		.loc 1 335 1 view .LVU821
 4438 136f C3       		ret
 4439              		.cfi_endproc
 4440              	.LFE7:
 4442              		.globl	AppendDevicePath
 4443              		.hidden	AppendDevicePath
 4445              	AppendDevicePath:
 4446              	.LVL403:
 4447              	.LFB3:
 134:../Backend/gnu-efi-3.0.9/lib/dpath.c ****     UINTN               Src1Size, Src1Inst, Src2Size, Size;
 4448              		.loc 1 134 1 is_stmt 1 view -0
 4449              		.cfi_startproc
 134:../Backend/gnu-efi-3.0.9/lib/dpath.c ****     UINTN               Src1Size, Src1Inst, Src2Size, Size;
 4450              		.loc 1 134 1 is_stmt 0 view .LVU823
 4451 1370 F30F1EFA 		endbr64
 4452 1374 4155     		pushq	%r13
 4453              		.cfi_def_cfa_offset 16
 4454              		.cfi_offset 13, -16
 4455 1376 4154     		pushq	%r12
 4456              		.cfi_def_cfa_offset 24
 4457              		.cfi_offset 12, -24
 4458 1378 55       		pushq	%rbp
 4459              		.cfi_def_cfa_offset 32
 4460              		.cfi_offset 6, -32
 4461 1379 53       		pushq	%rbx
 4462              		.cfi_def_cfa_offset 40
 4463              		.cfi_offset 3, -40
 4464 137a 4883EC28 		subq	$40, %rsp
 4465              		.cfi_def_cfa_offset 80
 4466 137e 48897C24 		movq	%rdi, 8(%rsp)
 4466      08
 4467 1383 4989F4   		movq	%rsi, %r12
 135:../Backend/gnu-efi-3.0.9/lib/dpath.c ****     EFI_DEVICE_PATH     *Dst, *Inst;
 4468              		.loc 1 135 5 is_stmt 1 view .LVU824
 136:../Backend/gnu-efi-3.0.9/lib/dpath.c ****     UINT8               *DstPos;
 4469              		.loc 1 136 5 view .LVU825
 137:../Backend/gnu-efi-3.0.9/lib/dpath.c **** 
 4470              		.loc 1 137 5 view .LVU826
 143:../Backend/gnu-efi-3.0.9/lib/dpath.c ****         ASSERT (!IsDevicePathUnpacked (Src2));
 4471              		.loc 1 143 5 view .LVU827
 143:../Backend/gnu-efi-3.0.9/lib/dpath.c ****         ASSERT (!IsDevicePathUnpacked (Src2));
 4472              		.loc 1 143 8 is_stmt 0 view .LVU828
 4473 1386 4885FF   		testq	%rdi, %rdi
 4474 1389 7449     		je	.L239
 4475 138b 4889FD   		movq	%rdi, %rbp
 148:../Backend/gnu-efi-3.0.9/lib/dpath.c ****         ASSERT (!IsDevicePathUnpacked (Src1));
 4476              		.loc 1 148 5 is_stmt 1 view .LVU829
 148:../Backend/gnu-efi-3.0.9/lib/dpath.c ****         ASSERT (!IsDevicePathUnpacked (Src1));
 4477              		.loc 1 148 8 is_stmt 0 view .LVU830
 4478 138e 4885F6   		testq	%rsi, %rsi
 4479 1391 744E     		je	.L240
 164:../Backend/gnu-efi-3.0.9/lib/dpath.c ****     Src1Inst = DevicePathInstanceCount(Src1);
 4480              		.loc 1 164 5 is_stmt 1 view .LVU831
 164:../Backend/gnu-efi-3.0.9/lib/dpath.c ****     Src1Inst = DevicePathInstanceCount(Src1);
 4481              		.loc 1 164 16 is_stmt 0 view .LVU832
 4482 1393 E8000000 		call	DevicePathSize
 4482      00
 4483              	.LVL404:
 164:../Backend/gnu-efi-3.0.9/lib/dpath.c ****     Src1Inst = DevicePathInstanceCount(Src1);
 4484              		.loc 1 164 16 view .LVU833
 4485 1398 4889C3   		movq	%rax, %rbx
 4486              	.LVL405:
 165:../Backend/gnu-efi-3.0.9/lib/dpath.c ****     Src2Size = DevicePathSize(Src2);
 4487              		.loc 1 165 5 is_stmt 1 view .LVU834
 165:../Backend/gnu-efi-3.0.9/lib/dpath.c ****     Src2Size = DevicePathSize(Src2);
 4488              		.loc 1 165 16 is_stmt 0 view .LVU835
 4489 139b 4889EF   		movq	%rbp, %rdi
 4490 139e E8000000 		call	DevicePathInstanceCount
 4490      00
 4491              	.LVL406:
 165:../Backend/gnu-efi-3.0.9/lib/dpath.c ****     Src2Size = DevicePathSize(Src2);
 4492              		.loc 1 165 16 view .LVU836
 4493 13a3 4989C5   		movq	%rax, %r13
 4494              	.LVL407:
 166:../Backend/gnu-efi-3.0.9/lib/dpath.c ****     Size = Src1Size * Src1Inst + Src2Size;
 4495              		.loc 1 166 5 is_stmt 1 view .LVU837
 166:../Backend/gnu-efi-3.0.9/lib/dpath.c ****     Size = Src1Size * Src1Inst + Src2Size;
 4496              		.loc 1 166 16 is_stmt 0 view .LVU838
 4497 13a6 4C89E7   		movq	%r12, %rdi
 4498 13a9 E8000000 		call	DevicePathSize
 4498      00
 4499              	.LVL408:
 166:../Backend/gnu-efi-3.0.9/lib/dpath.c ****     Size = Src1Size * Src1Inst + Src2Size;
 4500              		.loc 1 166 16 view .LVU839
 4501 13ae 4889C5   		movq	%rax, %rbp
 4502              	.LVL409:
 167:../Backend/gnu-efi-3.0.9/lib/dpath.c **** 
 4503              		.loc 1 167 5 is_stmt 1 view .LVU840
 167:../Backend/gnu-efi-3.0.9/lib/dpath.c **** 
 4504              		.loc 1 167 21 is_stmt 0 view .LVU841
 4505 13b1 490FAFDD 		imulq	%r13, %rbx
 4506              	.LVL410:
 167:../Backend/gnu-efi-3.0.9/lib/dpath.c **** 
 4507              		.loc 1 167 32 view .LVU842
 4508 13b5 488D3C03 		leaq	(%rbx,%rax), %rdi
 167:../Backend/gnu-efi-3.0.9/lib/dpath.c **** 
 4509              		.loc 1 167 10 view .LVU843
 4510 13b9 48897C24 		movq	%rdi, 24(%rsp)
 4510      18
 169:../Backend/gnu-efi-3.0.9/lib/dpath.c ****     if (Dst) {
 4511              		.loc 1 169 5 is_stmt 1 view .LVU844
 169:../Backend/gnu-efi-3.0.9/lib/dpath.c ****     if (Dst) {
 4512              		.loc 1 169 11 is_stmt 0 view .LVU845
 4513 13be E8000000 		call	AllocatePool
 4513      00
 4514              	.LVL411:
 169:../Backend/gnu-efi-3.0.9/lib/dpath.c ****     if (Dst) {
 4515              		.loc 1 169 11 view .LVU846
 4516 13c3 4989C5   		movq	%rax, %r13
 4517              	.LVL412:
 170:../Backend/gnu-efi-3.0.9/lib/dpath.c ****         DstPos = (UINT8 *) Dst;
 4518              		.loc 1 170 5 is_stmt 1 view .LVU847
 170:../Backend/gnu-efi-3.0.9/lib/dpath.c ****         DstPos = (UINT8 *) Dst;
 4519              		.loc 1 170 8 is_stmt 0 view .LVU848
 4520 13c6 4885C0   		testq	%rax, %rax
 4521 13c9 0F848300 		je	.L231
 4521      0000
 171:../Backend/gnu-efi-3.0.9/lib/dpath.c **** 
 4522              		.loc 1 171 16 view .LVU849
 4523 13cf 4889C3   		movq	%rax, %rbx
 4524 13d2 EB52     		jmp	.L235
 4525              	.LVL413:
 4526              	.L239:
 144:../Backend/gnu-efi-3.0.9/lib/dpath.c ****         return DuplicateDevicePath (Src2);
 4527              		.loc 1 144 46 is_stmt 1 view .LVU850
 145:../Backend/gnu-efi-3.0.9/lib/dpath.c ****     }
 4528              		.loc 1 145 9 view .LVU851
 145:../Backend/gnu-efi-3.0.9/lib/dpath.c ****     }
 4529              		.loc 1 145 16 is_stmt 0 view .LVU852
 4530 13d4 4889F7   		movq	%rsi, %rdi
 4531              	.LVL414:
 145:../Backend/gnu-efi-3.0.9/lib/dpath.c ****     }
 4532              		.loc 1 145 16 view .LVU853
 4533 13d7 E8000000 		call	DuplicateDevicePath
 4533      00
 4534              	.LVL415:
 145:../Backend/gnu-efi-3.0.9/lib/dpath.c ****     }
 4535              		.loc 1 145 16 view .LVU854
 4536 13dc 4989C5   		movq	%rax, %r13
 4537 13df EB71     		jmp	.L231
 4538              	.LVL416:
 4539              	.L240:
 149:../Backend/gnu-efi-3.0.9/lib/dpath.c ****         return DuplicateDevicePath (Src1);
 4540              		.loc 1 149 46 is_stmt 1 view .LVU855
 150:../Backend/gnu-efi-3.0.9/lib/dpath.c ****     }
 4541              		.loc 1 150 9 view .LVU856
 150:../Backend/gnu-efi-3.0.9/lib/dpath.c ****     }
 4542              		.loc 1 150 16 is_stmt 0 view .LVU857
 4543 13e1 E8000000 		call	DuplicateDevicePath
 4543      00
 4544              	.LVL417:
 150:../Backend/gnu-efi-3.0.9/lib/dpath.c ****     }
 4545              		.loc 1 150 16 view .LVU858
 4546 13e6 4989C5   		movq	%rax, %r13
 4547 13e9 EB67     		jmp	.L231
 4548              	.LVL418:
 4549              	.L236:
 179:../Backend/gnu-efi-3.0.9/lib/dpath.c ****             DstPos += Size;
 4550              		.loc 1 179 13 is_stmt 1 view .LVU859
 4551 13eb 488B5424 		movq	24(%rsp), %rdx
 4551      18
 4552 13f0 4889DF   		movq	%rbx, %rdi
 4553 13f3 E8000000 		call	CopyMem
 4553      00
 4554              	.LVL419:
 180:../Backend/gnu-efi-3.0.9/lib/dpath.c **** 
 4555              		.loc 1 180 13 view .LVU860
 180:../Backend/gnu-efi-3.0.9/lib/dpath.c **** 
 4556              		.loc 1 180 20 is_stmt 0 view .LVU861
 4557 13f8 48035C24 		addq	24(%rsp), %rbx
 4557      18
 4558              	.LVL420:
 182:../Backend/gnu-efi-3.0.9/lib/dpath.c ****             DstPos += Src2Size;
 4559              		.loc 1 182 13 is_stmt 1 view .LVU862
 4560 13fd 4889EA   		movq	%rbp, %rdx
 4561 1400 4C89E6   		movq	%r12, %rsi
 4562 1403 4889DF   		movq	%rbx, %rdi
 4563 1406 E8000000 		call	CopyMem
 4563      00
 4564              	.LVL421:
 183:../Backend/gnu-efi-3.0.9/lib/dpath.c **** 
 4565              		.loc 1 183 13 view .LVU863
 183:../Backend/gnu-efi-3.0.9/lib/dpath.c **** 
 4566              		.loc 1 183 20 is_stmt 0 view .LVU864
 4567 140b 4801EB   		addq	%rbp, %rbx
 4568              	.LVL422:
 185:../Backend/gnu-efi-3.0.9/lib/dpath.c ****             DstPos += sizeof(EFI_DEVICE_PATH);
 4569              		.loc 1 185 13 is_stmt 1 view .LVU865
 4570 140e BA040000 		movl	$4, %edx
 4570      00
 4571 1413 488D3500 		leaq	EndInstanceDevicePath(%rip), %rsi
 4571      000000
 4572 141a 4889DF   		movq	%rbx, %rdi
 4573 141d E8000000 		call	CopyMem
 4573      00
 4574              	.LVL423:
 186:../Backend/gnu-efi-3.0.9/lib/dpath.c ****         }
 4575              		.loc 1 186 13 view .LVU866
 186:../Backend/gnu-efi-3.0.9/lib/dpath.c ****         }
 4576              		.loc 1 186 20 is_stmt 0 view .LVU867
 4577 1422 4883C304 		addq	$4, %rbx
 4578              	.LVL424:
 4579              	.L235:
 177:../Backend/gnu-efi-3.0.9/lib/dpath.c **** 
 4580              		.loc 1 177 16 is_stmt 1 view .LVU868
 177:../Backend/gnu-efi-3.0.9/lib/dpath.c **** 
 4581              		.loc 1 177 24 is_stmt 0 view .LVU869
 4582 1426 488D7424 		leaq	24(%rsp), %rsi
 4582      18
 4583 142b 488D7C24 		leaq	8(%rsp), %rdi
 4583      08
 4584 1430 E8000000 		call	DevicePathInstance
 4584      00
 4585              	.LVL425:
 4586 1435 4889C6   		movq	%rax, %rsi
 4587              	.LVL426:
 177:../Backend/gnu-efi-3.0.9/lib/dpath.c **** 
 4588              		.loc 1 177 16 discriminator 1 view .LVU870
 4589 1438 4885C0   		testq	%rax, %rax
 4590 143b 75AE     		jne	.L236
 190:../Backend/gnu-efi-3.0.9/lib/dpath.c ****         CopyMem(DstPos, EndDevicePath, sizeof(EFI_DEVICE_PATH));
 4591              		.loc 1 190 9 is_stmt 1 view .LVU871
 190:../Backend/gnu-efi-3.0.9/lib/dpath.c ****         CopyMem(DstPos, EndDevicePath, sizeof(EFI_DEVICE_PATH));
 4592              		.loc 1 190 16 is_stmt 0 view .LVU872
 4593 143d 488D7BFC 		leaq	-4(%rbx), %rdi
 4594              	.LVL427:
 191:../Backend/gnu-efi-3.0.9/lib/dpath.c ****     }
 4595              		.loc 1 191 9 is_stmt 1 view .LVU873
 4596 1441 BA040000 		movl	$4, %edx
 4596      00
 4597 1446 488D3500 		leaq	EndDevicePath(%rip), %rsi
 4597      000000
 4598 144d E8000000 		call	CopyMem
 4598      00
 4599              	.LVL428:
 4600              	.L231:
 195:../Backend/gnu-efi-3.0.9/lib/dpath.c **** 
 4601              		.loc 1 195 1 is_stmt 0 view .LVU874
 4602 1452 4C89E8   		movq	%r13, %rax
 4603 1455 4883C428 		addq	$40, %rsp
 4604              		.cfi_def_cfa_offset 40
 4605 1459 5B       		popq	%rbx
 4606              		.cfi_restore 3
 4607              		.cfi_def_cfa_offset 32
 4608 145a 5D       		popq	%rbp
 4609              		.cfi_restore 6
 4610              		.cfi_def_cfa_offset 24
 4611 145b 415C     		popq	%r12
 4612              		.cfi_restore 12
 4613              		.cfi_def_cfa_offset 16
 4614              	.LVL429:
 195:../Backend/gnu-efi-3.0.9/lib/dpath.c **** 
 4615              		.loc 1 195 1 view .LVU875
 4616 145d 415D     		popq	%r13
 4617              		.cfi_restore 13
 4618              		.cfi_def_cfa_offset 8
 4619 145f C3       		ret
 4620              		.cfi_endproc
 4621              	.LFE3:
 4623              		.globl	AppendDevicePathNode
 4624              		.hidden	AppendDevicePathNode
 4626              	AppendDevicePathNode:
 4627              	.LVL430:
 4628              	.LFB4:
 206:../Backend/gnu-efi-3.0.9/lib/dpath.c ****     EFI_DEVICE_PATH     *Temp, *Eop;
 4629              		.loc 1 206 1 is_stmt 1 view -0
 4630              		.cfi_startproc
 206:../Backend/gnu-efi-3.0.9/lib/dpath.c ****     EFI_DEVICE_PATH     *Temp, *Eop;
 4631              		.loc 1 206 1 is_stmt 0 view .LVU877
 4632 1460 F30F1EFA 		endbr64
 4633 1464 4155     		pushq	%r13
 4634              		.cfi_def_cfa_offset 16
 4635              		.cfi_offset 13, -16
 4636 1466 4154     		pushq	%r12
 4637              		.cfi_def_cfa_offset 24
 4638              		.cfi_offset 12, -24
 4639 1468 55       		pushq	%rbp
 4640              		.cfi_def_cfa_offset 32
 4641              		.cfi_offset 6, -32
 4642 1469 53       		pushq	%rbx
 4643              		.cfi_def_cfa_offset 40
 4644              		.cfi_offset 3, -40
 4645 146a 4883EC08 		subq	$8, %rsp
 4646              		.cfi_def_cfa_offset 48
 4647 146e 4889FD   		movq	%rdi, %rbp
 4648 1471 4989F5   		movq	%rsi, %r13
 207:../Backend/gnu-efi-3.0.9/lib/dpath.c ****     UINTN               Length;
 4649              		.loc 1 207 5 is_stmt 1 view .LVU878
 208:../Backend/gnu-efi-3.0.9/lib/dpath.c **** 
 4650              		.loc 1 208 5 view .LVU879
 214:../Backend/gnu-efi-3.0.9/lib/dpath.c ****     Temp = AllocatePool (Length + sizeof(EFI_DEVICE_PATH));
 4651              		.loc 1 214 5 view .LVU880
 214:../Backend/gnu-efi-3.0.9/lib/dpath.c ****     Temp = AllocatePool (Length + sizeof(EFI_DEVICE_PATH));
 4652              		.loc 1 214 14 is_stmt 0 view .LVU881
 4653 1474 440FB666 		movzbl	2(%rsi), %r12d
 4653      02
 4654 1479 0FB64603 		movzbl	3(%rsi), %eax
 4655 147d C1E008   		sall	$8, %eax
 4656 1480 4109C4   		orl	%eax, %r12d
 214:../Backend/gnu-efi-3.0.9/lib/dpath.c ****     Temp = AllocatePool (Length + sizeof(EFI_DEVICE_PATH));
 4657              		.loc 1 214 12 view .LVU882
 4658 1483 4D63E4   		movslq	%r12d, %r12
 4659              	.LVL431:
 215:../Backend/gnu-efi-3.0.9/lib/dpath.c ****     if (!Temp) {
 4660              		.loc 1 215 5 is_stmt 1 view .LVU883
 215:../Backend/gnu-efi-3.0.9/lib/dpath.c ****     if (!Temp) {
 4661              		.loc 1 215 12 is_stmt 0 view .LVU884
 4662 1486 498D7C24 		leaq	4(%r12), %rdi
 4662      04
 4663              	.LVL432:
 215:../Backend/gnu-efi-3.0.9/lib/dpath.c ****     if (!Temp) {
 4664              		.loc 1 215 12 view .LVU885
 4665 148b E8000000 		call	AllocatePool
 4665      00
 4666              	.LVL433:
 215:../Backend/gnu-efi-3.0.9/lib/dpath.c ****     if (!Temp) {
 4667              		.loc 1 215 12 view .LVU886
 4668 1490 4889C3   		movq	%rax, %rbx
 4669              	.LVL434:
 216:../Backend/gnu-efi-3.0.9/lib/dpath.c ****         return NULL;
 4670              		.loc 1 216 5 is_stmt 1 view .LVU887
 216:../Backend/gnu-efi-3.0.9/lib/dpath.c ****         return NULL;
 4671              		.loc 1 216 8 is_stmt 0 view .LVU888
 4672 1493 4885C0   		testq	%rax, %rax
 4673 1496 7453     		je	.L243
 220:../Backend/gnu-efi-3.0.9/lib/dpath.c ****     Eop = NextDevicePathNode(Temp);
 4674              		.loc 1 220 5 is_stmt 1 view .LVU889
 4675 1498 4C89E2   		movq	%r12, %rdx
 4676 149b 4C89EE   		movq	%r13, %rsi
 4677 149e 4889C7   		movq	%rax, %rdi
 4678 14a1 E8000000 		call	CopyMem
 4678      00
 4679              	.LVL435:
 221:../Backend/gnu-efi-3.0.9/lib/dpath.c ****     SetDevicePathEndNode(Eop);
 4680              		.loc 1 221 5 view .LVU890
 221:../Backend/gnu-efi-3.0.9/lib/dpath.c ****     SetDevicePathEndNode(Eop);
 4681              		.loc 1 221 11 is_stmt 0 view .LVU891
 4682 14a6 0FB64302 		movzbl	2(%rbx), %eax
 4683 14aa 0FB65303 		movzbl	3(%rbx), %edx
 4684 14ae C1E208   		sall	$8, %edx
 4685 14b1 09D0     		orl	%edx, %eax
 4686 14b3 4898     		cltq
 221:../Backend/gnu-efi-3.0.9/lib/dpath.c ****     SetDevicePathEndNode(Eop);
 4687              		.loc 1 221 9 view .LVU892
 4688 14b5 4801D8   		addq	%rbx, %rax
 4689              	.LVL436:
 222:../Backend/gnu-efi-3.0.9/lib/dpath.c **** 
 4690              		.loc 1 222 5 is_stmt 1 view .LVU893
 4691 14b8 C6007F   		movb	$127, (%rax)
 222:../Backend/gnu-efi-3.0.9/lib/dpath.c **** 
 4692              		.loc 1 222 5 view .LVU894
 4693 14bb C64001FF 		movb	$-1, 1(%rax)
 222:../Backend/gnu-efi-3.0.9/lib/dpath.c **** 
 4694              		.loc 1 222 5 view .LVU895
 4695 14bf C6400204 		movb	$4, 2(%rax)
 222:../Backend/gnu-efi-3.0.9/lib/dpath.c **** 
 4696              		.loc 1 222 5 view .LVU896
 4697 14c3 C6400300 		movb	$0, 3(%rax)
 222:../Backend/gnu-efi-3.0.9/lib/dpath.c **** 
 4698              		.loc 1 222 30 view .LVU897
 228:../Backend/gnu-efi-3.0.9/lib/dpath.c ****     FreePool (Temp);
 4699              		.loc 1 228 5 view .LVU898
 228:../Backend/gnu-efi-3.0.9/lib/dpath.c ****     FreePool (Temp);
 4700              		.loc 1 228 12 is_stmt 0 view .LVU899
 4701 14c7 4889DE   		movq	%rbx, %rsi
 4702 14ca 4889EF   		movq	%rbp, %rdi
 4703 14cd E8000000 		call	AppendDevicePath
 4703      00
 4704              	.LVL437:
 228:../Backend/gnu-efi-3.0.9/lib/dpath.c ****     FreePool (Temp);
 4705              		.loc 1 228 12 view .LVU900
 4706 14d2 4889C5   		movq	%rax, %rbp
 4707              	.LVL438:
 229:../Backend/gnu-efi-3.0.9/lib/dpath.c ****     return Src1;
 4708              		.loc 1 229 5 is_stmt 1 view .LVU901
 4709 14d5 4889DF   		movq	%rbx, %rdi
 4710 14d8 E8000000 		call	FreePool
 4710      00
 4711              	.LVL439:
 230:../Backend/gnu-efi-3.0.9/lib/dpath.c **** }
 4712              		.loc 1 230 5 view .LVU902
 4713              	.L241:
 231:../Backend/gnu-efi-3.0.9/lib/dpath.c **** 
 4714              		.loc 1 231 1 is_stmt 0 view .LVU903
 4715 14dd 4889E8   		movq	%rbp, %rax
 4716 14e0 4883C408 		addq	$8, %rsp
 4717              		.cfi_remember_state
 4718              		.cfi_def_cfa_offset 40
 4719 14e4 5B       		popq	%rbx
 4720              		.cfi_restore 3
 4721              		.cfi_def_cfa_offset 32
 4722              	.LVL440:
 231:../Backend/gnu-efi-3.0.9/lib/dpath.c **** 
 4723              		.loc 1 231 1 view .LVU904
 4724 14e5 5D       		popq	%rbp
 4725              		.cfi_restore 6
 4726              		.cfi_def_cfa_offset 24
 4727 14e6 415C     		popq	%r12
 4728              		.cfi_restore 12
 4729              		.cfi_def_cfa_offset 16
 4730              	.LVL441:
 231:../Backend/gnu-efi-3.0.9/lib/dpath.c **** 
 4731              		.loc 1 231 1 view .LVU905
 4732 14e8 415D     		popq	%r13
 4733              		.cfi_restore 13
 4734              		.cfi_def_cfa_offset 8
 4735              	.LVL442:
 231:../Backend/gnu-efi-3.0.9/lib/dpath.c **** 
 4736              		.loc 1 231 1 view .LVU906
 4737 14ea C3       		ret
 4738              	.LVL443:
 4739              	.L243:
 4740              		.cfi_restore_state
 217:../Backend/gnu-efi-3.0.9/lib/dpath.c ****     }
 4741              		.loc 1 217 16 view .LVU907
 4742 14eb 4889C5   		movq	%rax, %rbp
 4743              	.LVL444:
 217:../Backend/gnu-efi-3.0.9/lib/dpath.c ****     }
 4744              		.loc 1 217 16 view .LVU908
 4745 14ee EBED     		jmp	.L241
 4746              		.cfi_endproc
 4747              	.LFE4:
 4749              		.globl	FileDevicePath
 4750              		.hidden	FileDevicePath
 4752              	FileDevicePath:
 4753              	.LVL445:
 4754              	.LFB5:
 245:../Backend/gnu-efi-3.0.9/lib/dpath.c ****     UINTN                   Size;
 4755              		.loc 1 245 1 is_stmt 1 view -0
 4756              		.cfi_startproc
 245:../Backend/gnu-efi-3.0.9/lib/dpath.c ****     UINTN                   Size;
 4757              		.loc 1 245 1 is_stmt 0 view .LVU910
 4758 14f0 F30F1EFA 		endbr64
 4759 14f4 4155     		pushq	%r13
 4760              		.cfi_def_cfa_offset 16
 4761              		.cfi_offset 13, -16
 4762 14f6 4154     		pushq	%r12
 4763              		.cfi_def_cfa_offset 24
 4764              		.cfi_offset 12, -24
 4765 14f8 55       		pushq	%rbp
 4766              		.cfi_def_cfa_offset 32
 4767              		.cfi_offset 6, -32
 4768 14f9 53       		pushq	%rbx
 4769              		.cfi_def_cfa_offset 40
 4770              		.cfi_offset 3, -40
 4771 14fa 4883EC08 		subq	$8, %rsp
 4772              		.cfi_def_cfa_offset 48
 4773 14fe 4889FD   		movq	%rdi, %rbp
 4774 1501 4989F5   		movq	%rsi, %r13
 246:../Backend/gnu-efi-3.0.9/lib/dpath.c ****     FILEPATH_DEVICE_PATH    *FilePath;
 4775              		.loc 1 246 5 is_stmt 1 view .LVU911
 247:../Backend/gnu-efi-3.0.9/lib/dpath.c ****     EFI_DEVICE_PATH         *Eop, *DevicePath;
 4776              		.loc 1 247 5 view .LVU912
 248:../Backend/gnu-efi-3.0.9/lib/dpath.c **** 
 4777              		.loc 1 248 5 view .LVU913
 250:../Backend/gnu-efi-3.0.9/lib/dpath.c ****     FilePath = AllocateZeroPool (Size + SIZE_OF_FILEPATH_DEVICE_PATH + sizeof(EFI_DEVICE_PATH));
 4778              		.loc 1 250 5 view .LVU914
 250:../Backend/gnu-efi-3.0.9/lib/dpath.c ****     FilePath = AllocateZeroPool (Size + SIZE_OF_FILEPATH_DEVICE_PATH + sizeof(EFI_DEVICE_PATH));
 4779              		.loc 1 250 12 is_stmt 0 view .LVU915
 4780 1504 4889F7   		movq	%rsi, %rdi
 4781              	.LVL446:
 250:../Backend/gnu-efi-3.0.9/lib/dpath.c ****     FilePath = AllocateZeroPool (Size + SIZE_OF_FILEPATH_DEVICE_PATH + sizeof(EFI_DEVICE_PATH));
 4782              		.loc 1 250 12 view .LVU916
 4783 1507 E8000000 		call	StrSize
 4783      00
 4784              	.LVL447:
 250:../Backend/gnu-efi-3.0.9/lib/dpath.c ****     FilePath = AllocateZeroPool (Size + SIZE_OF_FILEPATH_DEVICE_PATH + sizeof(EFI_DEVICE_PATH));
 4785              		.loc 1 250 12 view .LVU917
 4786 150c 4989C4   		movq	%rax, %r12
 4787              	.LVL448:
 251:../Backend/gnu-efi-3.0.9/lib/dpath.c ****     DevicePath = NULL;
 4788              		.loc 1 251 5 is_stmt 1 view .LVU918
 251:../Backend/gnu-efi-3.0.9/lib/dpath.c ****     DevicePath = NULL;
 4789              		.loc 1 251 16 is_stmt 0 view .LVU919
 4790 150f 488D7808 		leaq	8(%rax), %rdi
 4791 1513 E8000000 		call	AllocateZeroPool
 4791      00
 4792              	.LVL449:
 251:../Backend/gnu-efi-3.0.9/lib/dpath.c ****     DevicePath = NULL;
 4793              		.loc 1 251 16 view .LVU920
 4794 1518 4889C3   		movq	%rax, %rbx
 4795              	.LVL450:
 252:../Backend/gnu-efi-3.0.9/lib/dpath.c **** 
 4796              		.loc 1 252 5 is_stmt 1 view .LVU921
 254:../Backend/gnu-efi-3.0.9/lib/dpath.c **** 
 4797              		.loc 1 254 5 view .LVU922
 254:../Backend/gnu-efi-3.0.9/lib/dpath.c **** 
 4798              		.loc 1 254 8 is_stmt 0 view .LVU923
 4799 151b 4885C0   		testq	%rax, %rax
 4800 151e 7470     		je	.L245
 260:../Backend/gnu-efi-3.0.9/lib/dpath.c ****         FilePath->Header.SubType = MEDIA_FILEPATH_DP;
 4801              		.loc 1 260 9 is_stmt 1 view .LVU924
 260:../Backend/gnu-efi-3.0.9/lib/dpath.c ****         FilePath->Header.SubType = MEDIA_FILEPATH_DP;
 4802              		.loc 1 260 31 is_stmt 0 view .LVU925
 4803 1520 C60004   		movb	$4, (%rax)
 261:../Backend/gnu-efi-3.0.9/lib/dpath.c ****         SetDevicePathNodeLength (&FilePath->Header, Size + SIZE_OF_FILEPATH_DEVICE_PATH);
 4804              		.loc 1 261 9 is_stmt 1 view .LVU926
 261:../Backend/gnu-efi-3.0.9/lib/dpath.c ****         SetDevicePathNodeLength (&FilePath->Header, Size + SIZE_OF_FILEPATH_DEVICE_PATH);
 4805              		.loc 1 261 34 is_stmt 0 view .LVU927
 4806 1523 C6400104 		movb	$4, 1(%rax)
 262:../Backend/gnu-efi-3.0.9/lib/dpath.c ****         CopyMem (FilePath->PathName, FileName, Size);
 4807              		.loc 1 262 9 is_stmt 1 view .LVU928
 4808 1527 418D4424 		leal	4(%r12), %eax
 4808      04
 4809              	.LVL451:
 262:../Backend/gnu-efi-3.0.9/lib/dpath.c ****         CopyMem (FilePath->PathName, FileName, Size);
 4810              		.loc 1 262 9 is_stmt 0 view .LVU929
 4811 152c 884302   		movb	%al, 2(%rbx)
 262:../Backend/gnu-efi-3.0.9/lib/dpath.c ****         CopyMem (FilePath->PathName, FileName, Size);
 4812              		.loc 1 262 9 is_stmt 1 view .LVU930
 4813 152f 498D4424 		leaq	4(%r12), %rax
 4813      04
 4814 1534 0FB6C4   		movzbl	%ah, %eax
 4815 1537 884303   		movb	%al, 3(%rbx)
 262:../Backend/gnu-efi-3.0.9/lib/dpath.c ****         CopyMem (FilePath->PathName, FileName, Size);
 4816              		.loc 1 262 89 view .LVU931
 263:../Backend/gnu-efi-3.0.9/lib/dpath.c ****         Eop = NextDevicePathNode(&FilePath->Header);
 4817              		.loc 1 263 9 view .LVU932
 263:../Backend/gnu-efi-3.0.9/lib/dpath.c ****         Eop = NextDevicePathNode(&FilePath->Header);
 4818              		.loc 1 263 26 is_stmt 0 view .LVU933
 4819 153a 488D7B04 		leaq	4(%rbx), %rdi
 263:../Backend/gnu-efi-3.0.9/lib/dpath.c ****         Eop = NextDevicePathNode(&FilePath->Header);
 4820              		.loc 1 263 9 view .LVU934
 4821 153e 4C89E2   		movq	%r12, %rdx
 4822 1541 4C89EE   		movq	%r13, %rsi
 4823 1544 E8000000 		call	CopyMem
 4823      00
 4824              	.LVL452:
 264:../Backend/gnu-efi-3.0.9/lib/dpath.c ****         SetDevicePathEndNode(Eop);
 4825              		.loc 1 264 9 is_stmt 1 view .LVU935
 264:../Backend/gnu-efi-3.0.9/lib/dpath.c ****         SetDevicePathEndNode(Eop);
 4826              		.loc 1 264 15 is_stmt 0 view .LVU936
 4827 1549 0FB64302 		movzbl	2(%rbx), %eax
 4828 154d 0FB65303 		movzbl	3(%rbx), %edx
 4829 1551 C1E208   		sall	$8, %edx
 4830 1554 09D0     		orl	%edx, %eax
 4831 1556 4898     		cltq
 264:../Backend/gnu-efi-3.0.9/lib/dpath.c ****         SetDevicePathEndNode(Eop);
 4832              		.loc 1 264 13 view .LVU937
 4833 1558 4801D8   		addq	%rbx, %rax
 4834              	.LVL453:
 265:../Backend/gnu-efi-3.0.9/lib/dpath.c **** 
 4835              		.loc 1 265 9 is_stmt 1 view .LVU938
 4836 155b C6007F   		movb	$127, (%rax)
 265:../Backend/gnu-efi-3.0.9/lib/dpath.c **** 
 4837              		.loc 1 265 9 view .LVU939
 4838 155e C64001FF 		movb	$-1, 1(%rax)
 265:../Backend/gnu-efi-3.0.9/lib/dpath.c **** 
 4839              		.loc 1 265 9 view .LVU940
 4840 1562 C6400204 		movb	$4, 2(%rax)
 265:../Backend/gnu-efi-3.0.9/lib/dpath.c **** 
 4841              		.loc 1 265 9 view .LVU941
 4842 1566 C6400300 		movb	$0, 3(%rax)
 265:../Backend/gnu-efi-3.0.9/lib/dpath.c **** 
 4843              		.loc 1 265 34 view .LVU942
 271:../Backend/gnu-efi-3.0.9/lib/dpath.c ****         if (Device) {
 4844              		.loc 1 271 9 view .LVU943
 4845              	.LVL454:
 272:../Backend/gnu-efi-3.0.9/lib/dpath.c ****             DevicePath = AppendDevicePath (
 4846              		.loc 1 272 9 view .LVU944
 272:../Backend/gnu-efi-3.0.9/lib/dpath.c ****             DevicePath = AppendDevicePath (
 4847              		.loc 1 272 12 is_stmt 0 view .LVU945
 4848 156a 4885ED   		testq	%rbp, %rbp
 4849 156d 7421     		je	.L245
 273:../Backend/gnu-efi-3.0.9/lib/dpath.c ****                             DevicePathFromHandle(Device),
 4850              		.loc 1 273 13 is_stmt 1 view .LVU946
 273:../Backend/gnu-efi-3.0.9/lib/dpath.c ****                             DevicePathFromHandle(Device),
 4851              		.loc 1 273 26 is_stmt 0 view .LVU947
 4852 156f 4889EF   		movq	%rbp, %rdi
 4853 1572 E8000000 		call	DevicePathFromHandle
 4853      00
 4854              	.LVL455:
 273:../Backend/gnu-efi-3.0.9/lib/dpath.c ****                             DevicePathFromHandle(Device),
 4855              		.loc 1 273 26 view .LVU948
 4856 1577 4889C7   		movq	%rax, %rdi
 273:../Backend/gnu-efi-3.0.9/lib/dpath.c ****                             DevicePathFromHandle(Device),
 4857              		.loc 1 273 26 discriminator 1 view .LVU949
 4858 157a 4889DE   		movq	%rbx, %rsi
 4859 157d E8000000 		call	AppendDevicePath
 4859      00
 4860              	.LVL456:
 4861 1582 4889C5   		movq	%rax, %rbp
 4862              	.LVL457:
 278:../Backend/gnu-efi-3.0.9/lib/dpath.c ****         }
 4863              		.loc 1 278 13 is_stmt 1 view .LVU950
 4864 1585 4889DF   		movq	%rbx, %rdi
 4865 1588 E8000000 		call	FreePool
 4865      00
 4866              	.LVL458:
 273:../Backend/gnu-efi-3.0.9/lib/dpath.c ****                             DevicePathFromHandle(Device),
 4867              		.loc 1 273 26 is_stmt 0 discriminator 1 view .LVU951
 4868 158d 4889EB   		movq	%rbp, %rbx
 4869              	.LVL459:
 282:../Backend/gnu-efi-3.0.9/lib/dpath.c **** }
 4870              		.loc 1 282 5 is_stmt 1 view .LVU952
 4871              	.L245:
 283:../Backend/gnu-efi-3.0.9/lib/dpath.c **** 
 4872              		.loc 1 283 1 is_stmt 0 view .LVU953
 4873 1590 4889D8   		movq	%rbx, %rax
 4874 1593 4883C408 		addq	$8, %rsp
 4875              		.cfi_def_cfa_offset 40
 4876 1597 5B       		popq	%rbx
 4877              		.cfi_restore 3
 4878              		.cfi_def_cfa_offset 32
 4879 1598 5D       		popq	%rbp
 4880              		.cfi_restore 6
 4881              		.cfi_def_cfa_offset 24
 4882 1599 415C     		popq	%r12
 4883              		.cfi_restore 12
 4884              		.cfi_def_cfa_offset 16
 4885              	.LVL460:
 283:../Backend/gnu-efi-3.0.9/lib/dpath.c **** 
 4886              		.loc 1 283 1 view .LVU954
 4887 159b 415D     		popq	%r13
 4888              		.cfi_restore 13
 4889              		.cfi_def_cfa_offset 8
 4890              	.LVL461:
 283:../Backend/gnu-efi-3.0.9/lib/dpath.c **** 
 4891              		.loc 1 283 1 view .LVU955
 4892 159d C3       		ret
 4893              		.cfi_endproc
 4894              	.LFE5:
 4896              		.globl	UnpackDevicePath
 4897              		.hidden	UnpackDevicePath
 4899              	UnpackDevicePath:
 4900              	.LVL462:
 4901              	.LFB8:
 341:../Backend/gnu-efi-3.0.9/lib/dpath.c ****     EFI_DEVICE_PATH     *Src, *Dest, *NewPath;
 4902              		.loc 1 341 1 is_stmt 1 view -0
 4903              		.cfi_startproc
 341:../Backend/gnu-efi-3.0.9/lib/dpath.c ****     EFI_DEVICE_PATH     *Src, *Dest, *NewPath;
 4904              		.loc 1 341 1 is_stmt 0 view .LVU957
 4905 159e F30F1EFA 		endbr64
 4906 15a2 4156     		pushq	%r14
 4907              		.cfi_def_cfa_offset 16
 4908              		.cfi_offset 14, -16
 4909 15a4 4155     		pushq	%r13
 4910              		.cfi_def_cfa_offset 24
 4911              		.cfi_offset 13, -24
 4912 15a6 4154     		pushq	%r12
 4913              		.cfi_def_cfa_offset 32
 4914              		.cfi_offset 12, -32
 4915 15a8 55       		pushq	%rbp
 4916              		.cfi_def_cfa_offset 40
 4917              		.cfi_offset 6, -40
 4918 15a9 53       		pushq	%rbx
 4919              		.cfi_def_cfa_offset 48
 4920              		.cfi_offset 3, -48
 4921 15aa 4889FB   		movq	%rdi, %rbx
 342:../Backend/gnu-efi-3.0.9/lib/dpath.c ****     UINTN               Size;
 4922              		.loc 1 342 5 is_stmt 1 view .LVU958
 343:../Backend/gnu-efi-3.0.9/lib/dpath.c **** 
 4923              		.loc 1 343 5 view .LVU959
 349:../Backend/gnu-efi-3.0.9/lib/dpath.c ****     Size = 0;
 4924              		.loc 1 349 5 view .LVU960
 4925              	.LVL463:
 350:../Backend/gnu-efi-3.0.9/lib/dpath.c ****     for (; ;) {
 4926              		.loc 1 350 5 view .LVU961
 349:../Backend/gnu-efi-3.0.9/lib/dpath.c ****     Size = 0;
 4927              		.loc 1 349 9 is_stmt 0 view .LVU962
 4928 15ad 4889FA   		movq	%rdi, %rdx
 350:../Backend/gnu-efi-3.0.9/lib/dpath.c ****     for (; ;) {
 4929              		.loc 1 350 10 view .LVU963
 4930 15b0 BF000000 		movl	$0, %edi
 4930      00
 4931              	.LVL464:
 350:../Backend/gnu-efi-3.0.9/lib/dpath.c ****     for (; ;) {
 4932              		.loc 1 350 10 view .LVU964
 4933 15b5 EB1B     		jmp	.L252
 4934              	.LVL465:
 4935              	.L260:
 353:../Backend/gnu-efi-3.0.9/lib/dpath.c **** 
 4936              		.loc 1 353 17 discriminator 1 view .LVU965
 4937 15b7 BE040000 		movl	$4, %esi
 4937      00
 4938 15bc 4829CE   		subq	%rcx, %rsi
 4939 15bf 4889F1   		movq	%rsi, %rcx
 4940              	.L249:
 353:../Backend/gnu-efi-3.0.9/lib/dpath.c **** 
 4941              		.loc 1 353 14 discriminator 4 view .LVU966
 4942 15c2 4801CF   		addq	%rcx, %rdi
 4943              	.LVL466:
 355:../Backend/gnu-efi-3.0.9/lib/dpath.c ****             break;
 4944              		.loc 1 355 9 is_stmt 1 view .LVU967
 355:../Backend/gnu-efi-3.0.9/lib/dpath.c ****             break;
 4945              		.loc 1 355 13 is_stmt 0 view .LVU968
 4946 15c5 0FB60A   		movzbl	(%rdx), %ecx
 355:../Backend/gnu-efi-3.0.9/lib/dpath.c ****             break;
 4947              		.loc 1 355 12 view .LVU969
 4948 15c8 F7D1     		notl	%ecx
 4949 15ca F6C17F   		testb	$127, %cl
 4950 15cd 741F     		je	.L259
 4951              	.L250:
 359:../Backend/gnu-efi-3.0.9/lib/dpath.c ****     }
 4952              		.loc 1 359 9 is_stmt 1 view .LVU970
 359:../Backend/gnu-efi-3.0.9/lib/dpath.c ****     }
 4953              		.loc 1 359 13 is_stmt 0 view .LVU971
 4954 15cf 4801C2   		addq	%rax, %rdx
 4955              	.LVL467:
 351:../Backend/gnu-efi-3.0.9/lib/dpath.c ****         Size += DevicePathNodeLength(Src);
 4956              		.loc 1 351 5 is_stmt 1 view .LVU972
 4957              	.L252:
 351:../Backend/gnu-efi-3.0.9/lib/dpath.c ****         Size += DevicePathNodeLength(Src);
 4958              		.loc 1 351 5 view .LVU973
 352:../Backend/gnu-efi-3.0.9/lib/dpath.c ****         Size += ALIGN_SIZE(Size);
 4959              		.loc 1 352 9 view .LVU974
 352:../Backend/gnu-efi-3.0.9/lib/dpath.c ****         Size += ALIGN_SIZE(Size);
 4960              		.loc 1 352 17 is_stmt 0 view .LVU975
 4961 15d2 0FB64202 		movzbl	2(%rdx), %eax
 4962 15d6 0FB64A03 		movzbl	3(%rdx), %ecx
 4963 15da C1E108   		sall	$8, %ecx
 4964 15dd 09C8     		orl	%ecx, %eax
 4965 15df 4898     		cltq
 352:../Backend/gnu-efi-3.0.9/lib/dpath.c ****         Size += ALIGN_SIZE(Size);
 4966              		.loc 1 352 14 view .LVU976
 4967 15e1 4801C7   		addq	%rax, %rdi
 4968              	.LVL468:
 353:../Backend/gnu-efi-3.0.9/lib/dpath.c **** 
 4969              		.loc 1 353 9 is_stmt 1 view .LVU977
 353:../Backend/gnu-efi-3.0.9/lib/dpath.c **** 
 4970              		.loc 1 353 17 is_stmt 0 view .LVU978
 4971 15e4 4889F9   		movq	%rdi, %rcx
 4972 15e7 83E103   		andl	$3, %ecx
 4973 15ea 74D6     		je	.L249
 353:../Backend/gnu-efi-3.0.9/lib/dpath.c **** 
 4974              		.loc 1 353 17 view .LVU979
 4975 15ec EBC9     		jmp	.L260
 4976              	.L259:
 355:../Backend/gnu-efi-3.0.9/lib/dpath.c ****             break;
 4977              		.loc 1 355 13 discriminator 1 view .LVU980
 4978 15ee 807A01FF 		cmpb	$-1, 1(%rdx)
 4979 15f2 75DB     		jne	.L250
 367:../Backend/gnu-efi-3.0.9/lib/dpath.c ****     if (NewPath) {
 4980              		.loc 1 367 5 is_stmt 1 view .LVU981
 367:../Backend/gnu-efi-3.0.9/lib/dpath.c ****     if (NewPath) {
 4981              		.loc 1 367 15 is_stmt 0 view .LVU982
 4982 15f4 E8000000 		call	AllocateZeroPool
 4982      00
 4983              	.LVL469:
 367:../Backend/gnu-efi-3.0.9/lib/dpath.c ****     if (NewPath) {
 4984              		.loc 1 367 15 view .LVU983
 4985 15f9 4989C5   		movq	%rax, %r13
 4986              	.LVL470:
 368:../Backend/gnu-efi-3.0.9/lib/dpath.c **** 
 4987              		.loc 1 368 5 is_stmt 1 view .LVU984
 368:../Backend/gnu-efi-3.0.9/lib/dpath.c **** 
 4988              		.loc 1 368 8 is_stmt 0 view .LVU985
 4989 15fc 4885C0   		testq	%rax, %rax
 4990 15ff 746E     		je	.L248
 377:../Backend/gnu-efi-3.0.9/lib/dpath.c ****         for (; ;) {
 4991              		.loc 1 377 14 view .LVU986
 4992 1601 4989C4   		movq	%rax, %r12
 4993 1604 EB33     		jmp	.L256
 4994              	.LVL471:
 4995              	.L257:
 381:../Backend/gnu-efi-3.0.9/lib/dpath.c ****             SetDevicePathNodeLength (Dest, Size);
 4996              		.loc 1 381 21 discriminator 2 view .LVU987
 4997 1606 B8000000 		movl	$0, %eax
 4997      00
 4998              	.L254:
 381:../Backend/gnu-efi-3.0.9/lib/dpath.c ****             SetDevicePathNodeLength (Dest, Size);
 4999              		.loc 1 381 18 discriminator 4 view .LVU988
 5000 160b 4C01F0   		addq	%r14, %rax
 5001              	.LVL472:
 382:../Backend/gnu-efi-3.0.9/lib/dpath.c **** //            Dest->Type |= EFI_DP_TYPE_UNPACKED; // !!!!!!!!!!!! What?! This completely breaks Dev
 5002              		.loc 1 382 13 is_stmt 1 view .LVU989
 5003 160e 41884424 		movb	%al, 2(%r12)
 5003      02
 382:../Backend/gnu-efi-3.0.9/lib/dpath.c **** //            Dest->Type |= EFI_DP_TYPE_UNPACKED; // !!!!!!!!!!!! What?! This completely breaks Dev
 5004              		.loc 1 382 13 view .LVU990
 5005 1613 0FB6D4   		movzbl	%ah, %edx
 5006 1616 41885424 		movb	%dl, 3(%r12)
 5006      03
 382:../Backend/gnu-efi-3.0.9/lib/dpath.c **** //            Dest->Type |= EFI_DP_TYPE_UNPACKED; // !!!!!!!!!!!! What?! This completely breaks Dev
 5007              		.loc 1 382 49 view .LVU991
 384:../Backend/gnu-efi-3.0.9/lib/dpath.c **** 
 5008              		.loc 1 384 13 view .LVU992
 384:../Backend/gnu-efi-3.0.9/lib/dpath.c **** 
 5009              		.loc 1 384 18 is_stmt 0 view .LVU993
 5010 161b 4901C4   		addq	%rax, %r12
 5011              	.LVL473:
 386:../Backend/gnu-efi-3.0.9/lib/dpath.c ****                 break;
 5012              		.loc 1 386 13 is_stmt 1 view .LVU994
 386:../Backend/gnu-efi-3.0.9/lib/dpath.c ****                 break;
 5013              		.loc 1 386 17 is_stmt 0 view .LVU995
 5014 161e 0FB603   		movzbl	(%rbx), %eax
 5015              	.LVL474:
 386:../Backend/gnu-efi-3.0.9/lib/dpath.c ****                 break;
 5016              		.loc 1 386 16 view .LVU996
 5017 1621 F7D0     		notl	%eax
 5018 1623 A87F     		testb	$127, %al
 5019 1625 7442     		je	.L261
 5020              	.L255:
 390:../Backend/gnu-efi-3.0.9/lib/dpath.c ****         }
 5021              		.loc 1 390 13 is_stmt 1 view .LVU997
 390:../Backend/gnu-efi-3.0.9/lib/dpath.c ****         }
 5022              		.loc 1 390 19 is_stmt 0 view .LVU998
 5023 1627 0FB64302 		movzbl	2(%rbx), %eax
 5024 162b 0FB65303 		movzbl	3(%rbx), %edx
 5025 162f C1E208   		sall	$8, %edx
 5026 1632 09D0     		orl	%edx, %eax
 5027 1634 4898     		cltq
 390:../Backend/gnu-efi-3.0.9/lib/dpath.c ****         }
 5028              		.loc 1 390 17 view .LVU999
 5029 1636 4801C3   		addq	%rax, %rbx
 5030              	.LVL475:
 378:../Backend/gnu-efi-3.0.9/lib/dpath.c ****             Size = DevicePathNodeLength(Src);
 5031              		.loc 1 378 9 is_stmt 1 view .LVU1000
 5032              	.L256:
 378:../Backend/gnu-efi-3.0.9/lib/dpath.c ****             Size = DevicePathNodeLength(Src);
 5033              		.loc 1 378 9 view .LVU1001
 379:../Backend/gnu-efi-3.0.9/lib/dpath.c ****             CopyMem (Dest, Src, Size);
 5034              		.loc 1 379 13 view .LVU1002
 379:../Backend/gnu-efi-3.0.9/lib/dpath.c ****             CopyMem (Dest, Src, Size);
 5035              		.loc 1 379 20 is_stmt 0 view .LVU1003
 5036 1639 0FB66B02 		movzbl	2(%rbx), %ebp
 5037 163d 0FB64303 		movzbl	3(%rbx), %eax
 5038 1641 C1E008   		sall	$8, %eax
 5039 1644 09C5     		orl	%eax, %ebp
 379:../Backend/gnu-efi-3.0.9/lib/dpath.c ****             CopyMem (Dest, Src, Size);
 5040              		.loc 1 379 18 view .LVU1004
 5041 1646 4C63F5   		movslq	%ebp, %r14
 5042              	.LVL476:
 380:../Backend/gnu-efi-3.0.9/lib/dpath.c ****             Size += ALIGN_SIZE(Size);
 5043              		.loc 1 380 13 is_stmt 1 view .LVU1005
 5044 1649 4C89F2   		movq	%r14, %rdx
 5045 164c 4889DE   		movq	%rbx, %rsi
 5046 164f 4C89E7   		movq	%r12, %rdi
 5047 1652 E8000000 		call	CopyMem
 5047      00
 5048              	.LVL477:
 381:../Backend/gnu-efi-3.0.9/lib/dpath.c ****             SetDevicePathNodeLength (Dest, Size);
 5049              		.loc 1 381 13 view .LVU1006
 381:../Backend/gnu-efi-3.0.9/lib/dpath.c ****             SetDevicePathNodeLength (Dest, Size);
 5050              		.loc 1 381 21 is_stmt 0 view .LVU1007
 5051 1657 83E503   		andl	$3, %ebp
 5052 165a 74AA     		je	.L257
 381:../Backend/gnu-efi-3.0.9/lib/dpath.c ****             SetDevicePathNodeLength (Dest, Size);
 5053              		.loc 1 381 21 discriminator 1 view .LVU1008
 5054 165c 4863ED   		movslq	%ebp, %rbp
 5055 165f B8040000 		movl	$4, %eax
 5055      00
 5056 1664 4829E8   		subq	%rbp, %rax
 5057 1667 EBA2     		jmp	.L254
 5058              	.LVL478:
 5059              	.L261:
 386:../Backend/gnu-efi-3.0.9/lib/dpath.c ****                 break;
 5060              		.loc 1 386 17 discriminator 1 view .LVU1009
 5061 1669 807B01FF 		cmpb	$-1, 1(%rbx)
 5062 166d 75B8     		jne	.L255
 5063              	.LVL479:
 5064              	.L248:
 395:../Backend/gnu-efi-3.0.9/lib/dpath.c **** 
 5065              		.loc 1 395 1 view .LVU1010
 5066 166f 4C89E8   		movq	%r13, %rax
 5067 1672 5B       		popq	%rbx
 5068              		.cfi_restore 3
 5069              		.cfi_def_cfa_offset 40
 5070 1673 5D       		popq	%rbp
 5071              		.cfi_restore 6
 5072              		.cfi_def_cfa_offset 32
 5073 1674 415C     		popq	%r12
 5074              		.cfi_restore 12
 5075              		.cfi_def_cfa_offset 24
 5076 1676 415D     		popq	%r13
 5077              		.cfi_restore 13
 5078              		.cfi_def_cfa_offset 16
 5079              	.LVL480:
 395:../Backend/gnu-efi-3.0.9/lib/dpath.c **** 
 5080              		.loc 1 395 1 view .LVU1011
 5081 1678 415E     		popq	%r14
 5082              		.cfi_restore 14
 5083              		.cfi_def_cfa_offset 8
 5084 167a C3       		ret
 5085              		.cfi_endproc
 5086              	.LFE8:
 5088              		.globl	AppendDevicePathInstance
 5089              		.hidden	AppendDevicePathInstance
 5091              	AppendDevicePathInstance:
 5092              	.LVL481:
 5093              	.LFB9:
 403:../Backend/gnu-efi-3.0.9/lib/dpath.c ****     UINT8           *Ptr;
 5094              		.loc 1 403 1 is_stmt 1 view -0
 5095              		.cfi_startproc
 403:../Backend/gnu-efi-3.0.9/lib/dpath.c ****     UINT8           *Ptr;
 5096              		.loc 1 403 1 is_stmt 0 view .LVU1013
 5097 167b F30F1EFA 		endbr64
 5098 167f 4156     		pushq	%r14
 5099              		.cfi_def_cfa_offset 16
 5100              		.cfi_offset 14, -16
 5101 1681 4155     		pushq	%r13
 5102              		.cfi_def_cfa_offset 24
 5103              		.cfi_offset 13, -24
 5104 1683 4154     		pushq	%r12
 5105              		.cfi_def_cfa_offset 32
 5106              		.cfi_offset 12, -32
 5107 1685 55       		pushq	%rbp
 5108              		.cfi_def_cfa_offset 40
 5109              		.cfi_offset 6, -40
 5110 1686 53       		pushq	%rbx
 5111              		.cfi_def_cfa_offset 48
 5112              		.cfi_offset 3, -48
 5113 1687 4889F5   		movq	%rsi, %rbp
 404:../Backend/gnu-efi-3.0.9/lib/dpath.c ****     EFI_DEVICE_PATH *DevPath;
 5114              		.loc 1 404 5 is_stmt 1 view .LVU1014
 405:../Backend/gnu-efi-3.0.9/lib/dpath.c ****     UINTN           SrcSize;
 5115              		.loc 1 405 5 view .LVU1015
 406:../Backend/gnu-efi-3.0.9/lib/dpath.c ****     UINTN           InstanceSize;
 5116              		.loc 1 406 5 view .LVU1016
 407:../Backend/gnu-efi-3.0.9/lib/dpath.c **** 
 5117              		.loc 1 407 5 view .LVU1017
 409:../Backend/gnu-efi-3.0.9/lib/dpath.c ****         return DuplicateDevicePath (Instance);
 5118              		.loc 1 409 5 view .LVU1018
 409:../Backend/gnu-efi-3.0.9/lib/dpath.c ****         return DuplicateDevicePath (Instance);
 5119              		.loc 1 409 8 is_stmt 0 view .LVU1019
 5120 168a 4885FF   		testq	%rdi, %rdi
 5121 168d 7435     		je	.L268
 5122 168f 4989FD   		movq	%rdi, %r13
 412:../Backend/gnu-efi-3.0.9/lib/dpath.c ****     InstanceSize = DevicePathSize(Instance);
 5123              		.loc 1 412 5 is_stmt 1 view .LVU1020
 412:../Backend/gnu-efi-3.0.9/lib/dpath.c ****     InstanceSize = DevicePathSize(Instance);
 5124              		.loc 1 412 15 is_stmt 0 view .LVU1021
 5125 1692 E8000000 		call	DevicePathSize
 5125      00
 5126              	.LVL482:
 412:../Backend/gnu-efi-3.0.9/lib/dpath.c ****     InstanceSize = DevicePathSize(Instance);
 5127              		.loc 1 412 15 view .LVU1022
 5128 1697 4989C6   		movq	%rax, %r14
 5129              	.LVL483:
 413:../Backend/gnu-efi-3.0.9/lib/dpath.c ****     Ptr = AllocatePool (SrcSize + InstanceSize);
 5130              		.loc 1 413 5 is_stmt 1 view .LVU1023
 413:../Backend/gnu-efi-3.0.9/lib/dpath.c ****     Ptr = AllocatePool (SrcSize + InstanceSize);
 5131              		.loc 1 413 20 is_stmt 0 view .LVU1024
 5132 169a 4889EF   		movq	%rbp, %rdi
 5133 169d E8000000 		call	DevicePathSize
 5133      00
 5134              	.LVL484:
 413:../Backend/gnu-efi-3.0.9/lib/dpath.c ****     Ptr = AllocatePool (SrcSize + InstanceSize);
 5135              		.loc 1 413 20 view .LVU1025
 5136 16a2 4989C4   		movq	%rax, %r12
 5137              	.LVL485:
 414:../Backend/gnu-efi-3.0.9/lib/dpath.c ****     DevPath = (EFI_DEVICE_PATH *)Ptr;
 5138              		.loc 1 414 5 is_stmt 1 view .LVU1026
 414:../Backend/gnu-efi-3.0.9/lib/dpath.c ****     DevPath = (EFI_DEVICE_PATH *)Ptr;
 5139              		.loc 1 414 11 is_stmt 0 view .LVU1027
 5140 16a5 498D3C06 		leaq	(%r14,%rax), %rdi
 5141 16a9 E8000000 		call	AllocatePool
 5141      00
 5142              	.LVL486:
 414:../Backend/gnu-efi-3.0.9/lib/dpath.c ****     DevPath = (EFI_DEVICE_PATH *)Ptr;
 5143              		.loc 1 414 11 view .LVU1028
 5144 16ae 4889C3   		movq	%rax, %rbx
 5145              	.LVL487:
 415:../Backend/gnu-efi-3.0.9/lib/dpath.c ****     ASSERT(DevPath);
 5146              		.loc 1 415 5 is_stmt 1 view .LVU1029
 416:../Backend/gnu-efi-3.0.9/lib/dpath.c **** 
 5147              		.loc 1 416 20 view .LVU1030
 418:../Backend/gnu-efi-3.0.9/lib/dpath.c **** //    FreePool (Src);
 5148              		.loc 1 418 5 view .LVU1031
 5149 16b1 4C89F2   		movq	%r14, %rdx
 5150 16b4 4C89EE   		movq	%r13, %rsi
 5151 16b7 4889C7   		movq	%rax, %rdi
 5152 16ba E8000000 		call	CopyMem
 5152      00
 5153              	.LVL488:
 421:../Backend/gnu-efi-3.0.9/lib/dpath.c ****         DevPath = NextDevicePathNode(DevPath);
 5154              		.loc 1 421 5 view .LVU1032
 415:../Backend/gnu-efi-3.0.9/lib/dpath.c ****     ASSERT(DevPath);
 5155              		.loc 1 415 13 is_stmt 0 view .LVU1033
 5156 16bf 4889DF   		movq	%rbx, %rdi
 421:../Backend/gnu-efi-3.0.9/lib/dpath.c ****         DevPath = NextDevicePathNode(DevPath);
 5157              		.loc 1 421 11 view .LVU1034
 5158 16c2 EB1F     		jmp	.L265
 5159              	.LVL489:
 5160              	.L268:
 410:../Backend/gnu-efi-3.0.9/lib/dpath.c ****     }
 5161              		.loc 1 410 9 is_stmt 1 view .LVU1035
 410:../Backend/gnu-efi-3.0.9/lib/dpath.c ****     }
 5162              		.loc 1 410 16 is_stmt 0 view .LVU1036
 5163 16c4 4889F7   		movq	%rsi, %rdi
 5164              	.LVL490:
 410:../Backend/gnu-efi-3.0.9/lib/dpath.c ****     }
 5165              		.loc 1 410 16 view .LVU1037
 5166 16c7 E8000000 		call	DuplicateDevicePath
 5166      00
 5167              	.LVL491:
 410:../Backend/gnu-efi-3.0.9/lib/dpath.c ****     }
 5168              		.loc 1 410 16 view .LVU1038
 5169 16cc 4889C3   		movq	%rax, %rbx
 5170 16cf EB42     		jmp	.L262
 5171              	.LVL492:
 5172              	.L266:
 422:../Backend/gnu-efi-3.0.9/lib/dpath.c ****     }
 5173              		.loc 1 422 9 is_stmt 1 view .LVU1039
 422:../Backend/gnu-efi-3.0.9/lib/dpath.c ****     }
 5174              		.loc 1 422 19 is_stmt 0 view .LVU1040
 5175 16d1 0FB64702 		movzbl	2(%rdi), %eax
 5176 16d5 0FB65703 		movzbl	3(%rdi), %edx
 5177 16d9 C1E208   		sall	$8, %edx
 5178 16dc 09D0     		orl	%edx, %eax
 5179 16de 4898     		cltq
 422:../Backend/gnu-efi-3.0.9/lib/dpath.c ****     }
 5180              		.loc 1 422 17 view .LVU1041
 5181 16e0 4801C7   		addq	%rax, %rdi
 5182              	.LVL493:
 5183              	.L265:
 421:../Backend/gnu-efi-3.0.9/lib/dpath.c ****         DevPath = NextDevicePathNode(DevPath);
 5184              		.loc 1 421 12 is_stmt 1 view .LVU1042
 421:../Backend/gnu-efi-3.0.9/lib/dpath.c ****         DevPath = NextDevicePathNode(DevPath);
 5185              		.loc 1 421 13 is_stmt 0 view .LVU1043
 5186 16e3 0FB607   		movzbl	(%rdi), %eax
 421:../Backend/gnu-efi-3.0.9/lib/dpath.c ****         DevPath = NextDevicePathNode(DevPath);
 5187              		.loc 1 421 12 view .LVU1044
 5188 16e6 F7D0     		notl	%eax
 5189 16e8 A87F     		testb	$127, %al
 5190 16ea 75E5     		jne	.L266
 421:../Backend/gnu-efi-3.0.9/lib/dpath.c ****         DevPath = NextDevicePathNode(DevPath);
 5191              		.loc 1 421 12 discriminator 1 view .LVU1045
 5192 16ec 807F01FF 		cmpb	$-1, 1(%rdi)
 5193 16f0 75DF     		jne	.L266
 429:../Backend/gnu-efi-3.0.9/lib/dpath.c **** 
 5194              		.loc 1 429 5 is_stmt 1 view .LVU1046
 429:../Backend/gnu-efi-3.0.9/lib/dpath.c **** 
 5195              		.loc 1 429 22 is_stmt 0 view .LVU1047
 5196 16f2 C6470101 		movb	$1, 1(%rdi)
 431:../Backend/gnu-efi-3.0.9/lib/dpath.c ****     CopyMem (DevPath, Instance, InstanceSize);
 5197              		.loc 1 431 5 is_stmt 1 view .LVU1048
 431:../Backend/gnu-efi-3.0.9/lib/dpath.c ****     CopyMem (DevPath, Instance, InstanceSize);
 5198              		.loc 1 431 15 is_stmt 0 view .LVU1049
 5199 16f6 0FB64702 		movzbl	2(%rdi), %eax
 5200 16fa 0FB65703 		movzbl	3(%rdi), %edx
 5201 16fe C1E208   		sall	$8, %edx
 5202 1701 09D0     		orl	%edx, %eax
 5203 1703 4898     		cltq
 431:../Backend/gnu-efi-3.0.9/lib/dpath.c ****     CopyMem (DevPath, Instance, InstanceSize);
 5204              		.loc 1 431 13 view .LVU1050
 5205 1705 4801C7   		addq	%rax, %rdi
 5206              	.LVL494:
 432:../Backend/gnu-efi-3.0.9/lib/dpath.c ****     return (EFI_DEVICE_PATH *)Ptr;
 5207              		.loc 1 432 5 is_stmt 1 view .LVU1051
 5208 1708 4C89E2   		movq	%r12, %rdx
 5209 170b 4889EE   		movq	%rbp, %rsi
 5210 170e E8000000 		call	CopyMem
 5210      00
 5211              	.LVL495:
 433:../Backend/gnu-efi-3.0.9/lib/dpath.c **** }
 5212              		.loc 1 433 5 view .LVU1052
 5213              	.L262:
 434:../Backend/gnu-efi-3.0.9/lib/dpath.c **** 
 5214              		.loc 1 434 1 is_stmt 0 view .LVU1053
 5215 1713 4889D8   		movq	%rbx, %rax
 5216 1716 5B       		popq	%rbx
 5217              		.cfi_restore 3
 5218              		.cfi_def_cfa_offset 40
 5219 1717 5D       		popq	%rbp
 5220              		.cfi_restore 6
 5221              		.cfi_def_cfa_offset 32
 5222              	.LVL496:
 434:../Backend/gnu-efi-3.0.9/lib/dpath.c **** 
 5223              		.loc 1 434 1 view .LVU1054
 5224 1718 415C     		popq	%r12
 5225              		.cfi_restore 12
 5226              		.cfi_def_cfa_offset 24
 5227 171a 415D     		popq	%r13
 5228              		.cfi_restore 13
 5229              		.cfi_def_cfa_offset 16
 5230 171c 415E     		popq	%r14
 5231              		.cfi_restore 14
 5232              		.cfi_def_cfa_offset 8
 5233 171e C3       		ret
 5234              		.cfi_endproc
 5235              	.LFE9:
 5237              		.globl	LibDevicePathToInterface
 5238              		.hidden	LibDevicePathToInterface
 5240              	LibDevicePathToInterface:
 5241              	.LVL497:
 5242              	.LFB10:
 442:../Backend/gnu-efi-3.0.9/lib/dpath.c ****     EFI_STATUS              Status;
 5243              		.loc 1 442 1 is_stmt 1 view -0
 5244              		.cfi_startproc
 442:../Backend/gnu-efi-3.0.9/lib/dpath.c ****     EFI_STATUS              Status;
 5245              		.loc 1 442 1 is_stmt 0 view .LVU1056
 5246 171f F30F1EFA 		endbr64
 5247 1723 55       		pushq	%rbp
 5248              		.cfi_def_cfa_offset 16
 5249              		.cfi_offset 6, -16
 5250 1724 53       		pushq	%rbx
 5251              		.cfi_def_cfa_offset 24
 5252              		.cfi_offset 3, -24
 5253 1725 4883EC58 		subq	$88, %rsp
 5254              		.cfi_def_cfa_offset 112
 5255 1729 4889FB   		movq	%rdi, %rbx
 5256 172c 48897424 		movq	%rsi, 56(%rsp)
 5256      38
 5257 1731 4889D5   		movq	%rdx, %rbp
 443:../Backend/gnu-efi-3.0.9/lib/dpath.c ****     EFI_HANDLE              Device;
 5258              		.loc 1 443 5 is_stmt 1 view .LVU1057
 444:../Backend/gnu-efi-3.0.9/lib/dpath.c **** 
 5259              		.loc 1 444 5 view .LVU1058
 446:../Backend/gnu-efi-3.0.9/lib/dpath.c **** 
 5260              		.loc 1 446 5 view .LVU1059
 446:../Backend/gnu-efi-3.0.9/lib/dpath.c **** 
 5261              		.loc 1 446 14 is_stmt 0 view .LVU1060
 5262 1734 488D5424 		leaq	56(%rsp), %rdx
 5262      38
 5263              	.LVL498:
 446:../Backend/gnu-efi-3.0.9/lib/dpath.c **** 
 5264              		.loc 1 446 14 view .LVU1061
 5265 1739 4C8D4424 		leaq	72(%rsp), %r8
 5265      48
 5266 173e 4889F9   		movq	%rdi, %rcx
 5267 1741 488B0500 		movq	BS(%rip), %rax
 5267      000000
 5268 1748 FF90B800 		call	*184(%rax)
 5268      0000
 5269              	.LVL499:
 448:../Backend/gnu-efi-3.0.9/lib/dpath.c **** 
 5270              		.loc 1 448 5 is_stmt 1 view .LVU1062
 448:../Backend/gnu-efi-3.0.9/lib/dpath.c **** 
 5271              		.loc 1 448 8 is_stmt 0 view .LVU1063
 5272 174e 4885C0   		testq	%rax, %rax
 5273 1751 7818     		js	.L270
 451:../Backend/gnu-efi-3.0.9/lib/dpath.c **** 
 5274              		.loc 1 451 9 is_stmt 1 view .LVU1064
 5275              	.LVL500:
 453:../Backend/gnu-efi-3.0.9/lib/dpath.c **** 
 5276              		.loc 1 453 9 view .LVU1065
 453:../Backend/gnu-efi-3.0.9/lib/dpath.c **** 
 5277              		.loc 1 453 13 is_stmt 0 view .LVU1066
 5278 1753 488B5424 		movq	56(%rsp), %rdx
 5278      38
 5279 1758 0FB602   		movzbl	(%rdx), %eax
 453:../Backend/gnu-efi-3.0.9/lib/dpath.c **** 
 5280              		.loc 1 453 12 view .LVU1067
 5281 175b F7D0     		notl	%eax
 5282 175d A87F     		testb	$127, %al
 5283 175f 7419     		je	.L275
 451:../Backend/gnu-efi-3.0.9/lib/dpath.c **** 
 5284              		.loc 1 451 16 view .LVU1068
 5285 1761 48B80E00 		movabsq	$-9223372036854775794, %rax
 5285      00000000 
 5285      0080
 5286              	.LVL501:
 5287              	.L270:
 469:../Backend/gnu-efi-3.0.9/lib/dpath.c ****     }
 5288              		.loc 1 469 9 is_stmt 1 view .LVU1069
 469:../Backend/gnu-efi-3.0.9/lib/dpath.c ****     }
 5289              		.loc 1 469 20 is_stmt 0 view .LVU1070
 5290 176b 48C74500 		movq	$0, 0(%rbp)
 5290      00000000 
 472:../Backend/gnu-efi-3.0.9/lib/dpath.c **** }
 5291              		.loc 1 472 5 is_stmt 1 view .LVU1071
 5292              	.L269:
 473:../Backend/gnu-efi-3.0.9/lib/dpath.c **** 
 5293              		.loc 1 473 1 is_stmt 0 view .LVU1072
 5294 1773 4883C458 		addq	$88, %rsp
 5295              		.cfi_remember_state
 5296              		.cfi_def_cfa_offset 24
 5297 1777 5B       		popq	%rbx
 5298              		.cfi_restore 3
 5299              		.cfi_def_cfa_offset 16
 5300              	.LVL502:
 473:../Backend/gnu-efi-3.0.9/lib/dpath.c **** 
 5301              		.loc 1 473 1 view .LVU1073
 5302 1778 5D       		popq	%rbp
 5303              		.cfi_restore 6
 5304              		.cfi_def_cfa_offset 8
 5305              	.LVL503:
 473:../Backend/gnu-efi-3.0.9/lib/dpath.c **** 
 5306              		.loc 1 473 1 view .LVU1074
 5307 1779 C3       		ret
 5308              	.LVL504:
 5309              	.L275:
 5310              		.cfi_restore_state
 453:../Backend/gnu-efi-3.0.9/lib/dpath.c **** 
 5311              		.loc 1 453 13 discriminator 1 view .LVU1075
 5312 177a 807A01FF 		cmpb	$-1, 1(%rdx)
 5313 177e 740C     		je	.L276
 451:../Backend/gnu-efi-3.0.9/lib/dpath.c **** 
 5314              		.loc 1 451 16 view .LVU1076
 5315 1780 48B80E00 		movabsq	$-9223372036854775794, %rax
 5315      00000000 
 5315      0080
 5316 178a EBDF     		jmp	.L270
 5317              	.L276:
 460:../Backend/gnu-efi-3.0.9/lib/dpath.c ****         }
 5318              		.loc 1 460 13 is_stmt 1 view .LVU1077
 460:../Backend/gnu-efi-3.0.9/lib/dpath.c ****         }
 5319              		.loc 1 460 22 is_stmt 0 view .LVU1078
 5320 178c 488B0500 		movq	BS(%rip), %rax
 5320      000000
 5321 1793 488B8018 		movq	280(%rax), %rax
 5321      010000
 5322 179a C7442428 		movl	$2, 40(%rsp)
 5322      02000000 
 5323 17a2 48C74424 		movq	$0, 32(%rsp)
 5323      20000000 
 5323      00
 5324 17ab 41B90000 		movl	$0, %r9d
 5324      0000
 5325 17b1 4989E8   		movq	%rbp, %r8
 5326 17b4 4889DA   		movq	%rbx, %rdx
 5327 17b7 488B4C24 		movq	72(%rsp), %rcx
 5327      48
 5328 17bc FFD0     		call	*%rax
 5329              	.LVL505:
 468:../Backend/gnu-efi-3.0.9/lib/dpath.c ****         *Interface = NULL;
 5330              		.loc 1 468 5 is_stmt 1 view .LVU1079
 468:../Backend/gnu-efi-3.0.9/lib/dpath.c ****         *Interface = NULL;
 5331              		.loc 1 468 8 is_stmt 0 view .LVU1080
 5332 17be 4885C0   		testq	%rax, %rax
 5333 17c1 79B0     		jns	.L269
 5334 17c3 EBA6     		jmp	.L270
 5335              		.cfi_endproc
 5336              	.LFE10:
 5338              		.section	.rodata
 5339              		.align 2
 5340              	.LC89:
 5341 074e 2F00     		.string	"/"
 5342 0750 00       		.string	""
 5343 0751 00       		.string	""
 5344              		.text
 5345              		.globl	DevicePathToStr
 5346              		.hidden	DevicePathToStr
 5348              	DevicePathToStr:
 5349              	.LVL506:
 5350              	.LFB43:
1294:../Backend/gnu-efi-3.0.9/lib/dpath.c **** 
1295:../Backend/gnu-efi-3.0.9/lib/dpath.c **** 
1296:../Backend/gnu-efi-3.0.9/lib/dpath.c **** /*
1297:../Backend/gnu-efi-3.0.9/lib/dpath.c ****  * Table to convert "Type" and "SubType" to a "convert to text" function/
1298:../Backend/gnu-efi-3.0.9/lib/dpath.c ****  * Entries hold "Type" and "SubType" for know values.
1299:../Backend/gnu-efi-3.0.9/lib/dpath.c ****  * Special "SubType" 0 is used as default for known type with unknown subtype.
1300:../Backend/gnu-efi-3.0.9/lib/dpath.c ****  */
1301:../Backend/gnu-efi-3.0.9/lib/dpath.c **** struct {
1302:../Backend/gnu-efi-3.0.9/lib/dpath.c ****     UINT8   Type;
1303:../Backend/gnu-efi-3.0.9/lib/dpath.c ****     UINT8   SubType;
1304:../Backend/gnu-efi-3.0.9/lib/dpath.c ****     VOID    (*Function)(POOL_PRINT *, VOID *);
1305:../Backend/gnu-efi-3.0.9/lib/dpath.c **** } DevPathTable[] = {
1306:../Backend/gnu-efi-3.0.9/lib/dpath.c **** 	{ HARDWARE_DEVICE_PATH,   HW_PCI_DP,                        _DevPathPci},
1307:../Backend/gnu-efi-3.0.9/lib/dpath.c **** 	{ HARDWARE_DEVICE_PATH,   HW_PCCARD_DP,                     _DevPathPccard},
1308:../Backend/gnu-efi-3.0.9/lib/dpath.c **** 	{ HARDWARE_DEVICE_PATH,   HW_MEMMAP_DP,                     _DevPathMemMap},
1309:../Backend/gnu-efi-3.0.9/lib/dpath.c **** 	{ HARDWARE_DEVICE_PATH,   HW_VENDOR_DP,                     _DevPathVendor},
1310:../Backend/gnu-efi-3.0.9/lib/dpath.c **** 	{ HARDWARE_DEVICE_PATH,   HW_CONTROLLER_DP,                 _DevPathController},
1311:../Backend/gnu-efi-3.0.9/lib/dpath.c **** 	{ ACPI_DEVICE_PATH,       ACPI_DP,                          _DevPathAcpi},
1312:../Backend/gnu-efi-3.0.9/lib/dpath.c ****   { ACPI_DEVICE_PATH,       EXPANDED_ACPI_DP,                 _DevPathAcpiExpanded},
1313:../Backend/gnu-efi-3.0.9/lib/dpath.c ****   { ACPI_DEVICE_PATH,       ACPI_ADR_DP,                      _DevPathAcpiAdr},
1314:../Backend/gnu-efi-3.0.9/lib/dpath.c **** 	{ MESSAGING_DEVICE_PATH,  MSG_ATAPI_DP,                     _DevPathAtapi},
1315:../Backend/gnu-efi-3.0.9/lib/dpath.c **** 	{ MESSAGING_DEVICE_PATH,  MSG_SCSI_DP,                      _DevPathScsi},
1316:../Backend/gnu-efi-3.0.9/lib/dpath.c **** 	{ MESSAGING_DEVICE_PATH,  MSG_FIBRECHANNEL_DP,              _DevPathFibre},
1317:../Backend/gnu-efi-3.0.9/lib/dpath.c **** 	{ MESSAGING_DEVICE_PATH,  MSG_1394_DP,                      _DevPath1394},
1318:../Backend/gnu-efi-3.0.9/lib/dpath.c **** 	{ MESSAGING_DEVICE_PATH,  MSG_USB_DP,                       _DevPathUsb},
1319:../Backend/gnu-efi-3.0.9/lib/dpath.c **** 	{ MESSAGING_DEVICE_PATH,  MSG_I2O_DP,                       _DevPathI2O},
1320:../Backend/gnu-efi-3.0.9/lib/dpath.c **** 	{ MESSAGING_DEVICE_PATH,  MSG_MAC_ADDR_DP,                  _DevPathMacAddr},
1321:../Backend/gnu-efi-3.0.9/lib/dpath.c **** 	{ MESSAGING_DEVICE_PATH,  MSG_IPv4_DP,                      _DevPathIPv4},
1322:../Backend/gnu-efi-3.0.9/lib/dpath.c **** 	{ MESSAGING_DEVICE_PATH,  MSG_IPv6_DP,                      _DevPathIPv6},
1323:../Backend/gnu-efi-3.0.9/lib/dpath.c **** 	{ MESSAGING_DEVICE_PATH,  MSG_URI_DP,                       _DevPathUri},
1324:../Backend/gnu-efi-3.0.9/lib/dpath.c **** 	{ MESSAGING_DEVICE_PATH,  MSG_INFINIBAND_DP,                _DevPathInfiniBand},
1325:../Backend/gnu-efi-3.0.9/lib/dpath.c **** 	{ MESSAGING_DEVICE_PATH,  MSG_UART_DP,                      _DevPathUart},
1326:../Backend/gnu-efi-3.0.9/lib/dpath.c **** 	{ MESSAGING_DEVICE_PATH , MSG_SATA_DP ,                     _DevPathSata } ,
1327:../Backend/gnu-efi-3.0.9/lib/dpath.c **** 	{ MESSAGING_DEVICE_PATH,  MSG_VENDOR_DP,                    _DevPathVendor},
1328:../Backend/gnu-efi-3.0.9/lib/dpath.c **** 	{ MEDIA_DEVICE_PATH,      MEDIA_HARDDRIVE_DP,               _DevPathHardDrive},
1329:../Backend/gnu-efi-3.0.9/lib/dpath.c **** 	{ MEDIA_DEVICE_PATH,      MEDIA_CDROM_DP,                   _DevPathCDROM},
1330:../Backend/gnu-efi-3.0.9/lib/dpath.c **** 	{ MEDIA_DEVICE_PATH,      MEDIA_VENDOR_DP,                  _DevPathVendor},
1331:../Backend/gnu-efi-3.0.9/lib/dpath.c **** 	{ MEDIA_DEVICE_PATH,      MEDIA_FILEPATH_DP,                _DevPathFilePath},
1332:../Backend/gnu-efi-3.0.9/lib/dpath.c **** 	{ MEDIA_DEVICE_PATH,      MEDIA_PROTOCOL_DP,                _DevPathMediaProtocol},
1333:../Backend/gnu-efi-3.0.9/lib/dpath.c **** 	{ BBS_DEVICE_PATH,        BBS_BBS_DP,                       _DevPathBssBss},
1334:../Backend/gnu-efi-3.0.9/lib/dpath.c **** 	{ END_DEVICE_PATH_TYPE,   END_INSTANCE_DEVICE_PATH_SUBTYPE, _DevPathEndInstance},
1335:../Backend/gnu-efi-3.0.9/lib/dpath.c **** 	{ 0,                      0,                          NULL}
1336:../Backend/gnu-efi-3.0.9/lib/dpath.c **** };
1337:../Backend/gnu-efi-3.0.9/lib/dpath.c **** 
1338:../Backend/gnu-efi-3.0.9/lib/dpath.c **** 
1339:../Backend/gnu-efi-3.0.9/lib/dpath.c **** CHAR16 *
1340:../Backend/gnu-efi-3.0.9/lib/dpath.c **** DevicePathToStr (
1341:../Backend/gnu-efi-3.0.9/lib/dpath.c ****     EFI_DEVICE_PATH     *DevPath
1342:../Backend/gnu-efi-3.0.9/lib/dpath.c ****     )
1343:../Backend/gnu-efi-3.0.9/lib/dpath.c **** /*++
1344:../Backend/gnu-efi-3.0.9/lib/dpath.c **** 
1345:../Backend/gnu-efi-3.0.9/lib/dpath.c ****     Turns the Device Path into a printable string.  Allocates
1346:../Backend/gnu-efi-3.0.9/lib/dpath.c ****     the string from pool.  The caller must FreePool the returned
1347:../Backend/gnu-efi-3.0.9/lib/dpath.c ****     string.
1348:../Backend/gnu-efi-3.0.9/lib/dpath.c **** 
1349:../Backend/gnu-efi-3.0.9/lib/dpath.c **** --*/
1350:../Backend/gnu-efi-3.0.9/lib/dpath.c **** {
 5351              		.loc 1 1350 1 is_stmt 1 view -0
 5352              		.cfi_startproc
 5353              		.loc 1 1350 1 is_stmt 0 view .LVU1082
 5354 17c5 F30F1EFA 		endbr64
 5355 17c9 4154     		pushq	%r12
 5356              		.cfi_def_cfa_offset 16
 5357              		.cfi_offset 12, -16
 5358 17cb 55       		pushq	%rbp
 5359              		.cfi_def_cfa_offset 24
 5360              		.cfi_offset 6, -24
 5361 17cc 53       		pushq	%rbx
 5362              		.cfi_def_cfa_offset 32
 5363              		.cfi_offset 3, -32
 5364 17cd 4883EC20 		subq	$32, %rsp
 5365              		.cfi_def_cfa_offset 64
 5366 17d1 4889FB   		movq	%rdi, %rbx
1351:../Backend/gnu-efi-3.0.9/lib/dpath.c ****     POOL_PRINT          Str;
 5367              		.loc 1 1351 5 is_stmt 1 view .LVU1083
1352:../Backend/gnu-efi-3.0.9/lib/dpath.c ****     EFI_DEVICE_PATH     *DevPathNode;
 5368              		.loc 1 1352 5 view .LVU1084
1353:../Backend/gnu-efi-3.0.9/lib/dpath.c ****     VOID                (*DumpNode)(POOL_PRINT *, VOID *);
 5369              		.loc 1 1353 5 view .LVU1085
1354:../Backend/gnu-efi-3.0.9/lib/dpath.c ****     UINTN               Index, NewSize;
 5370              		.loc 1 1354 5 view .LVU1086
1355:../Backend/gnu-efi-3.0.9/lib/dpath.c **** 
1356:../Backend/gnu-efi-3.0.9/lib/dpath.c ****     ZeroMem(&Str, sizeof(Str));
 5371              		.loc 1 1356 5 view .LVU1087
 5372 17d4 4889E7   		movq	%rsp, %rdi
 5373              	.LVL507:
 5374              		.loc 1 1356 5 is_stmt 0 view .LVU1088
 5375 17d7 BE180000 		movl	$24, %esi
 5375      00
 5376 17dc E8000000 		call	ZeroMem
 5376      00
 5377              	.LVL508:
1357:../Backend/gnu-efi-3.0.9/lib/dpath.c **** 
1358:../Backend/gnu-efi-3.0.9/lib/dpath.c ****     //
1359:../Backend/gnu-efi-3.0.9/lib/dpath.c ****     // Unpacked the device path
1360:../Backend/gnu-efi-3.0.9/lib/dpath.c ****     //
1361:../Backend/gnu-efi-3.0.9/lib/dpath.c **** 
1362:../Backend/gnu-efi-3.0.9/lib/dpath.c ****     DevPath = UnpackDevicePath(DevPath);
 5378              		.loc 1 1362 5 is_stmt 1 view .LVU1089
 5379              		.loc 1 1362 15 is_stmt 0 view .LVU1090
 5380 17e1 4889DF   		movq	%rbx, %rdi
 5381 17e4 E8000000 		call	UnpackDevicePath
 5381      00
 5382              	.LVL509:
 5383 17e9 4989C4   		movq	%rax, %r12
 5384              	.LVL510:
1363:../Backend/gnu-efi-3.0.9/lib/dpath.c ****     ASSERT (DevPath);
 5385              		.loc 1 1363 21 is_stmt 1 view .LVU1091
1364:../Backend/gnu-efi-3.0.9/lib/dpath.c **** 
1365:../Backend/gnu-efi-3.0.9/lib/dpath.c **** 
1366:../Backend/gnu-efi-3.0.9/lib/dpath.c ****     //
1367:../Backend/gnu-efi-3.0.9/lib/dpath.c ****     // Process each device path node
1368:../Backend/gnu-efi-3.0.9/lib/dpath.c ****     //
1369:../Backend/gnu-efi-3.0.9/lib/dpath.c **** 
1370:../Backend/gnu-efi-3.0.9/lib/dpath.c ****     DevPathNode = DevPath;
 5386              		.loc 1 1370 5 view .LVU1092
1371:../Backend/gnu-efi-3.0.9/lib/dpath.c ****     while (!IsDevicePathEnd(DevPathNode)) {
 5387              		.loc 1 1371 5 view .LVU1093
1370:../Backend/gnu-efi-3.0.9/lib/dpath.c ****     while (!IsDevicePathEnd(DevPathNode)) {
 5388              		.loc 1 1370 17 is_stmt 0 view .LVU1094
 5389 17ec 4889C5   		movq	%rax, %rbp
 5390              		.loc 1 1371 11 view .LVU1095
 5391 17ef E9890000 		jmp	.L278
 5391      00
 5392              	.LVL511:
 5393              	.L279:
1372:../Backend/gnu-efi-3.0.9/lib/dpath.c ****         //
1373:../Backend/gnu-efi-3.0.9/lib/dpath.c ****         // Find the handler to dump this device path node
1374:../Backend/gnu-efi-3.0.9/lib/dpath.c ****         //
1375:../Backend/gnu-efi-3.0.9/lib/dpath.c **** 
1376:../Backend/gnu-efi-3.0.9/lib/dpath.c ****         DumpNode = NULL;
1377:../Backend/gnu-efi-3.0.9/lib/dpath.c ****         for (Index = 0; DevPathTable[Index].Function; Index += 1) {
 5394              		.loc 1 1377 61 is_stmt 1 discriminator 2 view .LVU1096
 5395 17f4 4883C001 		addq	$1, %rax
 5396              	.LVL512:
 5397              	.L281:
 5398              		.loc 1 1377 25 discriminator 1 view .LVU1097
 5399              		.loc 1 1377 44 is_stmt 0 discriminator 1 view .LVU1098
 5400 17f8 4889C2   		movq	%rax, %rdx
 5401 17fb 48C1E204 		salq	$4, %rdx
 5402 17ff 488D0D00 		leaq	DevPathTable(%rip), %rcx
 5402      000000
 5403 1806 488B5C11 		movq	8(%rcx,%rdx), %rbx
 5403      08
 5404              		.loc 1 1377 25 discriminator 1 view .LVU1099
 5405 180b 4885DB   		testq	%rbx, %rbx
 5406 180e 7426     		je	.L280
1378:../Backend/gnu-efi-3.0.9/lib/dpath.c **** 
1379:../Backend/gnu-efi-3.0.9/lib/dpath.c ****             if (DevicePathType(DevPathNode) == DevPathTable[Index].Type &&
 5407              		.loc 1 1379 13 is_stmt 1 view .LVU1100
 5408              		.loc 1 1379 67 is_stmt 0 view .LVU1101
 5409 1810 4889C2   		movq	%rax, %rdx
 5410 1813 48C1E204 		salq	$4, %rdx
 5411              		.loc 1 1379 16 view .LVU1102
 5412 1817 488D0D00 		leaq	DevPathTable(%rip), %rcx
 5412      000000
 5413 181e 40383411 		cmpb	%sil, (%rcx,%rdx)
 5414 1822 75D0     		jne	.L279
1380:../Backend/gnu-efi-3.0.9/lib/dpath.c ****                 DevicePathSubType(DevPathNode) == DevPathTable[Index].SubType) {
 5415              		.loc 1 1380 70 view .LVU1103
 5416 1824 4889C2   		movq	%rax, %rdx
 5417 1827 48C1E204 		salq	$4, %rdx
1379:../Backend/gnu-efi-3.0.9/lib/dpath.c ****                 DevicePathSubType(DevPathNode) == DevPathTable[Index].SubType) {
 5418              		.loc 1 1379 73 discriminator 1 view .LVU1104
 5419 182b 0FB67C11 		movzbl	1(%rcx,%rdx), %edi
 5419      01
 5420 1830 40387D01 		cmpb	%dil, 1(%rbp)
 5421 1834 75BE     		jne	.L279
 5422              	.L280:
 5423              	.LVL513:
1381:../Backend/gnu-efi-3.0.9/lib/dpath.c ****                 DumpNode = DevPathTable[Index].Function;
1382:../Backend/gnu-efi-3.0.9/lib/dpath.c ****                 break;
1383:../Backend/gnu-efi-3.0.9/lib/dpath.c ****             }
1384:../Backend/gnu-efi-3.0.9/lib/dpath.c ****         }
1385:../Backend/gnu-efi-3.0.9/lib/dpath.c **** 
1386:../Backend/gnu-efi-3.0.9/lib/dpath.c ****         //
1387:../Backend/gnu-efi-3.0.9/lib/dpath.c ****         // If not found, use a generic function
1388:../Backend/gnu-efi-3.0.9/lib/dpath.c ****         //
1389:../Backend/gnu-efi-3.0.9/lib/dpath.c **** 
1390:../Backend/gnu-efi-3.0.9/lib/dpath.c ****         if (!DumpNode) {
 5424              		.loc 1 1390 9 is_stmt 1 view .LVU1105
 5425              		.loc 1 1390 12 is_stmt 0 view .LVU1106
 5426 1836 4885DB   		testq	%rbx, %rbx
 5427 1839 7459     		je	.L290
 5428              	.LVL514:
 5429              	.L283:
1391:../Backend/gnu-efi-3.0.9/lib/dpath.c ****             DumpNode = _DevPathNodeUnknown;
1392:../Backend/gnu-efi-3.0.9/lib/dpath.c ****         }
1393:../Backend/gnu-efi-3.0.9/lib/dpath.c **** 
1394:../Backend/gnu-efi-3.0.9/lib/dpath.c ****         //
1395:../Backend/gnu-efi-3.0.9/lib/dpath.c ****         //  Put a path seperator in if needed
1396:../Backend/gnu-efi-3.0.9/lib/dpath.c ****         //
1397:../Backend/gnu-efi-3.0.9/lib/dpath.c **** 
1398:../Backend/gnu-efi-3.0.9/lib/dpath.c ****         if (Str.len  &&  DumpNode != _DevPathEndInstance) {
 5430              		.loc 1 1398 9 is_stmt 1 view .LVU1107
 5431              		.loc 1 1398 12 is_stmt 0 view .LVU1108
 5432 183b 48837C24 		cmpq	$0, 8(%rsp)
 5432      0800
 5433 1841 7420     		je	.L284
 5434              		.loc 1 1398 22 discriminator 1 view .LVU1109
 5435 1843 488D05C9 		leaq	_DevPathEndInstance(%rip), %rax
 5435      E7FFFF
 5436              	.LVL515:
 5437              		.loc 1 1398 22 discriminator 1 view .LVU1110
 5438 184a 4839C3   		cmpq	%rax, %rbx
 5439 184d 7414     		je	.L284
1399:../Backend/gnu-efi-3.0.9/lib/dpath.c ****             CatPrint (&Str, L"/");
 5440              		.loc 1 1399 13 is_stmt 1 view .LVU1111
 5441 184f 4889E7   		movq	%rsp, %rdi
 5442 1852 488D3500 		leaq	.LC89(%rip), %rsi
 5442      000000
 5443 1859 B8000000 		movl	$0, %eax
 5443      00
 5444 185e E8000000 		call	CatPrint
 5444      00
 5445              	.LVL516:
 5446              	.L284:
1400:../Backend/gnu-efi-3.0.9/lib/dpath.c ****         }
1401:../Backend/gnu-efi-3.0.9/lib/dpath.c **** 
1402:../Backend/gnu-efi-3.0.9/lib/dpath.c ****         //
1403:../Backend/gnu-efi-3.0.9/lib/dpath.c ****         // Print this node of the device path
1404:../Backend/gnu-efi-3.0.9/lib/dpath.c ****         //
1405:../Backend/gnu-efi-3.0.9/lib/dpath.c **** 
1406:../Backend/gnu-efi-3.0.9/lib/dpath.c ****         DumpNode (&Str, DevPathNode);
 5447              		.loc 1 1406 9 view .LVU1112
 5448 1863 4889E7   		movq	%rsp, %rdi
 5449 1866 4889EE   		movq	%rbp, %rsi
 5450 1869 FFD3     		call	*%rbx
 5451              	.LVL517:
1407:../Backend/gnu-efi-3.0.9/lib/dpath.c **** 
1408:../Backend/gnu-efi-3.0.9/lib/dpath.c ****         //
1409:../Backend/gnu-efi-3.0.9/lib/dpath.c ****         // Next device path node
1410:../Backend/gnu-efi-3.0.9/lib/dpath.c ****         //
1411:../Backend/gnu-efi-3.0.9/lib/dpath.c **** 
1412:../Backend/gnu-efi-3.0.9/lib/dpath.c ****         DevPathNode = NextDevicePathNode(DevPathNode);
 5452              		.loc 1 1412 9 view .LVU1113
 5453              		.loc 1 1412 23 is_stmt 0 view .LVU1114
 5454 186b 0FB64502 		movzbl	2(%rbp), %eax
 5455 186f 0FB65503 		movzbl	3(%rbp), %edx
 5456 1873 C1E208   		sall	$8, %edx
 5457 1876 09D0     		orl	%edx, %eax
 5458 1878 4898     		cltq
 5459              		.loc 1 1412 21 view .LVU1115
 5460 187a 4801C5   		addq	%rax, %rbp
 5461              	.LVL518:
 5462              	.L278:
1371:../Backend/gnu-efi-3.0.9/lib/dpath.c ****         //
 5463              		.loc 1 1371 12 is_stmt 1 view .LVU1116
 5464 187d 0FB67500 		movzbl	0(%rbp), %esi
 5465 1881 83E67F   		andl	$127, %esi
 5466 1884 4080FE7F 		cmpb	$127, %sil
 5467 1888 7413     		je	.L291
1371:../Backend/gnu-efi-3.0.9/lib/dpath.c ****         //
 5468              		.loc 1 1371 12 is_stmt 0 view .LVU1117
 5469 188a B8000000 		movl	$0, %eax
 5469      00
 5470 188f E964FFFF 		jmp	.L281
 5470      FF
 5471              	.LVL519:
 5472              	.L290:
1391:../Backend/gnu-efi-3.0.9/lib/dpath.c ****         }
 5473              		.loc 1 1391 22 view .LVU1118
 5474 1894 488D1D70 		leaq	_DevPathNodeUnknown(%rip), %rbx
 5474      F7FFFF
 5475              	.LVL520:
1391:../Backend/gnu-efi-3.0.9/lib/dpath.c ****         }
 5476              		.loc 1 1391 22 view .LVU1119
 5477 189b EB9E     		jmp	.L283
 5478              	.LVL521:
 5479              	.L291:
1371:../Backend/gnu-efi-3.0.9/lib/dpath.c ****         //
 5480              		.loc 1 1371 12 discriminator 1 view .LVU1120
 5481 189d 807D01FF 		cmpb	$-1, 1(%rbp)
 5482 18a1 740A     		je	.L292
 5483 18a3 B8000000 		movl	$0, %eax
 5483      00
 5484 18a8 E94BFFFF 		jmp	.L281
 5484      FF
 5485              	.L292:
1413:../Backend/gnu-efi-3.0.9/lib/dpath.c ****     }
1414:../Backend/gnu-efi-3.0.9/lib/dpath.c **** 
1415:../Backend/gnu-efi-3.0.9/lib/dpath.c ****     //
1416:../Backend/gnu-efi-3.0.9/lib/dpath.c ****     // Shrink pool used for string allocation
1417:../Backend/gnu-efi-3.0.9/lib/dpath.c ****     //
1418:../Backend/gnu-efi-3.0.9/lib/dpath.c **** 
1419:../Backend/gnu-efi-3.0.9/lib/dpath.c ****     FreePool (DevPath);
 5486              		.loc 1 1419 5 is_stmt 1 view .LVU1121
 5487 18ad 4C89E7   		movq	%r12, %rdi
 5488 18b0 E8000000 		call	FreePool
 5488      00
 5489              	.LVL522:
1420:../Backend/gnu-efi-3.0.9/lib/dpath.c ****     NewSize = (Str.len + 1) * sizeof(CHAR16);
 5490              		.loc 1 1420 5 view .LVU1122
 5491              		.loc 1 1420 13 is_stmt 0 view .LVU1123
 5492 18b5 488B4424 		movq	8(%rsp), %rax
 5492      08
 5493 18ba 488D7400 		leaq	2(%rax,%rax), %rsi
 5493      02
 5494              	.LVL523:
1421:../Backend/gnu-efi-3.0.9/lib/dpath.c ****     Str.str = ReallocatePool (Str.str, NewSize, NewSize);
 5495              		.loc 1 1421 5 is_stmt 1 view .LVU1124
 5496              		.loc 1 1421 15 is_stmt 0 view .LVU1125
 5497 18bf 4889F2   		movq	%rsi, %rdx
 5498 18c2 488B3C24 		movq	(%rsp), %rdi
 5499 18c6 E8000000 		call	ReallocatePool
 5499      00
 5500              	.LVL524:
 5501              		.loc 1 1421 13 discriminator 1 view .LVU1126
 5502 18cb 48890424 		movq	%rax, (%rsp)
1422:../Backend/gnu-efi-3.0.9/lib/dpath.c ****     Str.str[Str.len] = 0;
 5503              		.loc 1 1422 5 is_stmt 1 view .LVU1127
 5504              		.loc 1 1422 22 is_stmt 0 view .LVU1128
 5505 18cf 488B5424 		movq	8(%rsp), %rdx
 5505      08
 5506 18d4 66C70450 		movw	$0, (%rax,%rdx,2)
 5506      0000
1423:../Backend/gnu-efi-3.0.9/lib/dpath.c ****     return Str.str;
 5507              		.loc 1 1423 5 is_stmt 1 view .LVU1129
1424:../Backend/gnu-efi-3.0.9/lib/dpath.c **** }
 5508              		.loc 1 1424 1 is_stmt 0 view .LVU1130
 5509 18da 488B0424 		movq	(%rsp), %rax
 5510 18de 4883C420 		addq	$32, %rsp
 5511              		.cfi_def_cfa_offset 32
 5512 18e2 5B       		popq	%rbx
 5513              		.cfi_restore 3
 5514              		.cfi_def_cfa_offset 24
 5515 18e3 5D       		popq	%rbp
 5516              		.cfi_restore 6
 5517              		.cfi_def_cfa_offset 16
 5518              	.LVL525:
 5519              		.loc 1 1424 1 view .LVU1131
 5520 18e4 415C     		popq	%r12
 5521              		.cfi_restore 12
 5522              		.cfi_def_cfa_offset 8
 5523              	.LVL526:
 5524              		.loc 1 1424 1 view .LVU1132
 5525 18e6 C3       		ret
 5526              		.cfi_endproc
 5527              	.LFE43:
 5529              		.globl	LibMatchDevicePaths
 5530              		.hidden	LibMatchDevicePaths
 5532              	LibMatchDevicePaths:
 5533              	.LVL527:
 5534              	.LFB44:
1425:../Backend/gnu-efi-3.0.9/lib/dpath.c **** 
1426:../Backend/gnu-efi-3.0.9/lib/dpath.c **** BOOLEAN
1427:../Backend/gnu-efi-3.0.9/lib/dpath.c **** LibMatchDevicePaths (
1428:../Backend/gnu-efi-3.0.9/lib/dpath.c ****     IN  EFI_DEVICE_PATH *Multi,
1429:../Backend/gnu-efi-3.0.9/lib/dpath.c ****     IN  EFI_DEVICE_PATH *Single
1430:../Backend/gnu-efi-3.0.9/lib/dpath.c ****     )
1431:../Backend/gnu-efi-3.0.9/lib/dpath.c **** {
 5535              		.loc 1 1431 1 is_stmt 1 view -0
 5536              		.cfi_startproc
 5537              		.loc 1 1431 1 is_stmt 0 view .LVU1134
 5538 18e7 F30F1EFA 		endbr64
1432:../Backend/gnu-efi-3.0.9/lib/dpath.c ****     EFI_DEVICE_PATH     *DevicePath, *DevicePathInst;
 5539              		.loc 1 1432 5 is_stmt 1 view .LVU1135
1433:../Backend/gnu-efi-3.0.9/lib/dpath.c ****     UINTN               Size;
 5540              		.loc 1 1433 5 view .LVU1136
1434:../Backend/gnu-efi-3.0.9/lib/dpath.c **** 
1435:../Backend/gnu-efi-3.0.9/lib/dpath.c ****     if (!Multi || !Single) {
 5541              		.loc 1 1435 5 view .LVU1137
 5542              		.loc 1 1435 9 is_stmt 0 view .LVU1138
 5543 18eb 4885FF   		testq	%rdi, %rdi
 5544 18ee 0F94C0   		sete	%al
 5545              		.loc 1 1435 19 view .LVU1139
 5546 18f1 4885F6   		testq	%rsi, %rsi
 5547 18f4 0F94C2   		sete	%dl
 5548              		.loc 1 1435 8 view .LVU1140
 5549 18f7 08D0     		orb	%dl, %al
 5550 18f9 7545     		jne	.L297
1431:../Backend/gnu-efi-3.0.9/lib/dpath.c ****     EFI_DEVICE_PATH     *DevicePath, *DevicePathInst;
 5551              		.loc 1 1431 1 view .LVU1141
 5552 18fb 53       		pushq	%rbx
 5553              		.cfi_def_cfa_offset 16
 5554              		.cfi_offset 3, -16
 5555 18fc 4883EC10 		subq	$16, %rsp
 5556              		.cfi_def_cfa_offset 32
 5557 1900 4889F3   		movq	%rsi, %rbx
1436:../Backend/gnu-efi-3.0.9/lib/dpath.c ****         return FALSE;
1437:../Backend/gnu-efi-3.0.9/lib/dpath.c ****     }
1438:../Backend/gnu-efi-3.0.9/lib/dpath.c **** 
1439:../Backend/gnu-efi-3.0.9/lib/dpath.c ****     DevicePath = Multi;
 5558              		.loc 1 1439 5 is_stmt 1 view .LVU1142
 5559              		.loc 1 1439 16 is_stmt 0 view .LVU1143
 5560 1903 48897C24 		movq	%rdi, 8(%rsp)
 5560      08
1440:../Backend/gnu-efi-3.0.9/lib/dpath.c ****     while ((DevicePathInst = DevicePathInstance (&DevicePath, &Size))) {
 5561              		.loc 1 1440 5 is_stmt 1 view .LVU1144
 5562              	.LVL528:
 5563              	.L295:
 5564              		.loc 1 1440 12 view .LVU1145
 5565              		.loc 1 1440 30 is_stmt 0 view .LVU1146
 5566 1908 4889E6   		movq	%rsp, %rsi
 5567 190b 488D7C24 		leaq	8(%rsp), %rdi
 5567      08
 5568 1910 E8000000 		call	DevicePathInstance
 5568      00
 5569              	.LVL529:
 5570 1915 4889C6   		movq	%rax, %rsi
 5571              	.LVL530:
 5572              		.loc 1 1440 12 discriminator 1 view .LVU1147
 5573 1918 4885C0   		testq	%rax, %rax
 5574 191b 7418     		je	.L303
1441:../Backend/gnu-efi-3.0.9/lib/dpath.c ****         if (CompareMem (Single, DevicePathInst, Size) == 0) {
 5575              		.loc 1 1441 9 is_stmt 1 view .LVU1148
 5576              		.loc 1 1441 13 is_stmt 0 view .LVU1149
 5577 191d 488B1424 		movq	(%rsp), %rdx
 5578 1921 4889DF   		movq	%rbx, %rdi
 5579 1924 E8000000 		call	CompareMem
 5579      00
 5580              	.LVL531:
 5581              		.loc 1 1441 12 discriminator 1 view .LVU1150
 5582 1929 4885C0   		testq	%rax, %rax
 5583 192c 75DA     		jne	.L295
1442:../Backend/gnu-efi-3.0.9/lib/dpath.c ****             return TRUE;
 5584              		.loc 1 1442 20 view .LVU1151
 5585 192e B8010000 		movl	$1, %eax
 5585      00
 5586 1933 EB05     		jmp	.L293
 5587              	.LVL532:
 5588              	.L303:
1443:../Backend/gnu-efi-3.0.9/lib/dpath.c ****         }
1444:../Backend/gnu-efi-3.0.9/lib/dpath.c ****     }
1445:../Backend/gnu-efi-3.0.9/lib/dpath.c ****     return FALSE;
 5589              		.loc 1 1445 12 view .LVU1152
 5590 1935 B8000000 		movl	$0, %eax
 5590      00
 5591              	.LVL533:
 5592              	.L293:
1446:../Backend/gnu-efi-3.0.9/lib/dpath.c **** }
 5593              		.loc 1 1446 1 view .LVU1153
 5594 193a 4883C410 		addq	$16, %rsp
 5595              		.cfi_def_cfa_offset 16
 5596 193e 5B       		popq	%rbx
 5597              		.cfi_restore 3
 5598              		.cfi_def_cfa_offset 8
 5599              	.LVL534:
 5600              		.loc 1 1446 1 view .LVU1154
 5601 193f C3       		ret
 5602              	.LVL535:
 5603              	.L297:
1436:../Backend/gnu-efi-3.0.9/lib/dpath.c ****     }
 5604              		.loc 1 1436 16 view .LVU1155
 5605 1940 B8000000 		movl	$0, %eax
 5605      00
 5606              		.loc 1 1446 1 view .LVU1156
 5607 1945 C3       		ret
 5608              		.cfi_endproc
 5609              	.LFE44:
 5611              		.globl	LibDuplicateDevicePathInstance
 5612              		.hidden	LibDuplicateDevicePathInstance
 5614              	LibDuplicateDevicePathInstance:
 5615              	.LVL536:
 5616              	.LFB45:
1447:../Backend/gnu-efi-3.0.9/lib/dpath.c **** 
1448:../Backend/gnu-efi-3.0.9/lib/dpath.c **** EFI_DEVICE_PATH *
1449:../Backend/gnu-efi-3.0.9/lib/dpath.c **** LibDuplicateDevicePathInstance (
1450:../Backend/gnu-efi-3.0.9/lib/dpath.c ****     IN EFI_DEVICE_PATH  *DevPath
1451:../Backend/gnu-efi-3.0.9/lib/dpath.c ****     )
1452:../Backend/gnu-efi-3.0.9/lib/dpath.c **** {
 5617              		.loc 1 1452 1 is_stmt 1 view -0
 5618              		.cfi_startproc
 5619              		.loc 1 1452 1 is_stmt 0 view .LVU1158
 5620 1946 F30F1EFA 		endbr64
 5621 194a 55       		pushq	%rbp
 5622              		.cfi_def_cfa_offset 16
 5623              		.cfi_offset 6, -16
 5624 194b 53       		pushq	%rbx
 5625              		.cfi_def_cfa_offset 24
 5626              		.cfi_offset 3, -24
 5627 194c 4883EC18 		subq	$24, %rsp
 5628              		.cfi_def_cfa_offset 48
1453:../Backend/gnu-efi-3.0.9/lib/dpath.c ****     EFI_DEVICE_PATH     *NewDevPath,*DevicePathInst,*Temp;
 5629              		.loc 1 1453 5 is_stmt 1 view .LVU1159
1454:../Backend/gnu-efi-3.0.9/lib/dpath.c ****     UINTN               Size = 0;
 5630              		.loc 1 1454 5 view .LVU1160
 5631              		.loc 1 1454 25 is_stmt 0 view .LVU1161
 5632 1950 48C70424 		movq	$0, (%rsp)
 5632      00000000 
1455:../Backend/gnu-efi-3.0.9/lib/dpath.c **** 
1456:../Backend/gnu-efi-3.0.9/lib/dpath.c ****     //
1457:../Backend/gnu-efi-3.0.9/lib/dpath.c ****     // get the size of an instance from the input
1458:../Backend/gnu-efi-3.0.9/lib/dpath.c ****     //
1459:../Backend/gnu-efi-3.0.9/lib/dpath.c **** 
1460:../Backend/gnu-efi-3.0.9/lib/dpath.c ****     Temp = DevPath;
 5633              		.loc 1 1460 5 is_stmt 1 view .LVU1162
 5634              		.loc 1 1460 10 is_stmt 0 view .LVU1163
 5635 1958 48897C24 		movq	%rdi, 8(%rsp)
 5635      08
1461:../Backend/gnu-efi-3.0.9/lib/dpath.c ****     DevicePathInst = DevicePathInstance (&Temp, &Size);
 5636              		.loc 1 1461 5 is_stmt 1 view .LVU1164
 5637              		.loc 1 1461 22 is_stmt 0 view .LVU1165
 5638 195d 4889E6   		movq	%rsp, %rsi
 5639 1960 488D7C24 		leaq	8(%rsp), %rdi
 5639      08
 5640              	.LVL537:
 5641              		.loc 1 1461 22 view .LVU1166
 5642 1965 E8000000 		call	DevicePathInstance
 5642      00
 5643              	.LVL538:
1462:../Backend/gnu-efi-3.0.9/lib/dpath.c **** 
1463:../Backend/gnu-efi-3.0.9/lib/dpath.c ****     //
1464:../Backend/gnu-efi-3.0.9/lib/dpath.c ****     // Make a copy and set proper end type
1465:../Backend/gnu-efi-3.0.9/lib/dpath.c ****     //
1466:../Backend/gnu-efi-3.0.9/lib/dpath.c ****     NewDevPath = NULL;
 5644              		.loc 1 1466 5 is_stmt 1 view .LVU1167
1467:../Backend/gnu-efi-3.0.9/lib/dpath.c ****     if (Size) {
 5645              		.loc 1 1467 5 view .LVU1168
 5646              		.loc 1 1467 9 is_stmt 0 view .LVU1169
 5647 196a 488B3C24 		movq	(%rsp), %rdi
 5648              		.loc 1 1467 8 view .LVU1170
 5649 196e 4885FF   		testq	%rdi, %rdi
 5650 1971 745A     		je	.L306
 5651 1973 4889C5   		movq	%rax, %rbp
1468:../Backend/gnu-efi-3.0.9/lib/dpath.c ****         NewDevPath = AllocatePool (Size + sizeof(EFI_DEVICE_PATH));
 5652              		.loc 1 1468 9 is_stmt 1 view .LVU1171
 5653              		.loc 1 1468 22 is_stmt 0 view .LVU1172
 5654 1976 4883C704 		addq	$4, %rdi
 5655 197a E8000000 		call	AllocatePool
 5655      00
 5656              	.LVL539:
 5657              		.loc 1 1468 22 view .LVU1173
 5658 197f 4889C3   		movq	%rax, %rbx
 5659              	.LVL540:
1469:../Backend/gnu-efi-3.0.9/lib/dpath.c ****     }
1470:../Backend/gnu-efi-3.0.9/lib/dpath.c **** 
1471:../Backend/gnu-efi-3.0.9/lib/dpath.c ****     if (NewDevPath) {
 5660              		.loc 1 1471 5 is_stmt 1 view .LVU1174
 5661              		.loc 1 1471 8 is_stmt 0 view .LVU1175
 5662 1982 4885C0   		testq	%rax, %rax
 5663 1985 744B     		je	.L304
1472:../Backend/gnu-efi-3.0.9/lib/dpath.c ****         CopyMem (NewDevPath, DevicePathInst, Size);
 5664              		.loc 1 1472 9 is_stmt 1 view .LVU1176
 5665 1987 488B1424 		movq	(%rsp), %rdx
 5666 198b 4889EE   		movq	%rbp, %rsi
 5667 198e 4889C7   		movq	%rax, %rdi
 5668 1991 E8000000 		call	CopyMem
 5668      00
 5669              	.LVL541:
1473:../Backend/gnu-efi-3.0.9/lib/dpath.c ****         Temp = NextDevicePathNode(NewDevPath);
 5670              		.loc 1 1473 9 view .LVU1177
 5671              		.loc 1 1473 16 is_stmt 0 view .LVU1178
 5672 1996 0FB64302 		movzbl	2(%rbx), %eax
 5673 199a 0FB65303 		movzbl	3(%rbx), %edx
 5674 199e C1E208   		sall	$8, %edx
 5675 19a1 09D0     		orl	%edx, %eax
 5676 19a3 4898     		cltq
 5677 19a5 4801D8   		addq	%rbx, %rax
 5678              		.loc 1 1473 14 view .LVU1179
 5679 19a8 48894424 		movq	%rax, 8(%rsp)
 5679      08
1474:../Backend/gnu-efi-3.0.9/lib/dpath.c ****         SetDevicePathEndNode(Temp);
 5680              		.loc 1 1474 9 is_stmt 1 view .LVU1180
 5681 19ad C6007F   		movb	$127, (%rax)
 5682              		.loc 1 1474 9 view .LVU1181
 5683 19b0 488B4424 		movq	8(%rsp), %rax
 5683      08
 5684 19b5 C64001FF 		movb	$-1, 1(%rax)
 5685              		.loc 1 1474 9 view .LVU1182
 5686 19b9 488B4424 		movq	8(%rsp), %rax
 5686      08
 5687 19be C6400204 		movb	$4, 2(%rax)
 5688              		.loc 1 1474 9 view .LVU1183
 5689 19c2 488B4424 		movq	8(%rsp), %rax
 5689      08
 5690 19c7 C6400300 		movb	$0, 3(%rax)
 5691 19cb EB05     		jmp	.L304
 5692              	.LVL542:
 5693              	.L306:
1466:../Backend/gnu-efi-3.0.9/lib/dpath.c ****     if (Size) {
 5694              		.loc 1 1466 16 is_stmt 0 view .LVU1184
 5695 19cd BB000000 		movl	$0, %ebx
 5695      00
 5696              	.LVL543:
 5697              		.loc 1 1474 35 is_stmt 1 discriminator 1 view .LVU1185
1475:../Backend/gnu-efi-3.0.9/lib/dpath.c ****     }
1476:../Backend/gnu-efi-3.0.9/lib/dpath.c **** 
1477:../Backend/gnu-efi-3.0.9/lib/dpath.c ****     return NewDevPath;
 5698              		.loc 1 1477 5 view .LVU1186
 5699              	.L304:
1478:../Backend/gnu-efi-3.0.9/lib/dpath.c **** }
 5700              		.loc 1 1478 1 is_stmt 0 view .LVU1187
 5701 19d2 4889D8   		movq	%rbx, %rax
 5702 19d5 4883C418 		addq	$24, %rsp
 5703              		.cfi_def_cfa_offset 24
 5704 19d9 5B       		popq	%rbx
 5705              		.cfi_restore 3
 5706              		.cfi_def_cfa_offset 16
 5707 19da 5D       		popq	%rbp
 5708              		.cfi_restore 6
 5709              		.cfi_def_cfa_offset 8
 5710 19db C3       		ret
 5711              		.cfi_endproc
 5712              	.LFE45:
 5714              		.hidden	DevPathTable
 5715              		.globl	DevPathTable
 5716              		.section	.data.rel.local,"aw"
 5717              		.align 32
 5720              	DevPathTable:
 5721 0000 01       		.byte	1
 5722 0001 01       		.byte	1
 5723 0002 00000000 		.zero	6
 5723      0000
 5724 0008 00000000 		.quad	_DevPathPci
 5724      00000000 
 5725 0010 01       		.byte	1
 5726 0011 02       		.byte	2
 5727 0012 00000000 		.zero	6
 5727      0000
 5728 0018 00000000 		.quad	_DevPathPccard
 5728      00000000 
 5729 0020 01       		.byte	1
 5730 0021 03       		.byte	3
 5731 0022 00000000 		.zero	6
 5731      0000
 5732 0028 00000000 		.quad	_DevPathMemMap
 5732      00000000 
 5733 0030 01       		.byte	1
 5734 0031 04       		.byte	4
 5735 0032 00000000 		.zero	6
 5735      0000
 5736 0038 00000000 		.quad	_DevPathVendor
 5736      00000000 
 5737 0040 01       		.byte	1
 5738 0041 05       		.byte	5
 5739 0042 00000000 		.zero	6
 5739      0000
 5740 0048 00000000 		.quad	_DevPathController
 5740      00000000 
 5741 0050 02       		.byte	2
 5742 0051 01       		.byte	1
 5743 0052 00000000 		.zero	6
 5743      0000
 5744 0058 00000000 		.quad	_DevPathAcpi
 5744      00000000 
 5745 0060 02       		.byte	2
 5746 0061 02       		.byte	2
 5747 0062 00000000 		.zero	6
 5747      0000
 5748 0068 00000000 		.quad	_DevPathAcpiExpanded
 5748      00000000 
 5749 0070 02       		.byte	2
 5750 0071 03       		.byte	3
 5751 0072 00000000 		.zero	6
 5751      0000
 5752 0078 00000000 		.quad	_DevPathAcpiAdr
 5752      00000000 
 5753 0080 03       		.byte	3
 5754 0081 01       		.byte	1
 5755 0082 00000000 		.zero	6
 5755      0000
 5756 0088 00000000 		.quad	_DevPathAtapi
 5756      00000000 
 5757 0090 03       		.byte	3
 5758 0091 02       		.byte	2
 5759 0092 00000000 		.zero	6
 5759      0000
 5760 0098 00000000 		.quad	_DevPathScsi
 5760      00000000 
 5761 00a0 03       		.byte	3
 5762 00a1 03       		.byte	3
 5763 00a2 00000000 		.zero	6
 5763      0000
 5764 00a8 00000000 		.quad	_DevPathFibre
 5764      00000000 
 5765 00b0 03       		.byte	3
 5766 00b1 04       		.byte	4
 5767 00b2 00000000 		.zero	6
 5767      0000
 5768 00b8 00000000 		.quad	_DevPath1394
 5768      00000000 
 5769 00c0 03       		.byte	3
 5770 00c1 05       		.byte	5
 5771 00c2 00000000 		.zero	6
 5771      0000
 5772 00c8 00000000 		.quad	_DevPathUsb
 5772      00000000 
 5773 00d0 03       		.byte	3
 5774 00d1 06       		.byte	6
 5775 00d2 00000000 		.zero	6
 5775      0000
 5776 00d8 00000000 		.quad	_DevPathI2O
 5776      00000000 
 5777 00e0 03       		.byte	3
 5778 00e1 0B       		.byte	11
 5779 00e2 00000000 		.zero	6
 5779      0000
 5780 00e8 00000000 		.quad	_DevPathMacAddr
 5780      00000000 
 5781 00f0 03       		.byte	3
 5782 00f1 0C       		.byte	12
 5783 00f2 00000000 		.zero	6
 5783      0000
 5784 00f8 00000000 		.quad	_DevPathIPv4
 5784      00000000 
 5785 0100 03       		.byte	3
 5786 0101 0D       		.byte	13
 5787 0102 00000000 		.zero	6
 5787      0000
 5788 0108 00000000 		.quad	_DevPathIPv6
 5788      00000000 
 5789 0110 03       		.byte	3
 5790 0111 18       		.byte	24
 5791 0112 00000000 		.zero	6
 5791      0000
 5792 0118 00000000 		.quad	_DevPathUri
 5792      00000000 
 5793 0120 03       		.byte	3
 5794 0121 09       		.byte	9
 5795 0122 00000000 		.zero	6
 5795      0000
 5796 0128 00000000 		.quad	_DevPathInfiniBand
 5796      00000000 
 5797 0130 03       		.byte	3
 5798 0131 0E       		.byte	14
 5799 0132 00000000 		.zero	6
 5799      0000
 5800 0138 00000000 		.quad	_DevPathUart
 5800      00000000 
 5801 0140 03       		.byte	3
 5802 0141 12       		.byte	18
 5803 0142 00000000 		.zero	6
 5803      0000
 5804 0148 00000000 		.quad	_DevPathSata
 5804      00000000 
 5805 0150 03       		.byte	3
 5806 0151 0A       		.byte	10
 5807 0152 00000000 		.zero	6
 5807      0000
 5808 0158 00000000 		.quad	_DevPathVendor
 5808      00000000 
 5809 0160 04       		.byte	4
 5810 0161 01       		.byte	1
 5811 0162 00000000 		.zero	6
 5811      0000
 5812 0168 00000000 		.quad	_DevPathHardDrive
 5812      00000000 
 5813 0170 04       		.byte	4
 5814 0171 02       		.byte	2
 5815 0172 00000000 		.zero	6
 5815      0000
 5816 0178 00000000 		.quad	_DevPathCDROM
 5816      00000000 
 5817 0180 04       		.byte	4
 5818 0181 03       		.byte	3
 5819 0182 00000000 		.zero	6
 5819      0000
 5820 0188 00000000 		.quad	_DevPathVendor
 5820      00000000 
 5821 0190 04       		.byte	4
 5822 0191 04       		.byte	4
 5823 0192 00000000 		.zero	6
 5823      0000
 5824 0198 00000000 		.quad	_DevPathFilePath
 5824      00000000 
 5825 01a0 04       		.byte	4
 5826 01a1 05       		.byte	5
 5827 01a2 00000000 		.zero	6
 5827      0000
 5828 01a8 00000000 		.quad	_DevPathMediaProtocol
 5828      00000000 
 5829 01b0 05       		.byte	5
 5830 01b1 01       		.byte	1
 5831 01b2 00000000 		.zero	6
 5831      0000
 5832 01b8 00000000 		.quad	_DevPathBssBss
 5832      00000000 
 5833 01c0 7F       		.byte	127
 5834 01c1 01       		.byte	1
 5835 01c2 00000000 		.zero	6
 5835      0000
 5836 01c8 00000000 		.quad	_DevPathEndInstance
 5836      00000000 
 5837 01d0 00       		.byte	0
 5838 01d1 00       		.byte	0
 5839 01d2 00000000 		.zero	6
 5839      0000
 5840 01d8 00000000 		.quad	0
 5840      00000000 
 5841              		.text
 5842              	.Letext0:
 5843              		.file 2 "/usr/lib/gcc/x86_64-linux-gnu/13/include/stdint-gcc.h"
 5844              		.file 3 "../Backend/gnu-efi-3.0.9/inc/x86_64/efibind.h"
 5845              		.file 4 "../Backend/gnu-efi-3.0.9/inc/efidef.h"
 5846              		.file 5 "../Backend/gnu-efi-3.0.9/inc/efidevp.h"
 5847              		.file 6 "../Backend/gnu-efi-3.0.9/inc/efiprot.h"
 5848              		.file 7 "../Backend/gnu-efi-3.0.9/inc/efiapi.h"
 5849              		.file 8 "../Backend/gnu-efi-3.0.9/inc/efilib.h"
 28566              		.section	.note.gnu.property,"a"
 28567              		.align 8
 28568 0000 04000000 		.long	1f - 0f
 28569 0004 10000000 		.long	4f - 1f
 28570 0008 05000000 		.long	5
 28571              	0:
 28572 000c 474E5500 		.string	"GNU"
 28573              	1:
 28574              		.align 8
 28575 0010 020000C0 		.long	0xc0000002
 28576 0014 04000000 		.long	3f - 2f
 28577              	2:
 28578 0018 03000000 		.long	0x3
 28579              	3:
 28580 001c 00000000 		.align 8
 28581              	4:
