   1              		.file	"print.c"
   2              		.text
   3              	.Ltext0:
   4              		.cfi_sections	.debug_frame
   5              		.file 0 "/home/kokipc/Downloads/Bootloader-Operativos-514eab6e99233e465cadca9e7789fbac7f66fa4f/Sim
   6              		.globl	_SPrint
   7              		.hidden	_SPrint
   9              	_SPrint:
  10              	.LVL0:
  11              	.LFB3:
  12              		.file 1 "../Backend/gnu-efi-3.0.9/lib/print.c"
   1:../Backend/gnu-efi-3.0.9/lib/print.c **** /*++
   2:../Backend/gnu-efi-3.0.9/lib/print.c **** 
   3:../Backend/gnu-efi-3.0.9/lib/print.c **** Copyright (c) 1998  Intel Corporation
   4:../Backend/gnu-efi-3.0.9/lib/print.c **** 
   5:../Backend/gnu-efi-3.0.9/lib/print.c **** Module Name:
   6:../Backend/gnu-efi-3.0.9/lib/print.c **** 
   7:../Backend/gnu-efi-3.0.9/lib/print.c ****     print.c
   8:../Backend/gnu-efi-3.0.9/lib/print.c **** 
   9:../Backend/gnu-efi-3.0.9/lib/print.c **** Abstract:
  10:../Backend/gnu-efi-3.0.9/lib/print.c **** 
  11:../Backend/gnu-efi-3.0.9/lib/print.c **** 
  12:../Backend/gnu-efi-3.0.9/lib/print.c **** 
  13:../Backend/gnu-efi-3.0.9/lib/print.c **** 
  14:../Backend/gnu-efi-3.0.9/lib/print.c **** Revision History
  15:../Backend/gnu-efi-3.0.9/lib/print.c **** 
  16:../Backend/gnu-efi-3.0.9/lib/print.c **** --*/
  17:../Backend/gnu-efi-3.0.9/lib/print.c **** 
  18:../Backend/gnu-efi-3.0.9/lib/print.c **** #include "lib.h"
  19:../Backend/gnu-efi-3.0.9/lib/print.c **** #include "efistdarg.h"                        // !!!
  20:../Backend/gnu-efi-3.0.9/lib/print.c **** 
  21:../Backend/gnu-efi-3.0.9/lib/print.c **** //
  22:../Backend/gnu-efi-3.0.9/lib/print.c **** // Declare runtime functions
  23:../Backend/gnu-efi-3.0.9/lib/print.c **** //
  24:../Backend/gnu-efi-3.0.9/lib/print.c **** 
  25:../Backend/gnu-efi-3.0.9/lib/print.c **** #ifdef RUNTIME_CODE
  26:../Backend/gnu-efi-3.0.9/lib/print.c **** #ifndef __GNUC__
  27:../Backend/gnu-efi-3.0.9/lib/print.c **** #pragma RUNTIME_CODE(DbgPrint)
  28:../Backend/gnu-efi-3.0.9/lib/print.c **** 
  29:../Backend/gnu-efi-3.0.9/lib/print.c **** // For debugging..
  30:../Backend/gnu-efi-3.0.9/lib/print.c **** 
  31:../Backend/gnu-efi-3.0.9/lib/print.c **** /*
  32:../Backend/gnu-efi-3.0.9/lib/print.c **** #pragma RUNTIME_CODE(_Print)
  33:../Backend/gnu-efi-3.0.9/lib/print.c **** #pragma RUNTIME_CODE(PFLUSH)
  34:../Backend/gnu-efi-3.0.9/lib/print.c **** #pragma RUNTIME_CODE(PSETATTR)
  35:../Backend/gnu-efi-3.0.9/lib/print.c **** #pragma RUNTIME_CODE(PPUTC)
  36:../Backend/gnu-efi-3.0.9/lib/print.c **** #pragma RUNTIME_CODE(PGETC)
  37:../Backend/gnu-efi-3.0.9/lib/print.c **** #pragma RUNTIME_CODE(PITEM)
  38:../Backend/gnu-efi-3.0.9/lib/print.c **** #pragma RUNTIME_CODE(ValueToHex)
  39:../Backend/gnu-efi-3.0.9/lib/print.c **** #pragma RUNTIME_CODE(ValueToString)
  40:../Backend/gnu-efi-3.0.9/lib/print.c **** #pragma RUNTIME_CODE(TimeToString)
  41:../Backend/gnu-efi-3.0.9/lib/print.c **** */
  42:../Backend/gnu-efi-3.0.9/lib/print.c **** 
  43:../Backend/gnu-efi-3.0.9/lib/print.c **** #endif /* !defined(__GNUC__) */
  44:../Backend/gnu-efi-3.0.9/lib/print.c **** #endif
  45:../Backend/gnu-efi-3.0.9/lib/print.c **** 
  46:../Backend/gnu-efi-3.0.9/lib/print.c **** //
  47:../Backend/gnu-efi-3.0.9/lib/print.c **** //
  48:../Backend/gnu-efi-3.0.9/lib/print.c **** //
  49:../Backend/gnu-efi-3.0.9/lib/print.c **** 
  50:../Backend/gnu-efi-3.0.9/lib/print.c **** 
  51:../Backend/gnu-efi-3.0.9/lib/print.c **** #define PRINT_STRING_LEN            200
  52:../Backend/gnu-efi-3.0.9/lib/print.c **** #define PRINT_ITEM_BUFFER_LEN       100
  53:../Backend/gnu-efi-3.0.9/lib/print.c **** 
  54:../Backend/gnu-efi-3.0.9/lib/print.c **** typedef struct {
  55:../Backend/gnu-efi-3.0.9/lib/print.c ****     BOOLEAN             Ascii;
  56:../Backend/gnu-efi-3.0.9/lib/print.c ****     UINTN               Index;
  57:../Backend/gnu-efi-3.0.9/lib/print.c ****     union {
  58:../Backend/gnu-efi-3.0.9/lib/print.c ****         CONST CHAR16    *pw;
  59:../Backend/gnu-efi-3.0.9/lib/print.c ****         CONST CHAR8     *pc;
  60:../Backend/gnu-efi-3.0.9/lib/print.c ****     } un;
  61:../Backend/gnu-efi-3.0.9/lib/print.c **** } POINTER;
  62:../Backend/gnu-efi-3.0.9/lib/print.c **** 
  63:../Backend/gnu-efi-3.0.9/lib/print.c **** #define pw	un.pw
  64:../Backend/gnu-efi-3.0.9/lib/print.c **** #define pc	un.pc
  65:../Backend/gnu-efi-3.0.9/lib/print.c **** 
  66:../Backend/gnu-efi-3.0.9/lib/print.c **** typedef struct _pitem {
  67:../Backend/gnu-efi-3.0.9/lib/print.c **** 
  68:../Backend/gnu-efi-3.0.9/lib/print.c ****     POINTER     Item;
  69:../Backend/gnu-efi-3.0.9/lib/print.c ****     CHAR16      Scratch[PRINT_ITEM_BUFFER_LEN];
  70:../Backend/gnu-efi-3.0.9/lib/print.c ****     UINTN       Width;
  71:../Backend/gnu-efi-3.0.9/lib/print.c ****     UINTN       FieldWidth;
  72:../Backend/gnu-efi-3.0.9/lib/print.c ****     UINTN       *WidthParse;
  73:../Backend/gnu-efi-3.0.9/lib/print.c ****     CHAR16      Pad;
  74:../Backend/gnu-efi-3.0.9/lib/print.c ****     BOOLEAN     PadBefore;
  75:../Backend/gnu-efi-3.0.9/lib/print.c ****     BOOLEAN     Comma;
  76:../Backend/gnu-efi-3.0.9/lib/print.c ****     BOOLEAN     Long;
  77:../Backend/gnu-efi-3.0.9/lib/print.c **** } PRINT_ITEM;
  78:../Backend/gnu-efi-3.0.9/lib/print.c **** 
  79:../Backend/gnu-efi-3.0.9/lib/print.c **** 
  80:../Backend/gnu-efi-3.0.9/lib/print.c **** typedef struct _pstate {
  81:../Backend/gnu-efi-3.0.9/lib/print.c ****     // Input
  82:../Backend/gnu-efi-3.0.9/lib/print.c ****     POINTER     fmt;
  83:../Backend/gnu-efi-3.0.9/lib/print.c ****     va_list     args;
  84:../Backend/gnu-efi-3.0.9/lib/print.c **** 
  85:../Backend/gnu-efi-3.0.9/lib/print.c ****     // Output
  86:../Backend/gnu-efi-3.0.9/lib/print.c ****     CHAR16      *Buffer;
  87:../Backend/gnu-efi-3.0.9/lib/print.c ****     CHAR16      *End;
  88:../Backend/gnu-efi-3.0.9/lib/print.c ****     CHAR16      *Pos;
  89:../Backend/gnu-efi-3.0.9/lib/print.c ****     UINTN       Len;
  90:../Backend/gnu-efi-3.0.9/lib/print.c **** 
  91:../Backend/gnu-efi-3.0.9/lib/print.c ****     UINTN       Attr;
  92:../Backend/gnu-efi-3.0.9/lib/print.c ****     UINTN       RestoreAttr;
  93:../Backend/gnu-efi-3.0.9/lib/print.c **** 
  94:../Backend/gnu-efi-3.0.9/lib/print.c ****     UINTN       AttrNorm;
  95:../Backend/gnu-efi-3.0.9/lib/print.c ****     UINTN       AttrHighlight;
  96:../Backend/gnu-efi-3.0.9/lib/print.c ****     UINTN       AttrError;
  97:../Backend/gnu-efi-3.0.9/lib/print.c **** 
  98:../Backend/gnu-efi-3.0.9/lib/print.c ****     INTN        (EFIAPI *Output)(VOID *context, CHAR16 *str);
  99:../Backend/gnu-efi-3.0.9/lib/print.c ****     INTN        (EFIAPI *SetAttr)(VOID *context, UINTN attr);
 100:../Backend/gnu-efi-3.0.9/lib/print.c ****     VOID        *Context;
 101:../Backend/gnu-efi-3.0.9/lib/print.c **** 
 102:../Backend/gnu-efi-3.0.9/lib/print.c ****     // Current item being formatted
 103:../Backend/gnu-efi-3.0.9/lib/print.c ****     struct _pitem  *Item;
 104:../Backend/gnu-efi-3.0.9/lib/print.c **** } PRINT_STATE;
 105:../Backend/gnu-efi-3.0.9/lib/print.c **** 
 106:../Backend/gnu-efi-3.0.9/lib/print.c **** //
 107:../Backend/gnu-efi-3.0.9/lib/print.c **** // Internal fucntions
 108:../Backend/gnu-efi-3.0.9/lib/print.c **** //
 109:../Backend/gnu-efi-3.0.9/lib/print.c **** 
 110:../Backend/gnu-efi-3.0.9/lib/print.c **** STATIC
 111:../Backend/gnu-efi-3.0.9/lib/print.c **** UINTN
 112:../Backend/gnu-efi-3.0.9/lib/print.c **** _Print (
 113:../Backend/gnu-efi-3.0.9/lib/print.c ****     IN PRINT_STATE     *ps
 114:../Backend/gnu-efi-3.0.9/lib/print.c ****     );
 115:../Backend/gnu-efi-3.0.9/lib/print.c **** 
 116:../Backend/gnu-efi-3.0.9/lib/print.c **** STATIC
 117:../Backend/gnu-efi-3.0.9/lib/print.c **** UINTN
 118:../Backend/gnu-efi-3.0.9/lib/print.c **** _IPrint (
 119:../Backend/gnu-efi-3.0.9/lib/print.c ****     IN UINTN                            Column,
 120:../Backend/gnu-efi-3.0.9/lib/print.c ****     IN UINTN                            Row,
 121:../Backend/gnu-efi-3.0.9/lib/print.c ****     IN SIMPLE_TEXT_OUTPUT_INTERFACE     *Out,
 122:../Backend/gnu-efi-3.0.9/lib/print.c ****     IN CONST CHAR16                     *fmt,
 123:../Backend/gnu-efi-3.0.9/lib/print.c ****     IN CONST CHAR8                      *fmta,
 124:../Backend/gnu-efi-3.0.9/lib/print.c ****     IN va_list                          args
 125:../Backend/gnu-efi-3.0.9/lib/print.c ****     );
 126:../Backend/gnu-efi-3.0.9/lib/print.c **** 
 127:../Backend/gnu-efi-3.0.9/lib/print.c **** STATIC
 128:../Backend/gnu-efi-3.0.9/lib/print.c **** INTN EFIAPI
 129:../Backend/gnu-efi-3.0.9/lib/print.c **** _DbgOut (
 130:../Backend/gnu-efi-3.0.9/lib/print.c ****     IN VOID     *Context,
 131:../Backend/gnu-efi-3.0.9/lib/print.c ****     IN CHAR16   *Buffer
 132:../Backend/gnu-efi-3.0.9/lib/print.c ****     );
 133:../Backend/gnu-efi-3.0.9/lib/print.c **** 
 134:../Backend/gnu-efi-3.0.9/lib/print.c **** STATIC
 135:../Backend/gnu-efi-3.0.9/lib/print.c **** VOID
 136:../Backend/gnu-efi-3.0.9/lib/print.c **** PFLUSH (
 137:../Backend/gnu-efi-3.0.9/lib/print.c ****     IN OUT PRINT_STATE     *ps
 138:../Backend/gnu-efi-3.0.9/lib/print.c ****     );
 139:../Backend/gnu-efi-3.0.9/lib/print.c **** 
 140:../Backend/gnu-efi-3.0.9/lib/print.c **** STATIC
 141:../Backend/gnu-efi-3.0.9/lib/print.c **** VOID
 142:../Backend/gnu-efi-3.0.9/lib/print.c **** PPUTC (
 143:../Backend/gnu-efi-3.0.9/lib/print.c ****     IN OUT PRINT_STATE     *ps,
 144:../Backend/gnu-efi-3.0.9/lib/print.c ****     IN CHAR16              c
 145:../Backend/gnu-efi-3.0.9/lib/print.c ****     );
 146:../Backend/gnu-efi-3.0.9/lib/print.c **** 
 147:../Backend/gnu-efi-3.0.9/lib/print.c **** STATIC
 148:../Backend/gnu-efi-3.0.9/lib/print.c **** VOID
 149:../Backend/gnu-efi-3.0.9/lib/print.c **** PITEM (
 150:../Backend/gnu-efi-3.0.9/lib/print.c ****     IN OUT PRINT_STATE  *ps
 151:../Backend/gnu-efi-3.0.9/lib/print.c ****     );
 152:../Backend/gnu-efi-3.0.9/lib/print.c **** 
 153:../Backend/gnu-efi-3.0.9/lib/print.c **** STATIC
 154:../Backend/gnu-efi-3.0.9/lib/print.c **** CHAR16
 155:../Backend/gnu-efi-3.0.9/lib/print.c **** PGETC (
 156:../Backend/gnu-efi-3.0.9/lib/print.c ****     IN POINTER      *p
 157:../Backend/gnu-efi-3.0.9/lib/print.c ****     );
 158:../Backend/gnu-efi-3.0.9/lib/print.c **** 
 159:../Backend/gnu-efi-3.0.9/lib/print.c **** STATIC
 160:../Backend/gnu-efi-3.0.9/lib/print.c **** VOID
 161:../Backend/gnu-efi-3.0.9/lib/print.c **** PSETATTR (
 162:../Backend/gnu-efi-3.0.9/lib/print.c ****     IN OUT PRINT_STATE  *ps,
 163:../Backend/gnu-efi-3.0.9/lib/print.c ****     IN UINTN             Attr
 164:../Backend/gnu-efi-3.0.9/lib/print.c ****     );
 165:../Backend/gnu-efi-3.0.9/lib/print.c **** 
 166:../Backend/gnu-efi-3.0.9/lib/print.c **** //
 167:../Backend/gnu-efi-3.0.9/lib/print.c **** //
 168:../Backend/gnu-efi-3.0.9/lib/print.c **** //
 169:../Backend/gnu-efi-3.0.9/lib/print.c **** 
 170:../Backend/gnu-efi-3.0.9/lib/print.c **** INTN EFIAPI
 171:../Backend/gnu-efi-3.0.9/lib/print.c **** _SPrint (
 172:../Backend/gnu-efi-3.0.9/lib/print.c ****     IN VOID     *Context,
 173:../Backend/gnu-efi-3.0.9/lib/print.c ****     IN CHAR16   *Buffer
 174:../Backend/gnu-efi-3.0.9/lib/print.c ****     );
 175:../Backend/gnu-efi-3.0.9/lib/print.c **** 
 176:../Backend/gnu-efi-3.0.9/lib/print.c **** INTN EFIAPI
 177:../Backend/gnu-efi-3.0.9/lib/print.c **** _PoolPrint (
 178:../Backend/gnu-efi-3.0.9/lib/print.c ****     IN VOID     *Context,
 179:../Backend/gnu-efi-3.0.9/lib/print.c ****     IN CHAR16   *Buffer
 180:../Backend/gnu-efi-3.0.9/lib/print.c ****     );
 181:../Backend/gnu-efi-3.0.9/lib/print.c **** 
 182:../Backend/gnu-efi-3.0.9/lib/print.c **** INTN
 183:../Backend/gnu-efi-3.0.9/lib/print.c **** DbgPrint (
 184:../Backend/gnu-efi-3.0.9/lib/print.c ****     IN INTN         mask,
 185:../Backend/gnu-efi-3.0.9/lib/print.c ****     IN CONST CHAR8  *fmt,
 186:../Backend/gnu-efi-3.0.9/lib/print.c ****     ...
 187:../Backend/gnu-efi-3.0.9/lib/print.c ****     )
 188:../Backend/gnu-efi-3.0.9/lib/print.c **** /*++
 189:../Backend/gnu-efi-3.0.9/lib/print.c **** 
 190:../Backend/gnu-efi-3.0.9/lib/print.c **** Routine Description:
 191:../Backend/gnu-efi-3.0.9/lib/print.c **** 
 192:../Backend/gnu-efi-3.0.9/lib/print.c ****     Prints a formatted unicode string to the default StandardError console
 193:../Backend/gnu-efi-3.0.9/lib/print.c **** 
 194:../Backend/gnu-efi-3.0.9/lib/print.c **** Arguments:
 195:../Backend/gnu-efi-3.0.9/lib/print.c **** 
 196:../Backend/gnu-efi-3.0.9/lib/print.c ****     mask        - Bit mask of debug string.  If a bit is set in the
 197:../Backend/gnu-efi-3.0.9/lib/print.c ****                   mask that is also set in EFIDebug the string is
 198:../Backend/gnu-efi-3.0.9/lib/print.c ****                   printed; otherwise, the string is not printed
 199:../Backend/gnu-efi-3.0.9/lib/print.c **** 
 200:../Backend/gnu-efi-3.0.9/lib/print.c ****     fmt         - Format string
 201:../Backend/gnu-efi-3.0.9/lib/print.c **** 
 202:../Backend/gnu-efi-3.0.9/lib/print.c **** Returns:
 203:../Backend/gnu-efi-3.0.9/lib/print.c **** 
 204:../Backend/gnu-efi-3.0.9/lib/print.c ****     Length of string printed to the StandardError console
 205:../Backend/gnu-efi-3.0.9/lib/print.c **** 
 206:../Backend/gnu-efi-3.0.9/lib/print.c **** --*/
 207:../Backend/gnu-efi-3.0.9/lib/print.c **** {
 208:../Backend/gnu-efi-3.0.9/lib/print.c ****     SIMPLE_TEXT_OUTPUT_INTERFACE    *DbgOut;
 209:../Backend/gnu-efi-3.0.9/lib/print.c ****     PRINT_STATE     ps;
 210:../Backend/gnu-efi-3.0.9/lib/print.c ****     va_list         args;
 211:../Backend/gnu-efi-3.0.9/lib/print.c ****     UINTN           back;
 212:../Backend/gnu-efi-3.0.9/lib/print.c ****     UINTN           attr;
 213:../Backend/gnu-efi-3.0.9/lib/print.c ****     UINTN           SavedAttribute;
 214:../Backend/gnu-efi-3.0.9/lib/print.c **** 
 215:../Backend/gnu-efi-3.0.9/lib/print.c **** 
 216:../Backend/gnu-efi-3.0.9/lib/print.c ****     if (!(EFIDebug & mask)) {
 217:../Backend/gnu-efi-3.0.9/lib/print.c ****         return 0;
 218:../Backend/gnu-efi-3.0.9/lib/print.c ****     }
 219:../Backend/gnu-efi-3.0.9/lib/print.c **** 
 220:../Backend/gnu-efi-3.0.9/lib/print.c ****     va_start (args, fmt);
 221:../Backend/gnu-efi-3.0.9/lib/print.c ****     ZeroMem (&ps, sizeof(ps));
 222:../Backend/gnu-efi-3.0.9/lib/print.c **** 
 223:../Backend/gnu-efi-3.0.9/lib/print.c ****     ps.Output = _DbgOut;
 224:../Backend/gnu-efi-3.0.9/lib/print.c ****     ps.fmt.Ascii = TRUE;
 225:../Backend/gnu-efi-3.0.9/lib/print.c ****     ps.fmt.pc = fmt;
 226:../Backend/gnu-efi-3.0.9/lib/print.c ****     va_copy(ps.args, args);
 227:../Backend/gnu-efi-3.0.9/lib/print.c ****     ps.Attr = EFI_TEXT_ATTR(EFI_LIGHTGRAY, EFI_RED);
 228:../Backend/gnu-efi-3.0.9/lib/print.c **** 
 229:../Backend/gnu-efi-3.0.9/lib/print.c ****     DbgOut = LibRuntimeDebugOut;
 230:../Backend/gnu-efi-3.0.9/lib/print.c **** 
 231:../Backend/gnu-efi-3.0.9/lib/print.c ****     if (!DbgOut) {
 232:../Backend/gnu-efi-3.0.9/lib/print.c ****         DbgOut = ST->StdErr;
 233:../Backend/gnu-efi-3.0.9/lib/print.c ****     }
 234:../Backend/gnu-efi-3.0.9/lib/print.c **** 
 235:../Backend/gnu-efi-3.0.9/lib/print.c ****     if (DbgOut) {
 236:../Backend/gnu-efi-3.0.9/lib/print.c ****         ps.Attr = DbgOut->Mode->Attribute;
 237:../Backend/gnu-efi-3.0.9/lib/print.c ****         ps.Context = DbgOut;
 238:../Backend/gnu-efi-3.0.9/lib/print.c ****         ps.SetAttr = (INTN (EFIAPI *)(VOID *, UINTN))  DbgOut->SetAttribute;
 239:../Backend/gnu-efi-3.0.9/lib/print.c ****     }
 240:../Backend/gnu-efi-3.0.9/lib/print.c **** 
 241:../Backend/gnu-efi-3.0.9/lib/print.c ****     SavedAttribute = ps.Attr;
 242:../Backend/gnu-efi-3.0.9/lib/print.c **** 
 243:../Backend/gnu-efi-3.0.9/lib/print.c ****     back = (ps.Attr >> 4) & 0xf;
 244:../Backend/gnu-efi-3.0.9/lib/print.c ****     ps.AttrNorm = EFI_TEXT_ATTR(EFI_LIGHTGRAY, back);
 245:../Backend/gnu-efi-3.0.9/lib/print.c ****     ps.AttrHighlight = EFI_TEXT_ATTR(EFI_WHITE, back);
 246:../Backend/gnu-efi-3.0.9/lib/print.c ****     ps.AttrError = EFI_TEXT_ATTR(EFI_YELLOW, back);
 247:../Backend/gnu-efi-3.0.9/lib/print.c **** 
 248:../Backend/gnu-efi-3.0.9/lib/print.c ****     attr = ps.AttrNorm;
 249:../Backend/gnu-efi-3.0.9/lib/print.c **** 
 250:../Backend/gnu-efi-3.0.9/lib/print.c ****     if (mask & D_WARN) {
 251:../Backend/gnu-efi-3.0.9/lib/print.c ****         attr = ps.AttrHighlight;
 252:../Backend/gnu-efi-3.0.9/lib/print.c ****     }
 253:../Backend/gnu-efi-3.0.9/lib/print.c **** 
 254:../Backend/gnu-efi-3.0.9/lib/print.c ****     if (mask & D_ERROR) {
 255:../Backend/gnu-efi-3.0.9/lib/print.c ****         attr = ps.AttrError;
 256:../Backend/gnu-efi-3.0.9/lib/print.c ****     }
 257:../Backend/gnu-efi-3.0.9/lib/print.c **** 
 258:../Backend/gnu-efi-3.0.9/lib/print.c ****     if (ps.SetAttr) {
 259:../Backend/gnu-efi-3.0.9/lib/print.c ****         ps.Attr = attr;
 260:../Backend/gnu-efi-3.0.9/lib/print.c ****         uefi_call_wrapper(ps.SetAttr, 2, ps.Context, attr);
 261:../Backend/gnu-efi-3.0.9/lib/print.c ****     }
 262:../Backend/gnu-efi-3.0.9/lib/print.c **** 
 263:../Backend/gnu-efi-3.0.9/lib/print.c ****     _Print (&ps);
 264:../Backend/gnu-efi-3.0.9/lib/print.c **** 
 265:../Backend/gnu-efi-3.0.9/lib/print.c ****     va_end (ps.args);
 266:../Backend/gnu-efi-3.0.9/lib/print.c ****     va_end (args);
 267:../Backend/gnu-efi-3.0.9/lib/print.c **** 
 268:../Backend/gnu-efi-3.0.9/lib/print.c ****     //
 269:../Backend/gnu-efi-3.0.9/lib/print.c ****     // Restore original attributes
 270:../Backend/gnu-efi-3.0.9/lib/print.c ****     //
 271:../Backend/gnu-efi-3.0.9/lib/print.c **** 
 272:../Backend/gnu-efi-3.0.9/lib/print.c ****     if (ps.SetAttr) {
 273:../Backend/gnu-efi-3.0.9/lib/print.c ****         uefi_call_wrapper(ps.SetAttr, 2, ps.Context, SavedAttribute);
 274:../Backend/gnu-efi-3.0.9/lib/print.c ****     }
 275:../Backend/gnu-efi-3.0.9/lib/print.c **** 
 276:../Backend/gnu-efi-3.0.9/lib/print.c ****     return 0;
 277:../Backend/gnu-efi-3.0.9/lib/print.c **** }
 278:../Backend/gnu-efi-3.0.9/lib/print.c **** 
 279:../Backend/gnu-efi-3.0.9/lib/print.c **** STATIC
 280:../Backend/gnu-efi-3.0.9/lib/print.c **** INTN
 281:../Backend/gnu-efi-3.0.9/lib/print.c **** IsLocalPrint(void *func)
 282:../Backend/gnu-efi-3.0.9/lib/print.c **** {
 283:../Backend/gnu-efi-3.0.9/lib/print.c **** 	if (func == _DbgOut || func == _SPrint || func == _PoolPrint)
 284:../Backend/gnu-efi-3.0.9/lib/print.c **** 		return 1;
 285:../Backend/gnu-efi-3.0.9/lib/print.c **** 	return 0;
 286:../Backend/gnu-efi-3.0.9/lib/print.c **** }
 287:../Backend/gnu-efi-3.0.9/lib/print.c **** 
 288:../Backend/gnu-efi-3.0.9/lib/print.c **** STATIC
 289:../Backend/gnu-efi-3.0.9/lib/print.c **** INTN EFIAPI
 290:../Backend/gnu-efi-3.0.9/lib/print.c **** _DbgOut (
 291:../Backend/gnu-efi-3.0.9/lib/print.c ****     IN VOID     *Context,
 292:../Backend/gnu-efi-3.0.9/lib/print.c ****     IN CHAR16   *Buffer
 293:../Backend/gnu-efi-3.0.9/lib/print.c ****     )
 294:../Backend/gnu-efi-3.0.9/lib/print.c **** // Append string worker for DbgPrint
 295:../Backend/gnu-efi-3.0.9/lib/print.c **** {
 296:../Backend/gnu-efi-3.0.9/lib/print.c ****     SIMPLE_TEXT_OUTPUT_INTERFACE    *DbgOut;
 297:../Backend/gnu-efi-3.0.9/lib/print.c **** 
 298:../Backend/gnu-efi-3.0.9/lib/print.c ****     DbgOut = Context;
 299:../Backend/gnu-efi-3.0.9/lib/print.c **** //    if (!DbgOut && ST && ST->ConOut) {
 300:../Backend/gnu-efi-3.0.9/lib/print.c **** //        DbgOut = ST->ConOut;
 301:../Backend/gnu-efi-3.0.9/lib/print.c **** //    }
 302:../Backend/gnu-efi-3.0.9/lib/print.c **** 
 303:../Backend/gnu-efi-3.0.9/lib/print.c ****     if (DbgOut) {
 304:../Backend/gnu-efi-3.0.9/lib/print.c **** 	if (IsLocalPrint(DbgOut->OutputString))
 305:../Backend/gnu-efi-3.0.9/lib/print.c **** 		DbgOut->OutputString(DbgOut, Buffer);
 306:../Backend/gnu-efi-3.0.9/lib/print.c ****         else
 307:../Backend/gnu-efi-3.0.9/lib/print.c **** 		uefi_call_wrapper(DbgOut->OutputString, 2, DbgOut, Buffer);
 308:../Backend/gnu-efi-3.0.9/lib/print.c ****     }
 309:../Backend/gnu-efi-3.0.9/lib/print.c **** 
 310:../Backend/gnu-efi-3.0.9/lib/print.c ****     return 0;
 311:../Backend/gnu-efi-3.0.9/lib/print.c **** }
 312:../Backend/gnu-efi-3.0.9/lib/print.c **** 
 313:../Backend/gnu-efi-3.0.9/lib/print.c **** INTN EFIAPI
 314:../Backend/gnu-efi-3.0.9/lib/print.c **** _SPrint (
 315:../Backend/gnu-efi-3.0.9/lib/print.c ****     IN VOID     *Context,
 316:../Backend/gnu-efi-3.0.9/lib/print.c ****     IN CHAR16   *Buffer
 317:../Backend/gnu-efi-3.0.9/lib/print.c ****     )
 318:../Backend/gnu-efi-3.0.9/lib/print.c **** // Append string worker for SPrint, PoolPrint and CatPrint
 319:../Backend/gnu-efi-3.0.9/lib/print.c **** {
  13              		.loc 1 319 1 view -0
  14              		.cfi_startproc
  15              		.loc 1 319 1 is_stmt 0 view .LVU1
  16 0000 F30F1EFA 		endbr64
  17 0004 4154     		pushq	%r12
  18              		.cfi_def_cfa_offset 16
  19              		.cfi_offset 12, -16
  20 0006 55       		pushq	%rbp
  21              		.cfi_def_cfa_offset 24
  22              		.cfi_offset 6, -24
  23 0007 57       		pushq	%rdi
  24              		.cfi_def_cfa_offset 32
  25              		.cfi_offset 5, -32
  26 0008 56       		pushq	%rsi
  27              		.cfi_def_cfa_offset 40
  28              		.cfi_offset 4, -40
  29 0009 53       		pushq	%rbx
  30              		.cfi_def_cfa_offset 48
  31              		.cfi_offset 3, -48
  32 000a 4881ECA0 		subq	$160, %rsp
  32      000000
  33              		.cfi_def_cfa_offset 208
  34 0011 0F293424 		movaps	%xmm6, (%rsp)
  35 0015 0F297C24 		movaps	%xmm7, 16(%rsp)
  35      10
  36 001a 440F2944 		movaps	%xmm8, 32(%rsp)
  36      2420
  37 0020 440F294C 		movaps	%xmm9, 48(%rsp)
  37      2430
  38 0026 440F2954 		movaps	%xmm10, 64(%rsp)
  38      2440
  39 002c 440F295C 		movaps	%xmm11, 80(%rsp)
  39      2450
  40 0032 440F2964 		movaps	%xmm12, 96(%rsp)
  40      2460
  41 0038 440F296C 		movaps	%xmm13, 112(%rsp)
  41      2470
  42 003e 440F29B4 		movaps	%xmm14, 128(%rsp)
  42      24800000 
  42      00
  43 0047 440F29BC 		movaps	%xmm15, 144(%rsp)
  43      24900000 
  43      00
  44              		.cfi_offset 23, -208
  45              		.cfi_offset 24, -192
  46              		.cfi_offset 25, -176
  47              		.cfi_offset 26, -160
  48              		.cfi_offset 27, -144
  49              		.cfi_offset 28, -128
  50              		.cfi_offset 29, -112
  51              		.cfi_offset 30, -96
  52              		.cfi_offset 31, -80
  53              		.cfi_offset 32, -64
  54 0050 4889CD   		movq	%rcx, %rbp
  55 0053 4989D4   		movq	%rdx, %r12
 320:../Backend/gnu-efi-3.0.9/lib/print.c ****     UINTN           len;
  56              		.loc 1 320 5 is_stmt 1 view .LVU2
 321:../Backend/gnu-efi-3.0.9/lib/print.c ****     POOL_PRINT      *spc;
  57              		.loc 1 321 5 view .LVU3
 322:../Backend/gnu-efi-3.0.9/lib/print.c **** 
 323:../Backend/gnu-efi-3.0.9/lib/print.c ****     spc = Context;
  58              		.loc 1 323 5 view .LVU4
  59              	.LVL1:
 324:../Backend/gnu-efi-3.0.9/lib/print.c ****     len = StrLen(Buffer);
  60              		.loc 1 324 5 view .LVU5
  61              		.loc 1 324 11 is_stmt 0 view .LVU6
  62 0056 4889D7   		movq	%rdx, %rdi
  63 0059 E8000000 		call	StrLen
  63      00
  64              	.LVL2:
  65              		.loc 1 324 11 view .LVU7
  66 005e 4889C3   		movq	%rax, %rbx
  67              	.LVL3:
 325:../Backend/gnu-efi-3.0.9/lib/print.c **** 
 326:../Backend/gnu-efi-3.0.9/lib/print.c ****     //
 327:../Backend/gnu-efi-3.0.9/lib/print.c ****     // Is the string is over the max truncate it
 328:../Backend/gnu-efi-3.0.9/lib/print.c ****     //
 329:../Backend/gnu-efi-3.0.9/lib/print.c **** 
 330:../Backend/gnu-efi-3.0.9/lib/print.c ****     if (spc->len + len > spc->maxlen) {
  68              		.loc 1 330 5 is_stmt 1 view .LVU8
  69              		.loc 1 330 12 is_stmt 0 view .LVU9
  70 0061 488B7D08 		movq	8(%rbp), %rdi
  71              		.loc 1 330 18 view .LVU10
  72 0065 488D1407 		leaq	(%rdi,%rax), %rdx
  73              		.loc 1 330 29 view .LVU11
  74 0069 488B4510 		movq	16(%rbp), %rax
  75              	.LVL4:
  76              		.loc 1 330 8 view .LVU12
  77 006d 4839D0   		cmpq	%rdx, %rax
  78 0070 7306     		jnb	.L2
 331:../Backend/gnu-efi-3.0.9/lib/print.c ****         len = spc->maxlen - spc->len;
  79              		.loc 1 331 9 is_stmt 1 view .LVU13
  80              		.loc 1 331 13 is_stmt 0 view .LVU14
  81 0072 4829F8   		subq	%rdi, %rax
  82 0075 4889C3   		movq	%rax, %rbx
  83              	.LVL5:
  84              	.L2:
 332:../Backend/gnu-efi-3.0.9/lib/print.c ****     }
 333:../Backend/gnu-efi-3.0.9/lib/print.c **** 
 334:../Backend/gnu-efi-3.0.9/lib/print.c ****     //
 335:../Backend/gnu-efi-3.0.9/lib/print.c ****     // Append the new text
 336:../Backend/gnu-efi-3.0.9/lib/print.c ****     //
 337:../Backend/gnu-efi-3.0.9/lib/print.c **** 
 338:../Backend/gnu-efi-3.0.9/lib/print.c ****     CopyMem (spc->str + spc->len, Buffer, len * sizeof(CHAR16));
  85              		.loc 1 338 5 is_stmt 1 view .LVU15
  86              		.loc 1 338 23 is_stmt 0 view .LVU16
  87 0078 4801FF   		addq	%rdi, %rdi
  88 007b 48037D00 		addq	0(%rbp), %rdi
  89              		.loc 1 338 5 view .LVU17
  90 007f 488D141B 		leaq	(%rbx,%rbx), %rdx
  91 0083 4C89E6   		movq	%r12, %rsi
  92 0086 E8000000 		call	CopyMem
  92      00
  93              	.LVL6:
 339:../Backend/gnu-efi-3.0.9/lib/print.c ****     spc->len += len;
  94              		.loc 1 339 5 is_stmt 1 view .LVU18
  95              		.loc 1 339 14 is_stmt 0 view .LVU19
  96 008b 48035D08 		addq	8(%rbp), %rbx
  97              	.LVL7:
  98              		.loc 1 339 14 view .LVU20
  99 008f 48895D08 		movq	%rbx, 8(%rbp)
 340:../Backend/gnu-efi-3.0.9/lib/print.c **** 
 341:../Backend/gnu-efi-3.0.9/lib/print.c ****     //
 342:../Backend/gnu-efi-3.0.9/lib/print.c ****     // Null terminate it
 343:../Backend/gnu-efi-3.0.9/lib/print.c ****     //
 344:../Backend/gnu-efi-3.0.9/lib/print.c **** 
 345:../Backend/gnu-efi-3.0.9/lib/print.c ****     if (spc->len < spc->maxlen) {
 100              		.loc 1 345 5 is_stmt 1 view .LVU21
 101              		.loc 1 345 23 is_stmt 0 view .LVU22
 102 0093 488B4510 		movq	16(%rbp), %rax
 103              		.loc 1 345 8 view .LVU23
 104 0097 4839C3   		cmpq	%rax, %rbx
 105 009a 735E     		jnb	.L3
 346:../Backend/gnu-efi-3.0.9/lib/print.c ****         spc->str[spc->len] = 0;
 106              		.loc 1 346 9 is_stmt 1 view .LVU24
 107              		.loc 1 346 17 is_stmt 0 view .LVU25
 108 009c 4801DB   		addq	%rbx, %rbx
 109 009f 48035D00 		addq	0(%rbp), %rbx
 110              		.loc 1 346 28 view .LVU26
 111 00a3 66C70300 		movw	$0, (%rbx)
 111      00
 112              	.L4:
 347:../Backend/gnu-efi-3.0.9/lib/print.c ****     } else if (spc->maxlen) {
 348:../Backend/gnu-efi-3.0.9/lib/print.c ****         spc->str[spc->maxlen] = 0;
 349:../Backend/gnu-efi-3.0.9/lib/print.c ****     }
 350:../Backend/gnu-efi-3.0.9/lib/print.c **** 
 351:../Backend/gnu-efi-3.0.9/lib/print.c ****     return 0;
 113              		.loc 1 351 5 is_stmt 1 view .LVU27
 352:../Backend/gnu-efi-3.0.9/lib/print.c **** }
 114              		.loc 1 352 1 is_stmt 0 view .LVU28
 115 00a8 B8000000 		movl	$0, %eax
 115      00
 116 00ad 0F283424 		movaps	(%rsp), %xmm6
 117 00b1 0F287C24 		movaps	16(%rsp), %xmm7
 117      10
 118 00b6 440F2844 		movaps	32(%rsp), %xmm8
 118      2420
 119 00bc 440F284C 		movaps	48(%rsp), %xmm9
 119      2430
 120 00c2 440F2854 		movaps	64(%rsp), %xmm10
 120      2440
 121 00c8 440F285C 		movaps	80(%rsp), %xmm11
 121      2450
 122 00ce 440F2864 		movaps	96(%rsp), %xmm12
 122      2460
 123 00d4 440F286C 		movaps	112(%rsp), %xmm13
 123      2470
 124 00da 440F28B4 		movaps	128(%rsp), %xmm14
 124      24800000 
 124      00
 125 00e3 440F28BC 		movaps	144(%rsp), %xmm15
 125      24900000 
 125      00
 126 00ec 4881C4A0 		addq	$160, %rsp
 126      000000
 127              		.cfi_remember_state
 128              		.cfi_restore 32
 129              		.cfi_restore 31
 130              		.cfi_restore 30
 131              		.cfi_restore 29
 132              		.cfi_restore 28
 133              		.cfi_restore 27
 134              		.cfi_restore 26
 135              		.cfi_restore 25
 136              		.cfi_restore 24
 137              		.cfi_restore 23
 138              		.cfi_def_cfa_offset 48
 139 00f3 5B       		popq	%rbx
 140              		.cfi_restore 3
 141              		.cfi_def_cfa_offset 40
 142 00f4 5E       		popq	%rsi
 143              		.cfi_restore 4
 144              		.cfi_def_cfa_offset 32
 145 00f5 5F       		popq	%rdi
 146              		.cfi_restore 5
 147              		.cfi_def_cfa_offset 24
 148 00f6 5D       		popq	%rbp
 149              		.cfi_restore 6
 150              		.cfi_def_cfa_offset 16
 151              	.LVL8:
 152              		.loc 1 352 1 view .LVU29
 153 00f7 415C     		popq	%r12
 154              		.cfi_restore 12
 155              		.cfi_def_cfa_offset 8
 156              	.LVL9:
 157              		.loc 1 352 1 view .LVU30
 158 00f9 C3       		ret
 159              	.LVL10:
 160              	.L3:
 161              		.cfi_restore_state
 347:../Backend/gnu-efi-3.0.9/lib/print.c ****     } else if (spc->maxlen) {
 162              		.loc 1 347 12 is_stmt 1 view .LVU31
 347:../Backend/gnu-efi-3.0.9/lib/print.c ****     } else if (spc->maxlen) {
 163              		.loc 1 347 15 is_stmt 0 view .LVU32
 164 00fa 4885C0   		testq	%rax, %rax
 165 00fd 74A9     		je	.L4
 348:../Backend/gnu-efi-3.0.9/lib/print.c ****     }
 166              		.loc 1 348 9 is_stmt 1 view .LVU33
 348:../Backend/gnu-efi-3.0.9/lib/print.c ****     }
 167              		.loc 1 348 17 is_stmt 0 view .LVU34
 168 00ff 4801C0   		addq	%rax, %rax
 169 0102 48034500 		addq	0(%rbp), %rax
 348:../Backend/gnu-efi-3.0.9/lib/print.c ****     }
 170              		.loc 1 348 31 view .LVU35
 171 0106 66C70000 		movw	$0, (%rax)
 171      00
 172 010b EB9B     		jmp	.L4
 173              		.cfi_endproc
 174              	.LFE3:
 176              		.globl	_PoolPrint
 177              		.hidden	_PoolPrint
 179              	_PoolPrint:
 180              	.LVL11:
 181              	.LFB4:
 353:../Backend/gnu-efi-3.0.9/lib/print.c **** 
 354:../Backend/gnu-efi-3.0.9/lib/print.c **** 
 355:../Backend/gnu-efi-3.0.9/lib/print.c **** INTN EFIAPI
 356:../Backend/gnu-efi-3.0.9/lib/print.c **** _PoolPrint (
 357:../Backend/gnu-efi-3.0.9/lib/print.c ****     IN VOID     *Context,
 358:../Backend/gnu-efi-3.0.9/lib/print.c ****     IN CHAR16   *Buffer
 359:../Backend/gnu-efi-3.0.9/lib/print.c ****     )
 360:../Backend/gnu-efi-3.0.9/lib/print.c **** // Append string worker for PoolPrint and CatPrint
 361:../Backend/gnu-efi-3.0.9/lib/print.c **** {
 182              		.loc 1 361 1 is_stmt 1 view -0
 183              		.cfi_startproc
 184              		.loc 1 361 1 is_stmt 0 view .LVU37
 185 010d F30F1EFA 		endbr64
 186 0111 4154     		pushq	%r12
 187              		.cfi_def_cfa_offset 16
 188              		.cfi_offset 12, -16
 189 0113 55       		pushq	%rbp
 190              		.cfi_def_cfa_offset 24
 191              		.cfi_offset 6, -24
 192 0114 57       		pushq	%rdi
 193              		.cfi_def_cfa_offset 32
 194              		.cfi_offset 5, -32
 195 0115 56       		pushq	%rsi
 196              		.cfi_def_cfa_offset 40
 197              		.cfi_offset 4, -40
 198 0116 53       		pushq	%rbx
 199              		.cfi_def_cfa_offset 48
 200              		.cfi_offset 3, -48
 201 0117 4881ECC0 		subq	$192, %rsp
 201      000000
 202              		.cfi_def_cfa_offset 240
 203 011e 0F297424 		movaps	%xmm6, 32(%rsp)
 203      20
 204 0123 0F297C24 		movaps	%xmm7, 48(%rsp)
 204      30
 205 0128 440F2944 		movaps	%xmm8, 64(%rsp)
 205      2440
 206 012e 440F294C 		movaps	%xmm9, 80(%rsp)
 206      2450
 207 0134 440F2954 		movaps	%xmm10, 96(%rsp)
 207      2460
 208 013a 440F295C 		movaps	%xmm11, 112(%rsp)
 208      2470
 209 0140 440F29A4 		movaps	%xmm12, 128(%rsp)
 209      24800000 
 209      00
 210 0149 440F29AC 		movaps	%xmm13, 144(%rsp)
 210      24900000 
 210      00
 211 0152 440F29B4 		movaps	%xmm14, 160(%rsp)
 211      24A00000 
 211      00
 212 015b 440F29BC 		movaps	%xmm15, 176(%rsp)
 212      24B00000 
 212      00
 213              		.cfi_offset 23, -208
 214              		.cfi_offset 24, -192
 215              		.cfi_offset 25, -176
 216              		.cfi_offset 26, -160
 217              		.cfi_offset 27, -144
 218              		.cfi_offset 28, -128
 219              		.cfi_offset 29, -112
 220              		.cfi_offset 30, -96
 221              		.cfi_offset 31, -80
 222              		.cfi_offset 32, -64
 223 0164 4889CB   		movq	%rcx, %rbx
 224 0167 4989D4   		movq	%rdx, %r12
 362:../Backend/gnu-efi-3.0.9/lib/print.c ****     UINTN           newlen;
 225              		.loc 1 362 5 is_stmt 1 view .LVU38
 363:../Backend/gnu-efi-3.0.9/lib/print.c ****     POOL_PRINT      *spc;
 226              		.loc 1 363 5 view .LVU39
 364:../Backend/gnu-efi-3.0.9/lib/print.c **** 
 365:../Backend/gnu-efi-3.0.9/lib/print.c ****     spc = Context;
 227              		.loc 1 365 5 view .LVU40
 228              	.LVL12:
 366:../Backend/gnu-efi-3.0.9/lib/print.c ****     newlen = spc->len + StrLen(Buffer) + 1;
 229              		.loc 1 366 5 view .LVU41
 230              		.loc 1 366 17 is_stmt 0 view .LVU42
 231 016a 488B6908 		movq	8(%rcx), %rbp
 232              		.loc 1 366 25 view .LVU43
 233 016e 4889D7   		movq	%rdx, %rdi
 234 0171 E8000000 		call	StrLen
 234      00
 235              	.LVL13:
 236              		.loc 1 366 23 discriminator 1 view .LVU44
 237 0176 488D5405 		leaq	0(%rbp,%rax), %rdx
 237      00
 238              		.loc 1 366 12 discriminator 1 view .LVU45
 239 017b 488D4201 		leaq	1(%rdx), %rax
 240              	.LVL14:
 367:../Backend/gnu-efi-3.0.9/lib/print.c **** 
 368:../Backend/gnu-efi-3.0.9/lib/print.c ****     //
 369:../Backend/gnu-efi-3.0.9/lib/print.c ****     // Is the string is over the max, grow the buffer
 370:../Backend/gnu-efi-3.0.9/lib/print.c ****     //
 371:../Backend/gnu-efi-3.0.9/lib/print.c **** 
 372:../Backend/gnu-efi-3.0.9/lib/print.c ****     if (newlen > spc->maxlen) {
 241              		.loc 1 372 5 is_stmt 1 view .LVU46
 242              		.loc 1 372 8 is_stmt 0 view .LVU47
 243 017f 48394310 		cmpq	%rax, 16(%rbx)
 244 0183 725F     		jb	.L9
 245              	.LVL15:
 246              	.L7:
 373:../Backend/gnu-efi-3.0.9/lib/print.c **** 
 374:../Backend/gnu-efi-3.0.9/lib/print.c ****         //
 375:../Backend/gnu-efi-3.0.9/lib/print.c ****         // Grow the pool buffer
 376:../Backend/gnu-efi-3.0.9/lib/print.c ****         //
 377:../Backend/gnu-efi-3.0.9/lib/print.c **** 
 378:../Backend/gnu-efi-3.0.9/lib/print.c ****         newlen += PRINT_STRING_LEN;
 379:../Backend/gnu-efi-3.0.9/lib/print.c ****         spc->maxlen = newlen;
 380:../Backend/gnu-efi-3.0.9/lib/print.c ****         spc->str = ReallocatePool (
 381:../Backend/gnu-efi-3.0.9/lib/print.c ****                         spc->str,
 382:../Backend/gnu-efi-3.0.9/lib/print.c ****                         spc->len * sizeof(CHAR16),
 383:../Backend/gnu-efi-3.0.9/lib/print.c ****                         spc->maxlen * sizeof(CHAR16)
 384:../Backend/gnu-efi-3.0.9/lib/print.c ****                         );
 385:../Backend/gnu-efi-3.0.9/lib/print.c **** 
 386:../Backend/gnu-efi-3.0.9/lib/print.c ****         if (!spc->str) {
 387:../Backend/gnu-efi-3.0.9/lib/print.c ****             spc->len = 0;
 388:../Backend/gnu-efi-3.0.9/lib/print.c ****             spc->maxlen = 0;
 389:../Backend/gnu-efi-3.0.9/lib/print.c ****         }
 390:../Backend/gnu-efi-3.0.9/lib/print.c ****     }
 391:../Backend/gnu-efi-3.0.9/lib/print.c **** 
 392:../Backend/gnu-efi-3.0.9/lib/print.c ****     //
 393:../Backend/gnu-efi-3.0.9/lib/print.c ****     // Append the new text
 394:../Backend/gnu-efi-3.0.9/lib/print.c ****     //
 395:../Backend/gnu-efi-3.0.9/lib/print.c **** 
 396:../Backend/gnu-efi-3.0.9/lib/print.c ****     return _SPrint (Context, Buffer);
 247              		.loc 1 396 5 is_stmt 1 view .LVU48
 248              		.loc 1 396 12 is_stmt 0 view .LVU49
 249 0185 4C89E2   		movq	%r12, %rdx
 250 0188 4889D9   		movq	%rbx, %rcx
 251 018b E8000000 		call	_SPrint
 251      00
 252              	.LVL16:
 397:../Backend/gnu-efi-3.0.9/lib/print.c **** }
 253              		.loc 1 397 1 view .LVU50
 254 0190 0F287424 		movaps	32(%rsp), %xmm6
 254      20
 255 0195 0F287C24 		movaps	48(%rsp), %xmm7
 255      30
 256 019a 440F2844 		movaps	64(%rsp), %xmm8
 256      2440
 257 01a0 440F284C 		movaps	80(%rsp), %xmm9
 257      2450
 258 01a6 440F2854 		movaps	96(%rsp), %xmm10
 258      2460
 259 01ac 440F285C 		movaps	112(%rsp), %xmm11
 259      2470
 260 01b2 440F28A4 		movaps	128(%rsp), %xmm12
 260      24800000 
 260      00
 261 01bb 440F28AC 		movaps	144(%rsp), %xmm13
 261      24900000 
 261      00
 262 01c4 440F28B4 		movaps	160(%rsp), %xmm14
 262      24A00000 
 262      00
 263 01cd 440F28BC 		movaps	176(%rsp), %xmm15
 263      24B00000 
 263      00
 264 01d6 4881C4C0 		addq	$192, %rsp
 264      000000
 265              		.cfi_remember_state
 266              		.cfi_restore 32
 267              		.cfi_restore 31
 268              		.cfi_restore 30
 269              		.cfi_restore 29
 270              		.cfi_restore 28
 271              		.cfi_restore 27
 272              		.cfi_restore 26
 273              		.cfi_restore 25
 274              		.cfi_restore 24
 275              		.cfi_restore 23
 276              		.cfi_def_cfa_offset 48
 277 01dd 5B       		popq	%rbx
 278              		.cfi_restore 3
 279              		.cfi_def_cfa_offset 40
 280              	.LVL17:
 281              		.loc 1 397 1 view .LVU51
 282 01de 5E       		popq	%rsi
 283              		.cfi_restore 4
 284              		.cfi_def_cfa_offset 32
 285 01df 5F       		popq	%rdi
 286              		.cfi_restore 5
 287              		.cfi_def_cfa_offset 24
 288 01e0 5D       		popq	%rbp
 289              		.cfi_restore 6
 290              		.cfi_def_cfa_offset 16
 291 01e1 415C     		popq	%r12
 292              		.cfi_restore 12
 293              		.cfi_def_cfa_offset 8
 294              	.LVL18:
 295              		.loc 1 397 1 view .LVU52
 296 01e3 C3       		ret
 297              	.LVL19:
 298              	.L9:
 299              		.cfi_restore_state
 378:../Backend/gnu-efi-3.0.9/lib/print.c ****         spc->maxlen = newlen;
 300              		.loc 1 378 9 is_stmt 1 view .LVU53
 378:../Backend/gnu-efi-3.0.9/lib/print.c ****         spc->maxlen = newlen;
 301              		.loc 1 378 16 is_stmt 0 view .LVU54
 302 01e4 4881C2C9 		addq	$201, %rdx
 302      000000
 303              	.LVL20:
 379:../Backend/gnu-efi-3.0.9/lib/print.c ****         spc->str = ReallocatePool (
 304              		.loc 1 379 9 is_stmt 1 view .LVU55
 379:../Backend/gnu-efi-3.0.9/lib/print.c ****         spc->str = ReallocatePool (
 305              		.loc 1 379 21 is_stmt 0 view .LVU56
 306 01eb 48895310 		movq	%rdx, 16(%rbx)
 380:../Backend/gnu-efi-3.0.9/lib/print.c ****                         spc->str,
 307              		.loc 1 380 9 is_stmt 1 view .LVU57
 381:../Backend/gnu-efi-3.0.9/lib/print.c ****                         spc->len * sizeof(CHAR16),
 308              		.loc 1 381 28 is_stmt 0 view .LVU58
 309 01ef 488B3B   		movq	(%rbx), %rdi
 380:../Backend/gnu-efi-3.0.9/lib/print.c ****                         spc->str,
 310              		.loc 1 380 20 view .LVU59
 311 01f2 4801D2   		addq	%rdx, %rdx
 312              	.LVL21:
 380:../Backend/gnu-efi-3.0.9/lib/print.c ****                         spc->str,
 313              		.loc 1 380 20 view .LVU60
 314 01f5 488B4308 		movq	8(%rbx), %rax
 315 01f9 488D3400 		leaq	(%rax,%rax), %rsi
 316 01fd E8000000 		call	ReallocatePool
 316      00
 317              	.LVL22:
 380:../Backend/gnu-efi-3.0.9/lib/print.c ****                         spc->str,
 318              		.loc 1 380 18 discriminator 1 view .LVU61
 319 0202 488903   		movq	%rax, (%rbx)
 386:../Backend/gnu-efi-3.0.9/lib/print.c ****             spc->len = 0;
 320              		.loc 1 386 9 is_stmt 1 view .LVU62
 386:../Backend/gnu-efi-3.0.9/lib/print.c ****             spc->len = 0;
 321              		.loc 1 386 12 is_stmt 0 view .LVU63
 322 0205 4885C0   		testq	%rax, %rax
 323 0208 0F8577FF 		jne	.L7
 323      FFFF
 387:../Backend/gnu-efi-3.0.9/lib/print.c ****             spc->maxlen = 0;
 324              		.loc 1 387 13 is_stmt 1 view .LVU64
 387:../Backend/gnu-efi-3.0.9/lib/print.c ****             spc->maxlen = 0;
 325              		.loc 1 387 22 is_stmt 0 view .LVU65
 326 020e 48C74308 		movq	$0, 8(%rbx)
 326      00000000 
 388:../Backend/gnu-efi-3.0.9/lib/print.c ****         }
 327              		.loc 1 388 13 is_stmt 1 view .LVU66
 388:../Backend/gnu-efi-3.0.9/lib/print.c ****         }
 328              		.loc 1 388 25 is_stmt 0 view .LVU67
 329 0216 48C74310 		movq	$0, 16(%rbx)
 329      00000000 
 330 021e E962FFFF 		jmp	.L7
 330      FF
 331              		.cfi_endproc
 332              	.LFE4:
 334              		.globl	IsLocalPrint
 335              		.hidden	IsLocalPrint
 337              	IsLocalPrint:
 338              	.LVL23:
 339              	.LFB1:
 282:../Backend/gnu-efi-3.0.9/lib/print.c **** 	if (func == _DbgOut || func == _SPrint || func == _PoolPrint)
 340              		.loc 1 282 1 is_stmt 1 view -0
 341              		.cfi_startproc
 282:../Backend/gnu-efi-3.0.9/lib/print.c **** 	if (func == _DbgOut || func == _SPrint || func == _PoolPrint)
 342              		.loc 1 282 1 is_stmt 0 view .LVU69
 343 0223 F30F1EFA 		endbr64
 283:../Backend/gnu-efi-3.0.9/lib/print.c **** 		return 1;
 344              		.loc 1 283 2 is_stmt 1 view .LVU70
 283:../Backend/gnu-efi-3.0.9/lib/print.c **** 		return 1;
 345              		.loc 1 283 5 is_stmt 0 view .LVU71
 346 0227 488D0500 		leaq	_DbgOut(%rip), %rax
 346      000000
 347 022e 4839C7   		cmpq	%rax, %rdi
 348 0231 741E     		je	.L12
 283:../Backend/gnu-efi-3.0.9/lib/print.c **** 		return 1;
 349              		.loc 1 283 22 discriminator 1 view .LVU72
 350 0233 488D0500 		leaq	_SPrint(%rip), %rax
 350      000000
 351 023a 4839C7   		cmpq	%rax, %rdi
 352 023d 7418     		je	.L13
 283:../Backend/gnu-efi-3.0.9/lib/print.c **** 		return 1;
 353              		.loc 1 283 41 discriminator 2 view .LVU73
 354 023f 488D0500 		leaq	_PoolPrint(%rip), %rax
 354      000000
 355 0246 4839C7   		cmpq	%rax, %rdi
 356 0249 7412     		je	.L14
 285:../Backend/gnu-efi-3.0.9/lib/print.c **** }
 357              		.loc 1 285 9 view .LVU74
 358 024b B8000000 		movl	$0, %eax
 358      00
 359 0250 C3       		ret
 360              	.L12:
 284:../Backend/gnu-efi-3.0.9/lib/print.c **** 	return 0;
 361              		.loc 1 284 10 view .LVU75
 362 0251 B8010000 		movl	$1, %eax
 362      00
 363 0256 C3       		ret
 364              	.L13:
 365 0257 B8010000 		movl	$1, %eax
 365      00
 366 025c C3       		ret
 367              	.L14:
 368 025d B8010000 		movl	$1, %eax
 368      00
 286:../Backend/gnu-efi-3.0.9/lib/print.c **** 
 369              		.loc 1 286 1 view .LVU76
 370 0262 C3       		ret
 371              		.cfi_endproc
 372              	.LFE1:
 374              		.globl	_DbgOut
 375              		.hidden	_DbgOut
 377              	_DbgOut:
 378              	.LVL24:
 379              	.LFB2:
 295:../Backend/gnu-efi-3.0.9/lib/print.c ****     SIMPLE_TEXT_OUTPUT_INTERFACE    *DbgOut;
 380              		.loc 1 295 1 is_stmt 1 view -0
 381              		.cfi_startproc
 295:../Backend/gnu-efi-3.0.9/lib/print.c ****     SIMPLE_TEXT_OUTPUT_INTERFACE    *DbgOut;
 382              		.loc 1 295 1 is_stmt 0 view .LVU78
 383 0263 F30F1EFA 		endbr64
 296:../Backend/gnu-efi-3.0.9/lib/print.c **** 
 384              		.loc 1 296 5 is_stmt 1 view .LVU79
 298:../Backend/gnu-efi-3.0.9/lib/print.c **** //    if (!DbgOut && ST && ST->ConOut) {
 385              		.loc 1 298 5 view .LVU80
 386              	.LVL25:
 303:../Backend/gnu-efi-3.0.9/lib/print.c **** 	if (IsLocalPrint(DbgOut->OutputString))
 387              		.loc 1 303 5 view .LVU81
 303:../Backend/gnu-efi-3.0.9/lib/print.c **** 	if (IsLocalPrint(DbgOut->OutputString))
 388              		.loc 1 303 8 is_stmt 0 view .LVU82
 389 0267 4885C9   		testq	%rcx, %rcx
 390 026a 0F84D700 		je	.L19
 390      0000
 295:../Backend/gnu-efi-3.0.9/lib/print.c ****     SIMPLE_TEXT_OUTPUT_INTERFACE    *DbgOut;
 391              		.loc 1 295 1 view .LVU83
 392 0270 4154     		pushq	%r12
 393              		.cfi_def_cfa_offset 16
 394              		.cfi_offset 12, -16
 395 0272 55       		pushq	%rbp
 396              		.cfi_def_cfa_offset 24
 397              		.cfi_offset 6, -24
 398 0273 57       		pushq	%rdi
 399              		.cfi_def_cfa_offset 32
 400              		.cfi_offset 5, -32
 401 0274 56       		pushq	%rsi
 402              		.cfi_def_cfa_offset 40
 403              		.cfi_offset 4, -40
 404 0275 53       		pushq	%rbx
 405              		.cfi_def_cfa_offset 48
 406              		.cfi_offset 3, -48
 407 0276 4881ECC0 		subq	$192, %rsp
 407      000000
 408              		.cfi_def_cfa_offset 240
 409 027d 0F297424 		movaps	%xmm6, 32(%rsp)
 409      20
 410 0282 0F297C24 		movaps	%xmm7, 48(%rsp)
 410      30
 411 0287 440F2944 		movaps	%xmm8, 64(%rsp)
 411      2440
 412 028d 440F294C 		movaps	%xmm9, 80(%rsp)
 412      2450
 413 0293 440F2954 		movaps	%xmm10, 96(%rsp)
 413      2460
 414 0299 440F295C 		movaps	%xmm11, 112(%rsp)
 414      2470
 415 029f 440F29A4 		movaps	%xmm12, 128(%rsp)
 415      24800000 
 415      00
 416 02a8 440F29AC 		movaps	%xmm13, 144(%rsp)
 416      24900000 
 416      00
 417 02b1 440F29B4 		movaps	%xmm14, 160(%rsp)
 417      24A00000 
 417      00
 418 02ba 440F29BC 		movaps	%xmm15, 176(%rsp)
 418      24B00000 
 418      00
 419              		.cfi_offset 23, -208
 420              		.cfi_offset 24, -192
 421              		.cfi_offset 25, -176
 422              		.cfi_offset 26, -160
 423              		.cfi_offset 27, -144
 424              		.cfi_offset 28, -128
 425              		.cfi_offset 29, -112
 426              		.cfi_offset 30, -96
 427              		.cfi_offset 31, -80
 428              		.cfi_offset 32, -64
 429 02c3 4889CB   		movq	%rcx, %rbx
 430 02c6 4889D5   		movq	%rdx, %rbp
 304:../Backend/gnu-efi-3.0.9/lib/print.c **** 		DbgOut->OutputString(DbgOut, Buffer);
 431              		.loc 1 304 2 is_stmt 1 view .LVU84
 304:../Backend/gnu-efi-3.0.9/lib/print.c **** 		DbgOut->OutputString(DbgOut, Buffer);
 432              		.loc 1 304 25 is_stmt 0 view .LVU85
 433 02c9 4C8B6108 		movq	8(%rcx), %r12
 304:../Backend/gnu-efi-3.0.9/lib/print.c **** 		DbgOut->OutputString(DbgOut, Buffer);
 434              		.loc 1 304 6 view .LVU86
 435 02cd 4C89E7   		movq	%r12, %rdi
 436 02d0 E8000000 		call	IsLocalPrint
 436      00
 437              	.LVL26:
 304:../Backend/gnu-efi-3.0.9/lib/print.c **** 		DbgOut->OutputString(DbgOut, Buffer);
 438              		.loc 1 304 5 discriminator 1 view .LVU87
 439 02d5 4885C0   		testq	%rax, %rax
 440 02d8 7462     		je	.L17
 305:../Backend/gnu-efi-3.0.9/lib/print.c ****         else
 441              		.loc 1 305 3 is_stmt 1 view .LVU88
 442 02da 4889EA   		movq	%rbp, %rdx
 443 02dd 4889D9   		movq	%rbx, %rcx
 444 02e0 41FFD4   		call	*%r12
 445              	.LVL27:
 446              	.L16:
 310:../Backend/gnu-efi-3.0.9/lib/print.c **** }
 447              		.loc 1 310 5 view .LVU89
 311:../Backend/gnu-efi-3.0.9/lib/print.c **** 
 448              		.loc 1 311 1 is_stmt 0 view .LVU90
 449 02e3 B8000000 		movl	$0, %eax
 449      00
 450 02e8 0F287424 		movaps	32(%rsp), %xmm6
 450      20
 451 02ed 0F287C24 		movaps	48(%rsp), %xmm7
 451      30
 452 02f2 440F2844 		movaps	64(%rsp), %xmm8
 452      2440
 453 02f8 440F284C 		movaps	80(%rsp), %xmm9
 453      2450
 454 02fe 440F2854 		movaps	96(%rsp), %xmm10
 454      2460
 455 0304 440F285C 		movaps	112(%rsp), %xmm11
 455      2470
 456 030a 440F28A4 		movaps	128(%rsp), %xmm12
 456      24800000 
 456      00
 457 0313 440F28AC 		movaps	144(%rsp), %xmm13
 457      24900000 
 457      00
 458 031c 440F28B4 		movaps	160(%rsp), %xmm14
 458      24A00000 
 458      00
 459 0325 440F28BC 		movaps	176(%rsp), %xmm15
 459      24B00000 
 459      00
 460 032e 4881C4C0 		addq	$192, %rsp
 460      000000
 461              		.cfi_remember_state
 462              		.cfi_restore 32
 463              		.cfi_restore 31
 464              		.cfi_restore 30
 465              		.cfi_restore 29
 466              		.cfi_restore 28
 467              		.cfi_restore 27
 468              		.cfi_restore 26
 469              		.cfi_restore 25
 470              		.cfi_restore 24
 471              		.cfi_restore 23
 472              		.cfi_def_cfa_offset 48
 473 0335 5B       		popq	%rbx
 474              		.cfi_restore 3
 475              		.cfi_def_cfa_offset 40
 476              	.LVL28:
 311:../Backend/gnu-efi-3.0.9/lib/print.c **** 
 477              		.loc 1 311 1 view .LVU91
 478 0336 5E       		popq	%rsi
 479              		.cfi_restore 4
 480              		.cfi_def_cfa_offset 32
 481 0337 5F       		popq	%rdi
 482              		.cfi_restore 5
 483              		.cfi_def_cfa_offset 24
 484 0338 5D       		popq	%rbp
 485              		.cfi_restore 6
 486              		.cfi_def_cfa_offset 16
 487              	.LVL29:
 311:../Backend/gnu-efi-3.0.9/lib/print.c **** 
 488              		.loc 1 311 1 view .LVU92
 489 0339 415C     		popq	%r12
 490              		.cfi_restore 12
 491              		.cfi_def_cfa_offset 8
 492 033b C3       		ret
 493              	.LVL30:
 494              	.L17:
 495              		.cfi_restore_state
 307:../Backend/gnu-efi-3.0.9/lib/print.c ****     }
 496              		.loc 1 307 3 is_stmt 1 view .LVU93
 497 033c 4889EA   		movq	%rbp, %rdx
 498 033f 4889D9   		movq	%rbx, %rcx
 499 0342 41FFD4   		call	*%r12
 500              	.LVL31:
 501 0345 EB9C     		jmp	.L16
 502              	.LVL32:
 503              	.L19:
 504              		.cfi_def_cfa_offset 8
 505              		.cfi_restore 3
 506              		.cfi_restore 4
 507              		.cfi_restore 5
 508              		.cfi_restore 6
 509              		.cfi_restore 12
 510              		.cfi_restore 23
 511              		.cfi_restore 24
 512              		.cfi_restore 25
 513              		.cfi_restore 26
 514              		.cfi_restore 27
 515              		.cfi_restore 28
 516              		.cfi_restore 29
 517              		.cfi_restore 30
 518              		.cfi_restore 31
 519              		.cfi_restore 32
 310:../Backend/gnu-efi-3.0.9/lib/print.c **** }
 520              		.loc 1 310 5 view .LVU94
 311:../Backend/gnu-efi-3.0.9/lib/print.c **** 
 521              		.loc 1 311 1 is_stmt 0 view .LVU95
 522 0347 B8000000 		movl	$0, %eax
 522      00
 523 034c C3       		ret
 524              		.cfi_endproc
 525              	.LFE2:
 527              		.globl	PFLUSH
 528              		.hidden	PFLUSH
 530              	PFLUSH:
 531              	.LVL33:
 532              	.LFB18:
 398:../Backend/gnu-efi-3.0.9/lib/print.c **** 
 399:../Backend/gnu-efi-3.0.9/lib/print.c **** 
 400:../Backend/gnu-efi-3.0.9/lib/print.c **** 
 401:../Backend/gnu-efi-3.0.9/lib/print.c **** VOID
 402:../Backend/gnu-efi-3.0.9/lib/print.c **** _PoolCatPrint (
 403:../Backend/gnu-efi-3.0.9/lib/print.c ****     IN CONST CHAR16     *fmt,
 404:../Backend/gnu-efi-3.0.9/lib/print.c ****     IN va_list          args,
 405:../Backend/gnu-efi-3.0.9/lib/print.c ****     IN OUT POOL_PRINT   *spc,
 406:../Backend/gnu-efi-3.0.9/lib/print.c ****     IN INTN             (EFIAPI *Output)(VOID *context, CHAR16 *str)
 407:../Backend/gnu-efi-3.0.9/lib/print.c ****     )
 408:../Backend/gnu-efi-3.0.9/lib/print.c **** // Dispath function for SPrint, PoolPrint, and CatPrint
 409:../Backend/gnu-efi-3.0.9/lib/print.c **** {
 410:../Backend/gnu-efi-3.0.9/lib/print.c ****     PRINT_STATE         ps;
 411:../Backend/gnu-efi-3.0.9/lib/print.c **** 
 412:../Backend/gnu-efi-3.0.9/lib/print.c ****     ZeroMem (&ps, sizeof(ps));
 413:../Backend/gnu-efi-3.0.9/lib/print.c ****     ps.Output  = Output;
 414:../Backend/gnu-efi-3.0.9/lib/print.c ****     ps.Context = spc;
 415:../Backend/gnu-efi-3.0.9/lib/print.c ****     ps.fmt.pw = fmt;
 416:../Backend/gnu-efi-3.0.9/lib/print.c ****     va_copy(ps.args, args);
 417:../Backend/gnu-efi-3.0.9/lib/print.c ****     _Print (&ps);
 418:../Backend/gnu-efi-3.0.9/lib/print.c ****     va_end(ps.args);
 419:../Backend/gnu-efi-3.0.9/lib/print.c **** }
 420:../Backend/gnu-efi-3.0.9/lib/print.c **** 
 421:../Backend/gnu-efi-3.0.9/lib/print.c **** 
 422:../Backend/gnu-efi-3.0.9/lib/print.c **** 
 423:../Backend/gnu-efi-3.0.9/lib/print.c **** UINTN
 424:../Backend/gnu-efi-3.0.9/lib/print.c **** VSPrint (
 425:../Backend/gnu-efi-3.0.9/lib/print.c ****     OUT CHAR16        *Str,
 426:../Backend/gnu-efi-3.0.9/lib/print.c ****     IN UINTN          StrSize,
 427:../Backend/gnu-efi-3.0.9/lib/print.c ****     IN CONST CHAR16   *fmt,
 428:../Backend/gnu-efi-3.0.9/lib/print.c ****     va_list           args
 429:../Backend/gnu-efi-3.0.9/lib/print.c ****     )
 430:../Backend/gnu-efi-3.0.9/lib/print.c **** /*++
 431:../Backend/gnu-efi-3.0.9/lib/print.c **** 
 432:../Backend/gnu-efi-3.0.9/lib/print.c **** Routine Description:
 433:../Backend/gnu-efi-3.0.9/lib/print.c **** 
 434:../Backend/gnu-efi-3.0.9/lib/print.c ****     Prints a formatted unicode string to a buffer using a va_list
 435:../Backend/gnu-efi-3.0.9/lib/print.c **** 
 436:../Backend/gnu-efi-3.0.9/lib/print.c **** Arguments:
 437:../Backend/gnu-efi-3.0.9/lib/print.c **** 
 438:../Backend/gnu-efi-3.0.9/lib/print.c ****     Str         - Output buffer to print the formatted string into
 439:../Backend/gnu-efi-3.0.9/lib/print.c **** 
 440:../Backend/gnu-efi-3.0.9/lib/print.c ****     StrSize     - Size of Str.  String is truncated to this size.
 441:../Backend/gnu-efi-3.0.9/lib/print.c ****                   A size of 0 means there is no limit
 442:../Backend/gnu-efi-3.0.9/lib/print.c **** 
 443:../Backend/gnu-efi-3.0.9/lib/print.c ****     fmt         - The format string
 444:../Backend/gnu-efi-3.0.9/lib/print.c **** 
 445:../Backend/gnu-efi-3.0.9/lib/print.c ****     args        - va_list
 446:../Backend/gnu-efi-3.0.9/lib/print.c **** 
 447:../Backend/gnu-efi-3.0.9/lib/print.c **** 
 448:../Backend/gnu-efi-3.0.9/lib/print.c **** Returns:
 449:../Backend/gnu-efi-3.0.9/lib/print.c **** 
 450:../Backend/gnu-efi-3.0.9/lib/print.c ****     String length returned in buffer
 451:../Backend/gnu-efi-3.0.9/lib/print.c **** 
 452:../Backend/gnu-efi-3.0.9/lib/print.c **** --*/
 453:../Backend/gnu-efi-3.0.9/lib/print.c **** {
 454:../Backend/gnu-efi-3.0.9/lib/print.c ****     POOL_PRINT          spc;
 455:../Backend/gnu-efi-3.0.9/lib/print.c **** 
 456:../Backend/gnu-efi-3.0.9/lib/print.c ****     spc.str    = Str;
 457:../Backend/gnu-efi-3.0.9/lib/print.c ****     spc.maxlen = (StrSize / sizeof(CHAR16)) - 1; // Why is this subtracting 1? This means we can't 
 458:../Backend/gnu-efi-3.0.9/lib/print.c ****     spc.len    = 0;
 459:../Backend/gnu-efi-3.0.9/lib/print.c **** 
 460:../Backend/gnu-efi-3.0.9/lib/print.c ****     _PoolCatPrint (fmt, args, &spc, _SPrint);
 461:../Backend/gnu-efi-3.0.9/lib/print.c **** 
 462:../Backend/gnu-efi-3.0.9/lib/print.c ****     return spc.len;
 463:../Backend/gnu-efi-3.0.9/lib/print.c **** }
 464:../Backend/gnu-efi-3.0.9/lib/print.c **** 
 465:../Backend/gnu-efi-3.0.9/lib/print.c **** UINTN
 466:../Backend/gnu-efi-3.0.9/lib/print.c **** SPrint (
 467:../Backend/gnu-efi-3.0.9/lib/print.c ****     OUT CHAR16        *Str,
 468:../Backend/gnu-efi-3.0.9/lib/print.c ****     IN UINTN          StrSize,
 469:../Backend/gnu-efi-3.0.9/lib/print.c ****     IN CONST CHAR16   *fmt,
 470:../Backend/gnu-efi-3.0.9/lib/print.c ****     ...
 471:../Backend/gnu-efi-3.0.9/lib/print.c ****     )
 472:../Backend/gnu-efi-3.0.9/lib/print.c **** /*++
 473:../Backend/gnu-efi-3.0.9/lib/print.c **** 
 474:../Backend/gnu-efi-3.0.9/lib/print.c **** Routine Description:
 475:../Backend/gnu-efi-3.0.9/lib/print.c **** 
 476:../Backend/gnu-efi-3.0.9/lib/print.c ****     Prints a formatted unicode string to a buffer
 477:../Backend/gnu-efi-3.0.9/lib/print.c **** 
 478:../Backend/gnu-efi-3.0.9/lib/print.c **** Arguments:
 479:../Backend/gnu-efi-3.0.9/lib/print.c **** 
 480:../Backend/gnu-efi-3.0.9/lib/print.c ****     Str         - Output buffer to print the formatted string into
 481:../Backend/gnu-efi-3.0.9/lib/print.c **** 
 482:../Backend/gnu-efi-3.0.9/lib/print.c ****     StrSize     - Size of Str.  String is truncated to this size.
 483:../Backend/gnu-efi-3.0.9/lib/print.c ****                   A size of 0 means there is no limit
 484:../Backend/gnu-efi-3.0.9/lib/print.c **** 
 485:../Backend/gnu-efi-3.0.9/lib/print.c ****     fmt         - The format string
 486:../Backend/gnu-efi-3.0.9/lib/print.c **** 
 487:../Backend/gnu-efi-3.0.9/lib/print.c **** Returns:
 488:../Backend/gnu-efi-3.0.9/lib/print.c **** 
 489:../Backend/gnu-efi-3.0.9/lib/print.c ****     String length returned in buffer
 490:../Backend/gnu-efi-3.0.9/lib/print.c **** 
 491:../Backend/gnu-efi-3.0.9/lib/print.c **** --*/
 492:../Backend/gnu-efi-3.0.9/lib/print.c **** {
 493:../Backend/gnu-efi-3.0.9/lib/print.c ****     va_list          args;
 494:../Backend/gnu-efi-3.0.9/lib/print.c ****     UINTN            len;
 495:../Backend/gnu-efi-3.0.9/lib/print.c **** 
 496:../Backend/gnu-efi-3.0.9/lib/print.c ****     va_start (args, fmt);
 497:../Backend/gnu-efi-3.0.9/lib/print.c ****     len = VSPrint(Str, StrSize, fmt, args);
 498:../Backend/gnu-efi-3.0.9/lib/print.c ****     va_end (args);
 499:../Backend/gnu-efi-3.0.9/lib/print.c **** 
 500:../Backend/gnu-efi-3.0.9/lib/print.c ****     return len;
 501:../Backend/gnu-efi-3.0.9/lib/print.c **** }
 502:../Backend/gnu-efi-3.0.9/lib/print.c **** 
 503:../Backend/gnu-efi-3.0.9/lib/print.c **** CHAR16 *
 504:../Backend/gnu-efi-3.0.9/lib/print.c **** VPoolPrint (
 505:../Backend/gnu-efi-3.0.9/lib/print.c ****     IN CONST CHAR16     *fmt,
 506:../Backend/gnu-efi-3.0.9/lib/print.c ****     va_list             args
 507:../Backend/gnu-efi-3.0.9/lib/print.c ****     )
 508:../Backend/gnu-efi-3.0.9/lib/print.c **** /*++
 509:../Backend/gnu-efi-3.0.9/lib/print.c **** 
 510:../Backend/gnu-efi-3.0.9/lib/print.c **** Routine Description:
 511:../Backend/gnu-efi-3.0.9/lib/print.c **** 
 512:../Backend/gnu-efi-3.0.9/lib/print.c ****     Prints a formatted unicode string to allocated pool using va_list argument.
 513:../Backend/gnu-efi-3.0.9/lib/print.c ****     The caller must free the resulting buffer.
 514:../Backend/gnu-efi-3.0.9/lib/print.c **** 
 515:../Backend/gnu-efi-3.0.9/lib/print.c **** Arguments:
 516:../Backend/gnu-efi-3.0.9/lib/print.c **** 
 517:../Backend/gnu-efi-3.0.9/lib/print.c ****     fmt         - The format string
 518:../Backend/gnu-efi-3.0.9/lib/print.c ****     args        - The arguments in va_list form
 519:../Backend/gnu-efi-3.0.9/lib/print.c **** 
 520:../Backend/gnu-efi-3.0.9/lib/print.c **** Returns:
 521:../Backend/gnu-efi-3.0.9/lib/print.c **** 
 522:../Backend/gnu-efi-3.0.9/lib/print.c ****     Allocated buffer with the formatted string printed in it.
 523:../Backend/gnu-efi-3.0.9/lib/print.c ****     The caller must free the allocated buffer.   The buffer
 524:../Backend/gnu-efi-3.0.9/lib/print.c ****     allocation is not packed.
 525:../Backend/gnu-efi-3.0.9/lib/print.c **** 
 526:../Backend/gnu-efi-3.0.9/lib/print.c **** --*/
 527:../Backend/gnu-efi-3.0.9/lib/print.c **** {
 528:../Backend/gnu-efi-3.0.9/lib/print.c ****     POOL_PRINT          spc;
 529:../Backend/gnu-efi-3.0.9/lib/print.c ****     ZeroMem (&spc, sizeof(spc));
 530:../Backend/gnu-efi-3.0.9/lib/print.c ****     _PoolCatPrint (fmt, args, &spc, _PoolPrint);
 531:../Backend/gnu-efi-3.0.9/lib/print.c ****     return spc.str;
 532:../Backend/gnu-efi-3.0.9/lib/print.c **** }
 533:../Backend/gnu-efi-3.0.9/lib/print.c **** 
 534:../Backend/gnu-efi-3.0.9/lib/print.c **** CHAR16 *
 535:../Backend/gnu-efi-3.0.9/lib/print.c **** PoolPrint (
 536:../Backend/gnu-efi-3.0.9/lib/print.c ****     IN CONST CHAR16     *fmt,
 537:../Backend/gnu-efi-3.0.9/lib/print.c ****     ...
 538:../Backend/gnu-efi-3.0.9/lib/print.c ****     )
 539:../Backend/gnu-efi-3.0.9/lib/print.c **** /*++
 540:../Backend/gnu-efi-3.0.9/lib/print.c **** 
 541:../Backend/gnu-efi-3.0.9/lib/print.c **** Routine Description:
 542:../Backend/gnu-efi-3.0.9/lib/print.c **** 
 543:../Backend/gnu-efi-3.0.9/lib/print.c ****     Prints a formatted unicode string to allocated pool.  The caller
 544:../Backend/gnu-efi-3.0.9/lib/print.c ****     must free the resulting buffer.
 545:../Backend/gnu-efi-3.0.9/lib/print.c **** 
 546:../Backend/gnu-efi-3.0.9/lib/print.c **** Arguments:
 547:../Backend/gnu-efi-3.0.9/lib/print.c **** 
 548:../Backend/gnu-efi-3.0.9/lib/print.c ****     fmt         - The format string
 549:../Backend/gnu-efi-3.0.9/lib/print.c **** 
 550:../Backend/gnu-efi-3.0.9/lib/print.c **** Returns:
 551:../Backend/gnu-efi-3.0.9/lib/print.c **** 
 552:../Backend/gnu-efi-3.0.9/lib/print.c ****     Allocated buffer with the formatted string printed in it.
 553:../Backend/gnu-efi-3.0.9/lib/print.c ****     The caller must free the allocated buffer.   The buffer
 554:../Backend/gnu-efi-3.0.9/lib/print.c ****     allocation is not packed.
 555:../Backend/gnu-efi-3.0.9/lib/print.c **** 
 556:../Backend/gnu-efi-3.0.9/lib/print.c **** --*/
 557:../Backend/gnu-efi-3.0.9/lib/print.c **** {
 558:../Backend/gnu-efi-3.0.9/lib/print.c ****     va_list args;
 559:../Backend/gnu-efi-3.0.9/lib/print.c ****     CHAR16 *pool;
 560:../Backend/gnu-efi-3.0.9/lib/print.c ****     va_start (args, fmt);
 561:../Backend/gnu-efi-3.0.9/lib/print.c ****     pool = VPoolPrint(fmt, args);
 562:../Backend/gnu-efi-3.0.9/lib/print.c ****     va_end (args);
 563:../Backend/gnu-efi-3.0.9/lib/print.c ****     return pool;
 564:../Backend/gnu-efi-3.0.9/lib/print.c **** }
 565:../Backend/gnu-efi-3.0.9/lib/print.c **** 
 566:../Backend/gnu-efi-3.0.9/lib/print.c **** CHAR16 *
 567:../Backend/gnu-efi-3.0.9/lib/print.c **** CatPrint (
 568:../Backend/gnu-efi-3.0.9/lib/print.c ****     IN OUT POOL_PRINT   *Str,
 569:../Backend/gnu-efi-3.0.9/lib/print.c ****     IN CONST CHAR16     *fmt,
 570:../Backend/gnu-efi-3.0.9/lib/print.c ****     ...
 571:../Backend/gnu-efi-3.0.9/lib/print.c ****     )
 572:../Backend/gnu-efi-3.0.9/lib/print.c **** /*++
 573:../Backend/gnu-efi-3.0.9/lib/print.c **** 
 574:../Backend/gnu-efi-3.0.9/lib/print.c **** Routine Description:
 575:../Backend/gnu-efi-3.0.9/lib/print.c **** 
 576:../Backend/gnu-efi-3.0.9/lib/print.c ****     Concatenates a formatted unicode string to allocated pool.
 577:../Backend/gnu-efi-3.0.9/lib/print.c ****     The caller must free the resulting buffer.
 578:../Backend/gnu-efi-3.0.9/lib/print.c **** 
 579:../Backend/gnu-efi-3.0.9/lib/print.c **** Arguments:
 580:../Backend/gnu-efi-3.0.9/lib/print.c **** 
 581:../Backend/gnu-efi-3.0.9/lib/print.c ****     Str         - Tracks the allocated pool, size in use, and
 582:../Backend/gnu-efi-3.0.9/lib/print.c ****                   amount of pool allocated.
 583:../Backend/gnu-efi-3.0.9/lib/print.c **** 
 584:../Backend/gnu-efi-3.0.9/lib/print.c ****     fmt         - The format string
 585:../Backend/gnu-efi-3.0.9/lib/print.c **** 
 586:../Backend/gnu-efi-3.0.9/lib/print.c **** Returns:
 587:../Backend/gnu-efi-3.0.9/lib/print.c **** 
 588:../Backend/gnu-efi-3.0.9/lib/print.c ****     Allocated buffer with the formatted string printed in it.
 589:../Backend/gnu-efi-3.0.9/lib/print.c ****     The caller must free the allocated buffer.   The buffer
 590:../Backend/gnu-efi-3.0.9/lib/print.c ****     allocation is not packed.
 591:../Backend/gnu-efi-3.0.9/lib/print.c **** 
 592:../Backend/gnu-efi-3.0.9/lib/print.c **** --*/
 593:../Backend/gnu-efi-3.0.9/lib/print.c **** {
 594:../Backend/gnu-efi-3.0.9/lib/print.c ****     va_list             args;
 595:../Backend/gnu-efi-3.0.9/lib/print.c **** 
 596:../Backend/gnu-efi-3.0.9/lib/print.c ****     va_start (args, fmt);
 597:../Backend/gnu-efi-3.0.9/lib/print.c ****     _PoolCatPrint (fmt, args, Str, _PoolPrint);
 598:../Backend/gnu-efi-3.0.9/lib/print.c ****     va_end (args);
 599:../Backend/gnu-efi-3.0.9/lib/print.c ****     return Str->str;
 600:../Backend/gnu-efi-3.0.9/lib/print.c **** }
 601:../Backend/gnu-efi-3.0.9/lib/print.c **** 
 602:../Backend/gnu-efi-3.0.9/lib/print.c **** 
 603:../Backend/gnu-efi-3.0.9/lib/print.c **** 
 604:../Backend/gnu-efi-3.0.9/lib/print.c **** UINTN
 605:../Backend/gnu-efi-3.0.9/lib/print.c **** Print (
 606:../Backend/gnu-efi-3.0.9/lib/print.c ****     IN CONST CHAR16   *fmt,
 607:../Backend/gnu-efi-3.0.9/lib/print.c ****     ...
 608:../Backend/gnu-efi-3.0.9/lib/print.c ****     )
 609:../Backend/gnu-efi-3.0.9/lib/print.c **** /*++
 610:../Backend/gnu-efi-3.0.9/lib/print.c **** 
 611:../Backend/gnu-efi-3.0.9/lib/print.c **** Routine Description:
 612:../Backend/gnu-efi-3.0.9/lib/print.c **** 
 613:../Backend/gnu-efi-3.0.9/lib/print.c ****     Prints a formatted unicode string to the default console
 614:../Backend/gnu-efi-3.0.9/lib/print.c **** 
 615:../Backend/gnu-efi-3.0.9/lib/print.c **** Arguments:
 616:../Backend/gnu-efi-3.0.9/lib/print.c **** 
 617:../Backend/gnu-efi-3.0.9/lib/print.c ****     fmt         - Format string
 618:../Backend/gnu-efi-3.0.9/lib/print.c **** 
 619:../Backend/gnu-efi-3.0.9/lib/print.c **** Returns:
 620:../Backend/gnu-efi-3.0.9/lib/print.c **** 
 621:../Backend/gnu-efi-3.0.9/lib/print.c ****     Length of string printed to the console
 622:../Backend/gnu-efi-3.0.9/lib/print.c **** 
 623:../Backend/gnu-efi-3.0.9/lib/print.c **** --*/
 624:../Backend/gnu-efi-3.0.9/lib/print.c **** {
 625:../Backend/gnu-efi-3.0.9/lib/print.c ****     va_list     args;
 626:../Backend/gnu-efi-3.0.9/lib/print.c ****     UINTN       back;
 627:../Backend/gnu-efi-3.0.9/lib/print.c **** 
 628:../Backend/gnu-efi-3.0.9/lib/print.c ****     va_start (args, fmt);
 629:../Backend/gnu-efi-3.0.9/lib/print.c ****     back = _IPrint ((UINTN) -1, (UINTN) -1, ST->ConOut, fmt, NULL, args);
 630:../Backend/gnu-efi-3.0.9/lib/print.c ****     va_end (args);
 631:../Backend/gnu-efi-3.0.9/lib/print.c ****     return back;
 632:../Backend/gnu-efi-3.0.9/lib/print.c **** }
 633:../Backend/gnu-efi-3.0.9/lib/print.c **** 
 634:../Backend/gnu-efi-3.0.9/lib/print.c **** UINTN
 635:../Backend/gnu-efi-3.0.9/lib/print.c **** VPrint (
 636:../Backend/gnu-efi-3.0.9/lib/print.c ****     IN CONST CHAR16   *fmt,
 637:../Backend/gnu-efi-3.0.9/lib/print.c ****     va_list           args
 638:../Backend/gnu-efi-3.0.9/lib/print.c ****     )
 639:../Backend/gnu-efi-3.0.9/lib/print.c **** /*++
 640:../Backend/gnu-efi-3.0.9/lib/print.c **** 
 641:../Backend/gnu-efi-3.0.9/lib/print.c **** Routine Description:
 642:../Backend/gnu-efi-3.0.9/lib/print.c **** 
 643:../Backend/gnu-efi-3.0.9/lib/print.c ****     Prints a formatted unicode string to the default console using a va_list
 644:../Backend/gnu-efi-3.0.9/lib/print.c **** 
 645:../Backend/gnu-efi-3.0.9/lib/print.c **** Arguments:
 646:../Backend/gnu-efi-3.0.9/lib/print.c **** 
 647:../Backend/gnu-efi-3.0.9/lib/print.c ****     fmt         - Format string
 648:../Backend/gnu-efi-3.0.9/lib/print.c ****     args        - va_list
 649:../Backend/gnu-efi-3.0.9/lib/print.c **** Returns:
 650:../Backend/gnu-efi-3.0.9/lib/print.c **** 
 651:../Backend/gnu-efi-3.0.9/lib/print.c ****     Length of string printed to the console
 652:../Backend/gnu-efi-3.0.9/lib/print.c **** 
 653:../Backend/gnu-efi-3.0.9/lib/print.c **** --*/
 654:../Backend/gnu-efi-3.0.9/lib/print.c **** {
 655:../Backend/gnu-efi-3.0.9/lib/print.c ****     return _IPrint ((UINTN) -1, (UINTN) -1, ST->ConOut, fmt, NULL, args);
 656:../Backend/gnu-efi-3.0.9/lib/print.c **** }
 657:../Backend/gnu-efi-3.0.9/lib/print.c **** 
 658:../Backend/gnu-efi-3.0.9/lib/print.c **** 
 659:../Backend/gnu-efi-3.0.9/lib/print.c **** UINTN
 660:../Backend/gnu-efi-3.0.9/lib/print.c **** PrintAt (
 661:../Backend/gnu-efi-3.0.9/lib/print.c ****     IN UINTN          Column,
 662:../Backend/gnu-efi-3.0.9/lib/print.c ****     IN UINTN          Row,
 663:../Backend/gnu-efi-3.0.9/lib/print.c ****     IN CONST CHAR16   *fmt,
 664:../Backend/gnu-efi-3.0.9/lib/print.c ****     ...
 665:../Backend/gnu-efi-3.0.9/lib/print.c ****     )
 666:../Backend/gnu-efi-3.0.9/lib/print.c **** /*++
 667:../Backend/gnu-efi-3.0.9/lib/print.c **** 
 668:../Backend/gnu-efi-3.0.9/lib/print.c **** Routine Description:
 669:../Backend/gnu-efi-3.0.9/lib/print.c **** 
 670:../Backend/gnu-efi-3.0.9/lib/print.c ****     Prints a formatted unicode string to the default console, at
 671:../Backend/gnu-efi-3.0.9/lib/print.c ****     the supplied cursor position
 672:../Backend/gnu-efi-3.0.9/lib/print.c **** 
 673:../Backend/gnu-efi-3.0.9/lib/print.c **** Arguments:
 674:../Backend/gnu-efi-3.0.9/lib/print.c **** 
 675:../Backend/gnu-efi-3.0.9/lib/print.c ****     Column, Row - The cursor position to print the string at
 676:../Backend/gnu-efi-3.0.9/lib/print.c **** 
 677:../Backend/gnu-efi-3.0.9/lib/print.c ****     fmt         - Format string
 678:../Backend/gnu-efi-3.0.9/lib/print.c **** 
 679:../Backend/gnu-efi-3.0.9/lib/print.c **** Returns:
 680:../Backend/gnu-efi-3.0.9/lib/print.c **** 
 681:../Backend/gnu-efi-3.0.9/lib/print.c ****     Length of string printed to the console
 682:../Backend/gnu-efi-3.0.9/lib/print.c **** 
 683:../Backend/gnu-efi-3.0.9/lib/print.c **** --*/
 684:../Backend/gnu-efi-3.0.9/lib/print.c **** {
 685:../Backend/gnu-efi-3.0.9/lib/print.c ****     va_list     args;
 686:../Backend/gnu-efi-3.0.9/lib/print.c ****     UINTN       back;
 687:../Backend/gnu-efi-3.0.9/lib/print.c **** 
 688:../Backend/gnu-efi-3.0.9/lib/print.c ****     va_start (args, fmt);
 689:../Backend/gnu-efi-3.0.9/lib/print.c ****     back = _IPrint (Column, Row, ST->ConOut, fmt, NULL, args);
 690:../Backend/gnu-efi-3.0.9/lib/print.c ****     va_end (args);
 691:../Backend/gnu-efi-3.0.9/lib/print.c ****     return back;
 692:../Backend/gnu-efi-3.0.9/lib/print.c **** }
 693:../Backend/gnu-efi-3.0.9/lib/print.c **** 
 694:../Backend/gnu-efi-3.0.9/lib/print.c **** 
 695:../Backend/gnu-efi-3.0.9/lib/print.c **** UINTN
 696:../Backend/gnu-efi-3.0.9/lib/print.c **** IPrint (
 697:../Backend/gnu-efi-3.0.9/lib/print.c ****     IN SIMPLE_TEXT_OUTPUT_INTERFACE    *Out,
 698:../Backend/gnu-efi-3.0.9/lib/print.c ****     IN CONST CHAR16                    *fmt,
 699:../Backend/gnu-efi-3.0.9/lib/print.c ****     ...
 700:../Backend/gnu-efi-3.0.9/lib/print.c ****     )
 701:../Backend/gnu-efi-3.0.9/lib/print.c **** /*++
 702:../Backend/gnu-efi-3.0.9/lib/print.c **** 
 703:../Backend/gnu-efi-3.0.9/lib/print.c **** Routine Description:
 704:../Backend/gnu-efi-3.0.9/lib/print.c **** 
 705:../Backend/gnu-efi-3.0.9/lib/print.c ****     Prints a formatted unicode string to the specified console
 706:../Backend/gnu-efi-3.0.9/lib/print.c **** 
 707:../Backend/gnu-efi-3.0.9/lib/print.c **** Arguments:
 708:../Backend/gnu-efi-3.0.9/lib/print.c **** 
 709:../Backend/gnu-efi-3.0.9/lib/print.c ****     Out         - The console to print the string too
 710:../Backend/gnu-efi-3.0.9/lib/print.c **** 
 711:../Backend/gnu-efi-3.0.9/lib/print.c ****     fmt         - Format string
 712:../Backend/gnu-efi-3.0.9/lib/print.c **** 
 713:../Backend/gnu-efi-3.0.9/lib/print.c **** Returns:
 714:../Backend/gnu-efi-3.0.9/lib/print.c **** 
 715:../Backend/gnu-efi-3.0.9/lib/print.c ****     Length of string printed to the console
 716:../Backend/gnu-efi-3.0.9/lib/print.c **** 
 717:../Backend/gnu-efi-3.0.9/lib/print.c **** --*/
 718:../Backend/gnu-efi-3.0.9/lib/print.c **** {
 719:../Backend/gnu-efi-3.0.9/lib/print.c ****     va_list     args;
 720:../Backend/gnu-efi-3.0.9/lib/print.c ****     UINTN       back;
 721:../Backend/gnu-efi-3.0.9/lib/print.c **** 
 722:../Backend/gnu-efi-3.0.9/lib/print.c ****     va_start (args, fmt);
 723:../Backend/gnu-efi-3.0.9/lib/print.c ****     back = _IPrint ((UINTN) -1, (UINTN) -1, Out, fmt, NULL, args);
 724:../Backend/gnu-efi-3.0.9/lib/print.c ****     va_end (args);
 725:../Backend/gnu-efi-3.0.9/lib/print.c ****     return back;
 726:../Backend/gnu-efi-3.0.9/lib/print.c **** }
 727:../Backend/gnu-efi-3.0.9/lib/print.c **** 
 728:../Backend/gnu-efi-3.0.9/lib/print.c **** 
 729:../Backend/gnu-efi-3.0.9/lib/print.c **** UINTN
 730:../Backend/gnu-efi-3.0.9/lib/print.c **** IPrintAt (
 731:../Backend/gnu-efi-3.0.9/lib/print.c ****     IN SIMPLE_TEXT_OUTPUT_INTERFACE     *Out,
 732:../Backend/gnu-efi-3.0.9/lib/print.c ****     IN UINTN                            Column,
 733:../Backend/gnu-efi-3.0.9/lib/print.c ****     IN UINTN                            Row,
 734:../Backend/gnu-efi-3.0.9/lib/print.c ****     IN CONST CHAR16                     *fmt,
 735:../Backend/gnu-efi-3.0.9/lib/print.c ****     ...
 736:../Backend/gnu-efi-3.0.9/lib/print.c ****     )
 737:../Backend/gnu-efi-3.0.9/lib/print.c **** /*++
 738:../Backend/gnu-efi-3.0.9/lib/print.c **** 
 739:../Backend/gnu-efi-3.0.9/lib/print.c **** Routine Description:
 740:../Backend/gnu-efi-3.0.9/lib/print.c **** 
 741:../Backend/gnu-efi-3.0.9/lib/print.c ****     Prints a formatted unicode string to the specified console, at
 742:../Backend/gnu-efi-3.0.9/lib/print.c ****     the supplied cursor position
 743:../Backend/gnu-efi-3.0.9/lib/print.c **** 
 744:../Backend/gnu-efi-3.0.9/lib/print.c **** Arguments:
 745:../Backend/gnu-efi-3.0.9/lib/print.c **** 
 746:../Backend/gnu-efi-3.0.9/lib/print.c ****     Out         - The console to print the string to
 747:../Backend/gnu-efi-3.0.9/lib/print.c **** 
 748:../Backend/gnu-efi-3.0.9/lib/print.c ****     Column, Row - The cursor position to print the string at
 749:../Backend/gnu-efi-3.0.9/lib/print.c **** 
 750:../Backend/gnu-efi-3.0.9/lib/print.c ****     fmt         - Format string
 751:../Backend/gnu-efi-3.0.9/lib/print.c **** 
 752:../Backend/gnu-efi-3.0.9/lib/print.c **** Returns:
 753:../Backend/gnu-efi-3.0.9/lib/print.c **** 
 754:../Backend/gnu-efi-3.0.9/lib/print.c ****     Length of string printed to the console
 755:../Backend/gnu-efi-3.0.9/lib/print.c **** 
 756:../Backend/gnu-efi-3.0.9/lib/print.c **** --*/
 757:../Backend/gnu-efi-3.0.9/lib/print.c **** {
 758:../Backend/gnu-efi-3.0.9/lib/print.c ****     va_list     args;
 759:../Backend/gnu-efi-3.0.9/lib/print.c ****     UINTN       back;
 760:../Backend/gnu-efi-3.0.9/lib/print.c **** 
 761:../Backend/gnu-efi-3.0.9/lib/print.c ****     va_start (args, fmt);
 762:../Backend/gnu-efi-3.0.9/lib/print.c ****     back = _IPrint (Column, Row, Out, fmt, NULL, args);
 763:../Backend/gnu-efi-3.0.9/lib/print.c ****     va_end (args);
 764:../Backend/gnu-efi-3.0.9/lib/print.c ****     return back;
 765:../Backend/gnu-efi-3.0.9/lib/print.c **** }
 766:../Backend/gnu-efi-3.0.9/lib/print.c **** 
 767:../Backend/gnu-efi-3.0.9/lib/print.c **** 
 768:../Backend/gnu-efi-3.0.9/lib/print.c **** UINTN
 769:../Backend/gnu-efi-3.0.9/lib/print.c **** _IPrint (
 770:../Backend/gnu-efi-3.0.9/lib/print.c ****     IN UINTN                            Column,
 771:../Backend/gnu-efi-3.0.9/lib/print.c ****     IN UINTN                            Row,
 772:../Backend/gnu-efi-3.0.9/lib/print.c ****     IN SIMPLE_TEXT_OUTPUT_INTERFACE     *Out,
 773:../Backend/gnu-efi-3.0.9/lib/print.c ****     IN CONST CHAR16                     *fmt,
 774:../Backend/gnu-efi-3.0.9/lib/print.c ****     IN CONST CHAR8                      *fmta,
 775:../Backend/gnu-efi-3.0.9/lib/print.c ****     IN va_list                          args
 776:../Backend/gnu-efi-3.0.9/lib/print.c ****     )
 777:../Backend/gnu-efi-3.0.9/lib/print.c **** // Display string worker for: Print, PrintAt, IPrint, IPrintAt
 778:../Backend/gnu-efi-3.0.9/lib/print.c **** {
 779:../Backend/gnu-efi-3.0.9/lib/print.c ****     PRINT_STATE     ps;
 780:../Backend/gnu-efi-3.0.9/lib/print.c ****     UINTN            back;
 781:../Backend/gnu-efi-3.0.9/lib/print.c **** 
 782:../Backend/gnu-efi-3.0.9/lib/print.c ****     ZeroMem (&ps, sizeof(ps));
 783:../Backend/gnu-efi-3.0.9/lib/print.c ****     ps.Context = Out;
 784:../Backend/gnu-efi-3.0.9/lib/print.c ****     ps.Output  = (INTN (EFIAPI *)(VOID *, CHAR16 *)) Out->OutputString;
 785:../Backend/gnu-efi-3.0.9/lib/print.c ****     ps.SetAttr = (INTN (EFIAPI *)(VOID *, UINTN))  Out->SetAttribute;
 786:../Backend/gnu-efi-3.0.9/lib/print.c ****     ps.Attr = Out->Mode->Attribute;
 787:../Backend/gnu-efi-3.0.9/lib/print.c **** 
 788:../Backend/gnu-efi-3.0.9/lib/print.c ****     back = (ps.Attr >> 4) & 0xF;
 789:../Backend/gnu-efi-3.0.9/lib/print.c ****     ps.AttrNorm = EFI_TEXT_ATTR(EFI_LIGHTGRAY, back);
 790:../Backend/gnu-efi-3.0.9/lib/print.c ****     ps.AttrHighlight = EFI_TEXT_ATTR(EFI_WHITE, back);
 791:../Backend/gnu-efi-3.0.9/lib/print.c ****     ps.AttrError = EFI_TEXT_ATTR(EFI_YELLOW, back);
 792:../Backend/gnu-efi-3.0.9/lib/print.c **** 
 793:../Backend/gnu-efi-3.0.9/lib/print.c ****     if (fmt) {
 794:../Backend/gnu-efi-3.0.9/lib/print.c ****         ps.fmt.pw = fmt;
 795:../Backend/gnu-efi-3.0.9/lib/print.c ****     } else {
 796:../Backend/gnu-efi-3.0.9/lib/print.c ****         ps.fmt.Ascii = TRUE;
 797:../Backend/gnu-efi-3.0.9/lib/print.c ****         ps.fmt.pc = fmta;
 798:../Backend/gnu-efi-3.0.9/lib/print.c ****     }
 799:../Backend/gnu-efi-3.0.9/lib/print.c **** 
 800:../Backend/gnu-efi-3.0.9/lib/print.c ****     va_copy(ps.args, args);
 801:../Backend/gnu-efi-3.0.9/lib/print.c **** 
 802:../Backend/gnu-efi-3.0.9/lib/print.c ****     if (Column != (UINTN) -1) {
 803:../Backend/gnu-efi-3.0.9/lib/print.c ****         uefi_call_wrapper(Out->SetCursorPosition, 3, Out, Column, Row);
 804:../Backend/gnu-efi-3.0.9/lib/print.c ****     }
 805:../Backend/gnu-efi-3.0.9/lib/print.c **** 
 806:../Backend/gnu-efi-3.0.9/lib/print.c ****     back = _Print (&ps);
 807:../Backend/gnu-efi-3.0.9/lib/print.c ****     va_end(ps.args);
 808:../Backend/gnu-efi-3.0.9/lib/print.c ****     return back;
 809:../Backend/gnu-efi-3.0.9/lib/print.c **** }
 810:../Backend/gnu-efi-3.0.9/lib/print.c **** 
 811:../Backend/gnu-efi-3.0.9/lib/print.c **** 
 812:../Backend/gnu-efi-3.0.9/lib/print.c **** UINTN
 813:../Backend/gnu-efi-3.0.9/lib/print.c **** APrint (
 814:../Backend/gnu-efi-3.0.9/lib/print.c ****     IN CONST CHAR8    *fmt,
 815:../Backend/gnu-efi-3.0.9/lib/print.c ****     ...
 816:../Backend/gnu-efi-3.0.9/lib/print.c ****     )
 817:../Backend/gnu-efi-3.0.9/lib/print.c **** /*++
 818:../Backend/gnu-efi-3.0.9/lib/print.c **** 
 819:../Backend/gnu-efi-3.0.9/lib/print.c **** Routine Description:
 820:../Backend/gnu-efi-3.0.9/lib/print.c **** 
 821:../Backend/gnu-efi-3.0.9/lib/print.c ****     For those whom really can't deal with unicode, a print
 822:../Backend/gnu-efi-3.0.9/lib/print.c ****     function that takes an ascii format string
 823:../Backend/gnu-efi-3.0.9/lib/print.c **** 
 824:../Backend/gnu-efi-3.0.9/lib/print.c **** Arguments:
 825:../Backend/gnu-efi-3.0.9/lib/print.c **** 
 826:../Backend/gnu-efi-3.0.9/lib/print.c ****     fmt         - ascii format string
 827:../Backend/gnu-efi-3.0.9/lib/print.c **** 
 828:../Backend/gnu-efi-3.0.9/lib/print.c **** Returns:
 829:../Backend/gnu-efi-3.0.9/lib/print.c **** 
 830:../Backend/gnu-efi-3.0.9/lib/print.c ****     Length of string printed to the console
 831:../Backend/gnu-efi-3.0.9/lib/print.c **** 
 832:../Backend/gnu-efi-3.0.9/lib/print.c **** --*/
 833:../Backend/gnu-efi-3.0.9/lib/print.c **** 
 834:../Backend/gnu-efi-3.0.9/lib/print.c **** {
 835:../Backend/gnu-efi-3.0.9/lib/print.c ****     va_list     args;
 836:../Backend/gnu-efi-3.0.9/lib/print.c ****     UINTN       back;
 837:../Backend/gnu-efi-3.0.9/lib/print.c **** 
 838:../Backend/gnu-efi-3.0.9/lib/print.c ****     va_start (args, fmt);
 839:../Backend/gnu-efi-3.0.9/lib/print.c ****     back = _IPrint ((UINTN) -1, (UINTN) -1, ST->ConOut, NULL, fmt, args);
 840:../Backend/gnu-efi-3.0.9/lib/print.c ****     va_end (args);
 841:../Backend/gnu-efi-3.0.9/lib/print.c ****     return back;
 842:../Backend/gnu-efi-3.0.9/lib/print.c **** }
 843:../Backend/gnu-efi-3.0.9/lib/print.c **** 
 844:../Backend/gnu-efi-3.0.9/lib/print.c **** 
 845:../Backend/gnu-efi-3.0.9/lib/print.c **** STATIC
 846:../Backend/gnu-efi-3.0.9/lib/print.c **** VOID
 847:../Backend/gnu-efi-3.0.9/lib/print.c **** PFLUSH (
 848:../Backend/gnu-efi-3.0.9/lib/print.c ****     IN OUT PRINT_STATE     *ps
 849:../Backend/gnu-efi-3.0.9/lib/print.c ****     )
 850:../Backend/gnu-efi-3.0.9/lib/print.c **** {
 533              		.loc 1 850 1 is_stmt 1 view -0
 534              		.cfi_startproc
 535              		.loc 1 850 1 is_stmt 0 view .LVU97
 536 034d F30F1EFA 		endbr64
 537 0351 55       		pushq	%rbp
 538              		.cfi_def_cfa_offset 16
 539              		.cfi_offset 6, -16
 540 0352 53       		pushq	%rbx
 541              		.cfi_def_cfa_offset 24
 542              		.cfi_offset 3, -24
 543 0353 4883EC28 		subq	$40, %rsp
 544              		.cfi_def_cfa_offset 64
 545 0357 4889FB   		movq	%rdi, %rbx
 851:../Backend/gnu-efi-3.0.9/lib/print.c ****     *ps->Pos = 0;
 546              		.loc 1 851 5 is_stmt 1 view .LVU98
 547              		.loc 1 851 8 is_stmt 0 view .LVU99
 548 035a 488B4740 		movq	64(%rdi), %rax
 549              		.loc 1 851 14 view .LVU100
 550 035e 66C70000 		movw	$0, (%rax)
 550      00
 852:../Backend/gnu-efi-3.0.9/lib/print.c ****     if (IsLocalPrint(ps->Output))
 551              		.loc 1 852 5 is_stmt 1 view .LVU101
 552              		.loc 1 852 24 is_stmt 0 view .LVU102
 553 0363 488B6F78 		movq	120(%rdi), %rbp
 554              		.loc 1 852 9 view .LVU103
 555 0367 4889EF   		movq	%rbp, %rdi
 556              	.LVL34:
 557              		.loc 1 852 9 view .LVU104
 558 036a E8000000 		call	IsLocalPrint
 558      00
 559              	.LVL35:
 560              		.loc 1 852 8 discriminator 1 view .LVU105
 561 036f 4885C0   		testq	%rax, %rax
 562 0372 741C     		je	.L23
 853:../Backend/gnu-efi-3.0.9/lib/print.c **** 	ps->Output(ps->Context, ps->Buffer);
 563              		.loc 1 853 2 is_stmt 1 view .LVU106
 564 0374 488B5330 		movq	48(%rbx), %rdx
 565 0378 488B8B88 		movq	136(%rbx), %rcx
 565      000000
 566 037f FFD5     		call	*%rbp
 567              	.LVL36:
 568              	.L24:
 854:../Backend/gnu-efi-3.0.9/lib/print.c ****     else
 855:../Backend/gnu-efi-3.0.9/lib/print.c ****     	uefi_call_wrapper(ps->Output, 2, ps->Context, ps->Buffer);
 856:../Backend/gnu-efi-3.0.9/lib/print.c ****     ps->Pos = ps->Buffer;
 569              		.loc 1 856 5 view .LVU107
 570              		.loc 1 856 17 is_stmt 0 view .LVU108
 571 0381 488B4330 		movq	48(%rbx), %rax
 572              		.loc 1 856 13 view .LVU109
 573 0385 48894340 		movq	%rax, 64(%rbx)
 857:../Backend/gnu-efi-3.0.9/lib/print.c **** }
 574              		.loc 1 857 1 view .LVU110
 575 0389 4883C428 		addq	$40, %rsp
 576              		.cfi_remember_state
 577              		.cfi_def_cfa_offset 24
 578 038d 5B       		popq	%rbx
 579              		.cfi_restore 3
 580              		.cfi_def_cfa_offset 16
 581              	.LVL37:
 582              		.loc 1 857 1 view .LVU111
 583 038e 5D       		popq	%rbp
 584              		.cfi_restore 6
 585              		.cfi_def_cfa_offset 8
 586 038f C3       		ret
 587              	.LVL38:
 588              	.L23:
 589              		.cfi_restore_state
 855:../Backend/gnu-efi-3.0.9/lib/print.c ****     ps->Pos = ps->Buffer;
 590              		.loc 1 855 6 is_stmt 1 view .LVU112
 591 0390 488B5330 		movq	48(%rbx), %rdx
 592 0394 488B8B88 		movq	136(%rbx), %rcx
 592      000000
 593 039b FFD5     		call	*%rbp
 594              	.LVL39:
 595 039d EBE2     		jmp	.L24
 596              		.cfi_endproc
 597              	.LFE18:
 599              		.globl	PSETATTR
 600              		.hidden	PSETATTR
 602              	PSETATTR:
 603              	.LVL40:
 604              	.LFB19:
 858:../Backend/gnu-efi-3.0.9/lib/print.c **** 
 859:../Backend/gnu-efi-3.0.9/lib/print.c **** STATIC
 860:../Backend/gnu-efi-3.0.9/lib/print.c **** VOID
 861:../Backend/gnu-efi-3.0.9/lib/print.c **** PSETATTR (
 862:../Backend/gnu-efi-3.0.9/lib/print.c ****     IN OUT PRINT_STATE  *ps,
 863:../Backend/gnu-efi-3.0.9/lib/print.c ****     IN UINTN             Attr
 864:../Backend/gnu-efi-3.0.9/lib/print.c ****     )
 865:../Backend/gnu-efi-3.0.9/lib/print.c **** {
 605              		.loc 1 865 1 view -0
 606              		.cfi_startproc
 607              		.loc 1 865 1 is_stmt 0 view .LVU114
 608 039f F30F1EFA 		endbr64
 609 03a3 55       		pushq	%rbp
 610              		.cfi_def_cfa_offset 16
 611              		.cfi_offset 6, -16
 612 03a4 53       		pushq	%rbx
 613              		.cfi_def_cfa_offset 24
 614              		.cfi_offset 3, -24
 615 03a5 4883EC28 		subq	$40, %rsp
 616              		.cfi_def_cfa_offset 64
 617 03a9 4889FB   		movq	%rdi, %rbx
 618 03ac 4889F5   		movq	%rsi, %rbp
 866:../Backend/gnu-efi-3.0.9/lib/print.c ****    PFLUSH (ps);
 619              		.loc 1 866 4 is_stmt 1 view .LVU115
 620 03af E8000000 		call	PFLUSH
 620      00
 621              	.LVL41:
 867:../Backend/gnu-efi-3.0.9/lib/print.c **** 
 868:../Backend/gnu-efi-3.0.9/lib/print.c ****    ps->RestoreAttr = ps->Attr;
 622              		.loc 1 868 4 view .LVU116
 623              		.loc 1 868 24 is_stmt 0 view .LVU117
 624 03b4 488B4350 		movq	80(%rbx), %rax
 625              		.loc 1 868 20 view .LVU118
 626 03b8 48894358 		movq	%rax, 88(%rbx)
 869:../Backend/gnu-efi-3.0.9/lib/print.c ****    if (ps->SetAttr) {
 627              		.loc 1 869 4 is_stmt 1 view .LVU119
 628              		.loc 1 869 10 is_stmt 0 view .LVU120
 629 03bc 488B8380 		movq	128(%rbx), %rax
 629      000000
 630              		.loc 1 869 7 view .LVU121
 631 03c3 4885C0   		testq	%rax, %rax
 632 03c6 740C     		je	.L27
 870:../Backend/gnu-efi-3.0.9/lib/print.c **** 	uefi_call_wrapper(ps->SetAttr, 2, ps->Context, Attr);
 633              		.loc 1 870 2 is_stmt 1 view .LVU122
 634 03c8 488B8B88 		movq	136(%rbx), %rcx
 634      000000
 635 03cf 4889EA   		movq	%rbp, %rdx
 636 03d2 FFD0     		call	*%rax
 637              	.LVL42:
 638              	.L27:
 871:../Backend/gnu-efi-3.0.9/lib/print.c ****    }
 872:../Backend/gnu-efi-3.0.9/lib/print.c **** 
 873:../Backend/gnu-efi-3.0.9/lib/print.c ****    ps->Attr = Attr;
 639              		.loc 1 873 4 view .LVU123
 640              		.loc 1 873 13 is_stmt 0 view .LVU124
 641 03d4 48896B50 		movq	%rbp, 80(%rbx)
 874:../Backend/gnu-efi-3.0.9/lib/print.c **** }
 642              		.loc 1 874 1 view .LVU125
 643 03d8 4883C428 		addq	$40, %rsp
 644              		.cfi_def_cfa_offset 24
 645 03dc 5B       		popq	%rbx
 646              		.cfi_restore 3
 647              		.cfi_def_cfa_offset 16
 648              	.LVL43:
 649              		.loc 1 874 1 view .LVU126
 650 03dd 5D       		popq	%rbp
 651              		.cfi_restore 6
 652              		.cfi_def_cfa_offset 8
 653              	.LVL44:
 654              		.loc 1 874 1 view .LVU127
 655 03de C3       		ret
 656              		.cfi_endproc
 657              	.LFE19:
 659              		.globl	PPUTC
 660              		.hidden	PPUTC
 662              	PPUTC:
 663              	.LVL45:
 664              	.LFB20:
 875:../Backend/gnu-efi-3.0.9/lib/print.c **** 
 876:../Backend/gnu-efi-3.0.9/lib/print.c **** STATIC
 877:../Backend/gnu-efi-3.0.9/lib/print.c **** VOID
 878:../Backend/gnu-efi-3.0.9/lib/print.c **** PPUTC (
 879:../Backend/gnu-efi-3.0.9/lib/print.c ****     IN OUT PRINT_STATE     *ps,
 880:../Backend/gnu-efi-3.0.9/lib/print.c ****     IN CHAR16              c
 881:../Backend/gnu-efi-3.0.9/lib/print.c ****     )
 882:../Backend/gnu-efi-3.0.9/lib/print.c **** {
 665              		.loc 1 882 1 is_stmt 1 view -0
 666              		.cfi_startproc
 667              		.loc 1 882 1 is_stmt 0 view .LVU129
 668 03df F30F1EFA 		endbr64
 669 03e3 55       		pushq	%rbp
 670              		.cfi_def_cfa_offset 16
 671              		.cfi_offset 6, -16
 672 03e4 53       		pushq	%rbx
 673              		.cfi_def_cfa_offset 24
 674              		.cfi_offset 3, -24
 675 03e5 4883EC08 		subq	$8, %rsp
 676              		.cfi_def_cfa_offset 32
 677 03e9 4889FB   		movq	%rdi, %rbx
 678 03ec 89F5     		movl	%esi, %ebp
 883:../Backend/gnu-efi-3.0.9/lib/print.c ****     // if this is a newline, add a carraige return
 884:../Backend/gnu-efi-3.0.9/lib/print.c ****     if (c == '\n') {
 679              		.loc 1 884 5 is_stmt 1 view .LVU130
 680              		.loc 1 884 8 is_stmt 0 view .LVU131
 681 03ee 6683FE0A 		cmpw	$10, %si
 682 03f2 742C     		je	.L33
 683              	.LVL46:
 684              	.L30:
 885:../Backend/gnu-efi-3.0.9/lib/print.c ****         PPUTC (ps, '\r');
 886:../Backend/gnu-efi-3.0.9/lib/print.c ****     }
 887:../Backend/gnu-efi-3.0.9/lib/print.c **** 
 888:../Backend/gnu-efi-3.0.9/lib/print.c ****     *ps->Pos = c;
 685              		.loc 1 888 5 is_stmt 1 view .LVU132
 686              		.loc 1 888 8 is_stmt 0 view .LVU133
 687 03f4 488B4340 		movq	64(%rbx), %rax
 688              		.loc 1 888 14 view .LVU134
 689 03f8 668928   		movw	%bp, (%rax)
 889:../Backend/gnu-efi-3.0.9/lib/print.c ****     ps->Pos += 1;
 690              		.loc 1 889 5 is_stmt 1 view .LVU135
 691              		.loc 1 889 13 is_stmt 0 view .LVU136
 692 03fb 488B4340 		movq	64(%rbx), %rax
 693 03ff 4883C002 		addq	$2, %rax
 694 0403 48894340 		movq	%rax, 64(%rbx)
 890:../Backend/gnu-efi-3.0.9/lib/print.c ****     ps->Len += 1;
 695              		.loc 1 890 5 is_stmt 1 view .LVU137
 696              		.loc 1 890 13 is_stmt 0 view .LVU138
 697 0407 488B4B48 		movq	72(%rbx), %rcx
 698 040b 488D5101 		leaq	1(%rcx), %rdx
 699 040f 48895348 		movq	%rdx, 72(%rbx)
 891:../Backend/gnu-efi-3.0.9/lib/print.c **** 
 892:../Backend/gnu-efi-3.0.9/lib/print.c ****     // if at the end of the buffer, flush it
 893:../Backend/gnu-efi-3.0.9/lib/print.c ****     if (ps->Pos >= ps->End) {
 700              		.loc 1 893 5 is_stmt 1 view .LVU139
 701              		.loc 1 893 8 is_stmt 0 view .LVU140
 702 0413 483B4338 		cmpq	56(%rbx), %rax
 703 0417 7313     		jnb	.L34
 704              	.L29:
 894:../Backend/gnu-efi-3.0.9/lib/print.c ****         PFLUSH(ps);
 895:../Backend/gnu-efi-3.0.9/lib/print.c ****     }
 896:../Backend/gnu-efi-3.0.9/lib/print.c **** }
 705              		.loc 1 896 1 view .LVU141
 706 0419 4883C408 		addq	$8, %rsp
 707              		.cfi_remember_state
 708              		.cfi_def_cfa_offset 24
 709 041d 5B       		popq	%rbx
 710              		.cfi_restore 3
 711              		.cfi_def_cfa_offset 16
 712              	.LVL47:
 713              		.loc 1 896 1 view .LVU142
 714 041e 5D       		popq	%rbp
 715              		.cfi_restore 6
 716              		.cfi_def_cfa_offset 8
 717              	.LVL48:
 718              		.loc 1 896 1 view .LVU143
 719 041f C3       		ret
 720              	.LVL49:
 721              	.L33:
 722              		.cfi_restore_state
 885:../Backend/gnu-efi-3.0.9/lib/print.c ****     }
 723              		.loc 1 885 9 is_stmt 1 view .LVU144
 724 0420 BE0D0000 		movl	$13, %esi
 724      00
 725              	.LVL50:
 885:../Backend/gnu-efi-3.0.9/lib/print.c ****     }
 726              		.loc 1 885 9 is_stmt 0 view .LVU145
 727 0425 E8000000 		call	PPUTC
 727      00
 728              	.LVL51:
 729 042a EBC8     		jmp	.L30
 730              	.L34:
 894:../Backend/gnu-efi-3.0.9/lib/print.c ****         PFLUSH(ps);
 731              		.loc 1 894 9 is_stmt 1 view .LVU146
 732 042c 4889DF   		movq	%rbx, %rdi
 733 042f E8000000 		call	PFLUSH
 733      00
 734              	.LVL52:
 735              		.loc 1 896 1 is_stmt 0 view .LVU147
 736 0434 EBE3     		jmp	.L29
 737              		.cfi_endproc
 738              	.LFE20:
 740              		.globl	PGETC
 741              		.hidden	PGETC
 743              	PGETC:
 744              	.LVL53:
 745              	.LFB21:
 897:../Backend/gnu-efi-3.0.9/lib/print.c **** 
 898:../Backend/gnu-efi-3.0.9/lib/print.c **** 
 899:../Backend/gnu-efi-3.0.9/lib/print.c **** STATIC
 900:../Backend/gnu-efi-3.0.9/lib/print.c **** CHAR16
 901:../Backend/gnu-efi-3.0.9/lib/print.c **** PGETC (
 902:../Backend/gnu-efi-3.0.9/lib/print.c ****     IN POINTER      *p
 903:../Backend/gnu-efi-3.0.9/lib/print.c ****     )
 904:../Backend/gnu-efi-3.0.9/lib/print.c **** {
 746              		.loc 1 904 1 is_stmt 1 view -0
 747              		.cfi_startproc
 748              		.loc 1 904 1 is_stmt 0 view .LVU149
 749 0436 F30F1EFA 		endbr64
 905:../Backend/gnu-efi-3.0.9/lib/print.c ****     CHAR16      c;
 750              		.loc 1 905 5 is_stmt 1 view .LVU150
 906:../Backend/gnu-efi-3.0.9/lib/print.c **** 
 907:../Backend/gnu-efi-3.0.9/lib/print.c ****     c = p->Ascii ? p->pc[p->Index] : p->pw[p->Index];
 751              		.loc 1 907 5 view .LVU151
 752              		.loc 1 907 7 is_stmt 0 view .LVU152
 753 043a 803F00   		cmpb	$0, (%rdi)
 754 043d 741B     		je	.L36
 755              		.loc 1 907 23 discriminator 1 view .LVU153
 756 043f 488B5710 		movq	16(%rdi), %rdx
 757              		.loc 1 907 27 discriminator 1 view .LVU154
 758 0443 488B4708 		movq	8(%rdi), %rax
 759              		.loc 1 907 7 discriminator 1 view .LVU155
 760 0447 0FB61402 		movzbl	(%rdx,%rax), %edx
 761              	.L37:
 762              	.LVL54:
 908:../Backend/gnu-efi-3.0.9/lib/print.c ****     p->Index += 1;
 763              		.loc 1 908 5 is_stmt 1 view .LVU156
 764              		.loc 1 908 14 is_stmt 0 view .LVU157
 765 044b 488B4708 		movq	8(%rdi), %rax
 766 044f 4883C001 		addq	$1, %rax
 767 0453 48894708 		movq	%rax, 8(%rdi)
 909:../Backend/gnu-efi-3.0.9/lib/print.c **** 
 910:../Backend/gnu-efi-3.0.9/lib/print.c ****     return  c;
 768              		.loc 1 910 5 is_stmt 1 view .LVU158
 911:../Backend/gnu-efi-3.0.9/lib/print.c **** }
 769              		.loc 1 911 1 is_stmt 0 view .LVU159
 770 0457 89D0     		movl	%edx, %eax
 771 0459 C3       		ret
 772              	.LVL55:
 773              	.L36:
 907:../Backend/gnu-efi-3.0.9/lib/print.c ****     p->Index += 1;
 774              		.loc 1 907 43 discriminator 2 view .LVU160
 775 045a 488B4708 		movq	8(%rdi), %rax
 776 045e 4801C0   		addq	%rax, %rax
 777 0461 48034710 		addq	16(%rdi), %rax
 907:../Backend/gnu-efi-3.0.9/lib/print.c ****     p->Index += 1;
 778              		.loc 1 907 7 discriminator 2 view .LVU161
 779 0465 0FB710   		movzwl	(%rax), %edx
 780 0468 EBE1     		jmp	.L37
 781              		.cfi_endproc
 782              	.LFE21:
 784              		.globl	PITEM
 785              		.hidden	PITEM
 787              	PITEM:
 788              	.LVL56:
 789              	.LFB22:
 912:../Backend/gnu-efi-3.0.9/lib/print.c **** 
 913:../Backend/gnu-efi-3.0.9/lib/print.c **** 
 914:../Backend/gnu-efi-3.0.9/lib/print.c **** STATIC
 915:../Backend/gnu-efi-3.0.9/lib/print.c **** VOID
 916:../Backend/gnu-efi-3.0.9/lib/print.c **** PITEM (
 917:../Backend/gnu-efi-3.0.9/lib/print.c ****     IN OUT PRINT_STATE  *ps
 918:../Backend/gnu-efi-3.0.9/lib/print.c ****     )
 919:../Backend/gnu-efi-3.0.9/lib/print.c **** {
 790              		.loc 1 919 1 is_stmt 1 view -0
 791              		.cfi_startproc
 792              		.loc 1 919 1 is_stmt 0 view .LVU163
 793 046a F30F1EFA 		endbr64
 794 046e 4155     		pushq	%r13
 795              		.cfi_def_cfa_offset 16
 796              		.cfi_offset 13, -16
 797 0470 4154     		pushq	%r12
 798              		.cfi_def_cfa_offset 24
 799              		.cfi_offset 12, -24
 800 0472 55       		pushq	%rbp
 801              		.cfi_def_cfa_offset 32
 802              		.cfi_offset 6, -32
 803 0473 53       		pushq	%rbx
 804              		.cfi_def_cfa_offset 40
 805              		.cfi_offset 3, -40
 806 0474 4883EC08 		subq	$8, %rsp
 807              		.cfi_def_cfa_offset 48
 808 0478 4889FD   		movq	%rdi, %rbp
 920:../Backend/gnu-efi-3.0.9/lib/print.c ****     UINTN               Len, i;
 809              		.loc 1 920 5 is_stmt 1 view .LVU164
 921:../Backend/gnu-efi-3.0.9/lib/print.c ****     PRINT_ITEM          *Item;
 810              		.loc 1 921 5 view .LVU165
 922:../Backend/gnu-efi-3.0.9/lib/print.c ****     CHAR16              c;
 811              		.loc 1 922 5 view .LVU166
 923:../Backend/gnu-efi-3.0.9/lib/print.c **** 
 924:../Backend/gnu-efi-3.0.9/lib/print.c ****     // Get the length of the item
 925:../Backend/gnu-efi-3.0.9/lib/print.c ****     Item = ps->Item;
 812              		.loc 1 925 5 view .LVU167
 813              		.loc 1 925 10 is_stmt 0 view .LVU168
 814 047b 488B9F90 		movq	144(%rdi), %rbx
 814      000000
 815              	.LVL57:
 926:../Backend/gnu-efi-3.0.9/lib/print.c ****     Item->Item.Index = 0;
 816              		.loc 1 926 5 is_stmt 1 view .LVU169
 817              		.loc 1 926 22 is_stmt 0 view .LVU170
 818 0482 48C74308 		movq	$0, 8(%rbx)
 818      00000000 
 927:../Backend/gnu-efi-3.0.9/lib/print.c ****     while (Item->Item.Index < Item->FieldWidth) {
 819              		.loc 1 927 5 is_stmt 1 view .LVU171
 820              	.LVL58:
 821              	.L39:
 822              		.loc 1 927 29 view .LVU172
 823 048a 488B83E8 		movq	232(%rbx), %rax
 823      000000
 824 0491 48394308 		cmpq	%rax, 8(%rbx)
 825 0495 7319     		jnb	.L40
 928:../Backend/gnu-efi-3.0.9/lib/print.c ****         c = PGETC(&Item->Item);
 826              		.loc 1 928 9 view .LVU173
 827              		.loc 1 928 13 is_stmt 0 view .LVU174
 828 0497 4889DF   		movq	%rbx, %rdi
 829 049a E8000000 		call	PGETC
 829      00
 830              	.LVL59:
 929:../Backend/gnu-efi-3.0.9/lib/print.c ****         if (!c) {
 831              		.loc 1 929 9 is_stmt 1 view .LVU175
 832              		.loc 1 929 12 is_stmt 0 view .LVU176
 833 049f 6685C0   		testw	%ax, %ax
 834 04a2 75E6     		jne	.L39
 930:../Backend/gnu-efi-3.0.9/lib/print.c ****             Item->Item.Index -= 1;
 835              		.loc 1 930 13 is_stmt 1 view .LVU177
 836              		.loc 1 930 30 is_stmt 0 view .LVU178
 837 04a4 488B4308 		movq	8(%rbx), %rax
 838              	.LVL60:
 839              		.loc 1 930 30 view .LVU179
 840 04a8 4883E801 		subq	$1, %rax
 841 04ac 48894308 		movq	%rax, 8(%rbx)
 931:../Backend/gnu-efi-3.0.9/lib/print.c ****             break;
 842              		.loc 1 931 13 is_stmt 1 view .LVU180
 843              	.LVL61:
 844              	.L40:
 932:../Backend/gnu-efi-3.0.9/lib/print.c ****         }
 933:../Backend/gnu-efi-3.0.9/lib/print.c ****     }
 934:../Backend/gnu-efi-3.0.9/lib/print.c ****     Len = Item->Item.Index;
 845              		.loc 1 934 5 view .LVU181
 846              		.loc 1 934 9 is_stmt 0 view .LVU182
 847 04b0 4C8B6B08 		movq	8(%rbx), %r13
 848              	.LVL62:
 935:../Backend/gnu-efi-3.0.9/lib/print.c **** 
 936:../Backend/gnu-efi-3.0.9/lib/print.c ****     // if there is no item field width, use the items width
 937:../Backend/gnu-efi-3.0.9/lib/print.c ****     if (Item->FieldWidth == (UINTN) -1) {
 849              		.loc 1 937 5 is_stmt 1 view .LVU183
 850              		.loc 1 937 8 is_stmt 0 view .LVU184
 851 04b4 4883BBE8 		cmpq	$-1, 232(%rbx)
 851      000000FF 
 852 04bc 7422     		je	.L55
 853              	.L42:
 938:../Backend/gnu-efi-3.0.9/lib/print.c ****         Item->FieldWidth = Len;
 939:../Backend/gnu-efi-3.0.9/lib/print.c ****     }
 940:../Backend/gnu-efi-3.0.9/lib/print.c **** 
 941:../Backend/gnu-efi-3.0.9/lib/print.c ****     // if item is larger then width, update width
 942:../Backend/gnu-efi-3.0.9/lib/print.c ****     if (Len > Item->Width) {
 854              		.loc 1 942 5 is_stmt 1 view .LVU185
 855              		.loc 1 942 8 is_stmt 0 view .LVU186
 856 04be 4C39ABE0 		cmpq	%r13, 224(%rbx)
 856      000000
 857 04c5 7307     		jnb	.L43
 943:../Backend/gnu-efi-3.0.9/lib/print.c ****         Item->Width = Len;
 858              		.loc 1 943 9 is_stmt 1 view .LVU187
 859              		.loc 1 943 21 is_stmt 0 view .LVU188
 860 04c7 4C89ABE0 		movq	%r13, 224(%rbx)
 860      000000
 861              	.L43:
 944:../Backend/gnu-efi-3.0.9/lib/print.c ****     }
 945:../Backend/gnu-efi-3.0.9/lib/print.c **** 
 946:../Backend/gnu-efi-3.0.9/lib/print.c **** 
 947:../Backend/gnu-efi-3.0.9/lib/print.c ****     // if pad field before, add pad char
 948:../Backend/gnu-efi-3.0.9/lib/print.c ****     if (Item->PadBefore) {
 862              		.loc 1 948 5 is_stmt 1 view .LVU189
 863              		.loc 1 948 8 is_stmt 0 view .LVU190
 864 04ce 80BBFA00 		cmpb	$0, 250(%rbx)
 864      000000
 865 04d5 742C     		je	.L44
 949:../Backend/gnu-efi-3.0.9/lib/print.c ****         for (i=Item->Width; i < Item->FieldWidth; i+=1) {
 866              		.loc 1 949 9 is_stmt 1 view .LVU191
 867              		.loc 1 949 15 is_stmt 0 view .LVU192
 868 04d7 4C8BA3E0 		movq	224(%rbx), %r12
 868      000000
 869              	.LVL63:
 870              		.loc 1 949 9 view .LVU193
 871 04de EB1A     		jmp	.L45
 872              	.LVL64:
 873              	.L55:
 938:../Backend/gnu-efi-3.0.9/lib/print.c ****     }
 874              		.loc 1 938 9 is_stmt 1 view .LVU194
 938:../Backend/gnu-efi-3.0.9/lib/print.c ****     }
 875              		.loc 1 938 26 is_stmt 0 view .LVU195
 876 04e0 4C89ABE8 		movq	%r13, 232(%rbx)
 876      000000
 877 04e7 EBD5     		jmp	.L42
 878              	.LVL65:
 879              	.L46:
 950:../Backend/gnu-efi-3.0.9/lib/print.c ****             PPUTC (ps, ' ');
 880              		.loc 1 950 13 is_stmt 1 view .LVU196
 881 04e9 BE200000 		movl	$32, %esi
 881      00
 882 04ee 4889EF   		movq	%rbp, %rdi
 883 04f1 E8000000 		call	PPUTC
 883      00
 884              	.LVL66:
 949:../Backend/gnu-efi-3.0.9/lib/print.c ****         for (i=Item->Width; i < Item->FieldWidth; i+=1) {
 885              		.loc 1 949 52 discriminator 3 view .LVU197
 886 04f6 4983C401 		addq	$1, %r12
 887              	.LVL67:
 888              	.L45:
 949:../Backend/gnu-efi-3.0.9/lib/print.c ****         for (i=Item->Width; i < Item->FieldWidth; i+=1) {
 889              		.loc 1 949 31 discriminator 1 view .LVU198
 890 04fa 4C3BA3E8 		cmpq	232(%rbx), %r12
 890      000000
 891 0501 72E6     		jb	.L46
 892              	.LVL68:
 893              	.L44:
 919:../Backend/gnu-efi-3.0.9/lib/print.c ****     UINTN               Len, i;
 894              		.loc 1 919 1 is_stmt 0 view .LVU199
 895 0503 4D89EC   		movq	%r13, %r12
 896              	.L47:
 897              	.LVL69:
 951:../Backend/gnu-efi-3.0.9/lib/print.c ****         }
 952:../Backend/gnu-efi-3.0.9/lib/print.c ****     }
 953:../Backend/gnu-efi-3.0.9/lib/print.c **** 
 954:../Backend/gnu-efi-3.0.9/lib/print.c ****     // pad item
 955:../Backend/gnu-efi-3.0.9/lib/print.c ****     for (i=Len; i < Item->Width; i++) {
 898              		.loc 1 955 19 is_stmt 1 discriminator 1 view .LVU200
 899 0506 4C3BA3E0 		cmpq	224(%rbx), %r12
 899      000000
 900 050d 7315     		jnb	.L56
 956:../Backend/gnu-efi-3.0.9/lib/print.c ****         PPUTC (ps, Item->Pad);
 901              		.loc 1 956 9 view .LVU201
 902 050f 0FB7B3F8 		movzwl	248(%rbx), %esi
 902      000000
 903 0516 4889EF   		movq	%rbp, %rdi
 904 0519 E8000000 		call	PPUTC
 904      00
 905              	.LVL70:
 955:../Backend/gnu-efi-3.0.9/lib/print.c ****         PPUTC (ps, Item->Pad);
 906              		.loc 1 955 35 discriminator 3 view .LVU202
 907 051e 4983C401 		addq	$1, %r12
 908              	.LVL71:
 955:../Backend/gnu-efi-3.0.9/lib/print.c ****         PPUTC (ps, Item->Pad);
 909              		.loc 1 955 35 is_stmt 0 discriminator 3 view .LVU203
 910 0522 EBE2     		jmp	.L47
 911              	.L56:
 957:../Backend/gnu-efi-3.0.9/lib/print.c ****     }
 958:../Backend/gnu-efi-3.0.9/lib/print.c **** 
 959:../Backend/gnu-efi-3.0.9/lib/print.c ****     // add the item
 960:../Backend/gnu-efi-3.0.9/lib/print.c ****     Item->Item.Index=0;
 912              		.loc 1 960 5 is_stmt 1 view .LVU204
 913              		.loc 1 960 21 is_stmt 0 view .LVU205
 914 0524 48C74308 		movq	$0, 8(%rbx)
 914      00000000 
 961:../Backend/gnu-efi-3.0.9/lib/print.c ****     while (Item->Item.Index < Len) {
 915              		.loc 1 961 5 is_stmt 1 view .LVU206
 916              	.L49:
 917              		.loc 1 961 29 view .LVU207
 918 052c 4C396B08 		cmpq	%r13, 8(%rbx)
 919 0530 7315     		jnb	.L57
 962:../Backend/gnu-efi-3.0.9/lib/print.c ****         PPUTC (ps, PGETC(&Item->Item));
 920              		.loc 1 962 9 view .LVU208
 921              		.loc 1 962 20 is_stmt 0 view .LVU209
 922 0532 4889DF   		movq	%rbx, %rdi
 923 0535 E8000000 		call	PGETC
 923      00
 924              	.LVL72:
 925              		.loc 1 962 9 discriminator 1 view .LVU210
 926 053a 0FB7F0   		movzwl	%ax, %esi
 927 053d 4889EF   		movq	%rbp, %rdi
 928 0540 E8000000 		call	PPUTC
 928      00
 929              	.LVL73:
 930 0545 EBE5     		jmp	.L49
 931              	.L57:
 963:../Backend/gnu-efi-3.0.9/lib/print.c ****     }
 964:../Backend/gnu-efi-3.0.9/lib/print.c **** 
 965:../Backend/gnu-efi-3.0.9/lib/print.c ****     // If pad at the end, add pad char
 966:../Backend/gnu-efi-3.0.9/lib/print.c ****     if (!Item->PadBefore) {
 932              		.loc 1 966 5 is_stmt 1 view .LVU211
 933              		.loc 1 966 8 is_stmt 0 view .LVU212
 934 0547 80BBFA00 		cmpb	$0, 250(%rbx)
 934      000000
 935 054e 7523     		jne	.L38
 967:../Backend/gnu-efi-3.0.9/lib/print.c ****         for (i=Item->Width; i < Item->FieldWidth; i+=1) {
 936              		.loc 1 967 9 is_stmt 1 view .LVU213
 937              		.loc 1 967 15 is_stmt 0 view .LVU214
 938 0550 4C8BA3E0 		movq	224(%rbx), %r12
 938      000000
 939              	.LVL74:
 940              		.loc 1 967 9 view .LVU215
 941 0557 EB11     		jmp	.L52
 942              	.L53:
 968:../Backend/gnu-efi-3.0.9/lib/print.c ****             PPUTC (ps, ' ');
 943              		.loc 1 968 13 is_stmt 1 view .LVU216
 944 0559 BE200000 		movl	$32, %esi
 944      00
 945 055e 4889EF   		movq	%rbp, %rdi
 946 0561 E8000000 		call	PPUTC
 946      00
 947              	.LVL75:
 967:../Backend/gnu-efi-3.0.9/lib/print.c ****         for (i=Item->Width; i < Item->FieldWidth; i+=1) {
 948              		.loc 1 967 52 discriminator 3 view .LVU217
 949 0566 4983C401 		addq	$1, %r12
 950              	.LVL76:
 951              	.L52:
 967:../Backend/gnu-efi-3.0.9/lib/print.c ****         for (i=Item->Width; i < Item->FieldWidth; i+=1) {
 952              		.loc 1 967 31 discriminator 1 view .LVU218
 953 056a 4C3BA3E8 		cmpq	232(%rbx), %r12
 953      000000
 954 0571 72E6     		jb	.L53
 955              	.L38:
 969:../Backend/gnu-efi-3.0.9/lib/print.c ****         }
 970:../Backend/gnu-efi-3.0.9/lib/print.c ****     }
 971:../Backend/gnu-efi-3.0.9/lib/print.c **** }
 956              		.loc 1 971 1 is_stmt 0 view .LVU219
 957 0573 4883C408 		addq	$8, %rsp
 958              		.cfi_def_cfa_offset 40
 959 0577 5B       		popq	%rbx
 960              		.cfi_restore 3
 961              		.cfi_def_cfa_offset 32
 962              	.LVL77:
 963              		.loc 1 971 1 view .LVU220
 964 0578 5D       		popq	%rbp
 965              		.cfi_restore 6
 966              		.cfi_def_cfa_offset 24
 967              	.LVL78:
 968              		.loc 1 971 1 view .LVU221
 969 0579 415C     		popq	%r12
 970              		.cfi_restore 12
 971              		.cfi_def_cfa_offset 16
 972              	.LVL79:
 973              		.loc 1 971 1 view .LVU222
 974 057b 415D     		popq	%r13
 975              		.cfi_restore 13
 976              		.cfi_def_cfa_offset 8
 977              	.LVL80:
 978              		.loc 1 971 1 view .LVU223
 979 057d C3       		ret
 980              		.cfi_endproc
 981              	.LFE22:
 983              		.globl	ValueToHex
 984              		.hidden	ValueToHex
 986              	ValueToHex:
 987              	.LVL81:
 988              	.LFB24:
 972:../Backend/gnu-efi-3.0.9/lib/print.c **** 
 973:../Backend/gnu-efi-3.0.9/lib/print.c **** 
 974:../Backend/gnu-efi-3.0.9/lib/print.c **** STATIC
 975:../Backend/gnu-efi-3.0.9/lib/print.c **** UINTN
 976:../Backend/gnu-efi-3.0.9/lib/print.c **** _Print (
 977:../Backend/gnu-efi-3.0.9/lib/print.c ****     IN PRINT_STATE     *ps
 978:../Backend/gnu-efi-3.0.9/lib/print.c ****     )
 979:../Backend/gnu-efi-3.0.9/lib/print.c **** /*++
 980:../Backend/gnu-efi-3.0.9/lib/print.c **** 
 981:../Backend/gnu-efi-3.0.9/lib/print.c **** Routine Description:
 982:../Backend/gnu-efi-3.0.9/lib/print.c **** 
 983:../Backend/gnu-efi-3.0.9/lib/print.c ****     %w.lF   -   w = width
 984:../Backend/gnu-efi-3.0.9/lib/print.c ****                 l = field width
 985:../Backend/gnu-efi-3.0.9/lib/print.c ****                 F = format of arg
 986:../Backend/gnu-efi-3.0.9/lib/print.c **** 
 987:../Backend/gnu-efi-3.0.9/lib/print.c ****   Args F:
 988:../Backend/gnu-efi-3.0.9/lib/print.c ****     0       -   pad with zeros
 989:../Backend/gnu-efi-3.0.9/lib/print.c ****     -       -   justify on left (default is on right)
 990:../Backend/gnu-efi-3.0.9/lib/print.c ****     ,       -   add comma's to field
 991:../Backend/gnu-efi-3.0.9/lib/print.c ****     *       -   width provided on stack
 992:../Backend/gnu-efi-3.0.9/lib/print.c ****     n       -   Set output attribute to normal (for this field only)
 993:../Backend/gnu-efi-3.0.9/lib/print.c ****     h       -   Set output attribute to highlight (for this field only)
 994:../Backend/gnu-efi-3.0.9/lib/print.c ****     e       -   Set output attribute to error (for this field only)
 995:../Backend/gnu-efi-3.0.9/lib/print.c ****     l       -   Value is 64 bits
 996:../Backend/gnu-efi-3.0.9/lib/print.c **** 
 997:../Backend/gnu-efi-3.0.9/lib/print.c ****     a       -   ascii string
 998:../Backend/gnu-efi-3.0.9/lib/print.c ****     s       -   unicode string
 999:../Backend/gnu-efi-3.0.9/lib/print.c ****     X       -   fixed 8 byte value in hex
1000:../Backend/gnu-efi-3.0.9/lib/print.c ****     x       -   hex value
1001:../Backend/gnu-efi-3.0.9/lib/print.c ****     d       -   value as signed decimal
1002:../Backend/gnu-efi-3.0.9/lib/print.c ****     u       -   value as unsigned decimal
1003:../Backend/gnu-efi-3.0.9/lib/print.c ****     f       -   value as floating point
1004:../Backend/gnu-efi-3.0.9/lib/print.c ****     c       -   Unicode char
1005:../Backend/gnu-efi-3.0.9/lib/print.c ****     t       -   EFI time structure
1006:../Backend/gnu-efi-3.0.9/lib/print.c ****     g       -   Pointer to GUID
1007:../Backend/gnu-efi-3.0.9/lib/print.c ****     r       -   EFI status code (result code)
1008:../Backend/gnu-efi-3.0.9/lib/print.c ****     D       -   pointer to Device Path with normal ending.
1009:../Backend/gnu-efi-3.0.9/lib/print.c **** 
1010:../Backend/gnu-efi-3.0.9/lib/print.c ****     N       -   Set output attribute to normal
1011:../Backend/gnu-efi-3.0.9/lib/print.c ****     H       -   Set output attribute to highlight
1012:../Backend/gnu-efi-3.0.9/lib/print.c ****     E       -   Set output attribute to error
1013:../Backend/gnu-efi-3.0.9/lib/print.c ****     %       -   Print a %
1014:../Backend/gnu-efi-3.0.9/lib/print.c **** 
1015:../Backend/gnu-efi-3.0.9/lib/print.c **** Arguments:
1016:../Backend/gnu-efi-3.0.9/lib/print.c **** 
1017:../Backend/gnu-efi-3.0.9/lib/print.c ****     SystemTable     - The system table
1018:../Backend/gnu-efi-3.0.9/lib/print.c **** 
1019:../Backend/gnu-efi-3.0.9/lib/print.c **** Returns:
1020:../Backend/gnu-efi-3.0.9/lib/print.c **** 
1021:../Backend/gnu-efi-3.0.9/lib/print.c ****     Number of charactors written
1022:../Backend/gnu-efi-3.0.9/lib/print.c **** 
1023:../Backend/gnu-efi-3.0.9/lib/print.c **** --*/
1024:../Backend/gnu-efi-3.0.9/lib/print.c **** {
1025:../Backend/gnu-efi-3.0.9/lib/print.c ****     CHAR16          c;
1026:../Backend/gnu-efi-3.0.9/lib/print.c ****     UINTN           Attr;
1027:../Backend/gnu-efi-3.0.9/lib/print.c ****     PRINT_ITEM      Item;
1028:../Backend/gnu-efi-3.0.9/lib/print.c ****     CHAR16          Buffer[PRINT_STRING_LEN];
1029:../Backend/gnu-efi-3.0.9/lib/print.c **** 
1030:../Backend/gnu-efi-3.0.9/lib/print.c ****     ps->Len = 0;
1031:../Backend/gnu-efi-3.0.9/lib/print.c ****     ps->Buffer = Buffer;
1032:../Backend/gnu-efi-3.0.9/lib/print.c ****     ps->Pos = Buffer;
1033:../Backend/gnu-efi-3.0.9/lib/print.c ****     ps->End = Buffer + PRINT_STRING_LEN - 1;
1034:../Backend/gnu-efi-3.0.9/lib/print.c ****     ps->Item = &Item;
1035:../Backend/gnu-efi-3.0.9/lib/print.c **** 
1036:../Backend/gnu-efi-3.0.9/lib/print.c ****     ps->fmt.Index = 0;
1037:../Backend/gnu-efi-3.0.9/lib/print.c ****     while ((c = PGETC(&ps->fmt))) {
1038:../Backend/gnu-efi-3.0.9/lib/print.c **** 
1039:../Backend/gnu-efi-3.0.9/lib/print.c ****         if (c != '%') {
1040:../Backend/gnu-efi-3.0.9/lib/print.c ****             PPUTC ( ps, c );
1041:../Backend/gnu-efi-3.0.9/lib/print.c ****             continue;
1042:../Backend/gnu-efi-3.0.9/lib/print.c ****         }
1043:../Backend/gnu-efi-3.0.9/lib/print.c **** 
1044:../Backend/gnu-efi-3.0.9/lib/print.c ****         // setup for new item
1045:../Backend/gnu-efi-3.0.9/lib/print.c ****         Item.FieldWidth = (UINTN) -1;
1046:../Backend/gnu-efi-3.0.9/lib/print.c ****         Item.Width = 0;
1047:../Backend/gnu-efi-3.0.9/lib/print.c ****         Item.WidthParse = &Item.Width;
1048:../Backend/gnu-efi-3.0.9/lib/print.c ****         Item.Pad = ' ';
1049:../Backend/gnu-efi-3.0.9/lib/print.c ****         Item.PadBefore = TRUE;
1050:../Backend/gnu-efi-3.0.9/lib/print.c ****         Item.Comma = FALSE;
1051:../Backend/gnu-efi-3.0.9/lib/print.c ****         Item.Long = FALSE;
1052:../Backend/gnu-efi-3.0.9/lib/print.c ****         Item.Item.Ascii = FALSE;
1053:../Backend/gnu-efi-3.0.9/lib/print.c ****         Item.Item.pw = NULL;
1054:../Backend/gnu-efi-3.0.9/lib/print.c ****         ps->RestoreAttr = 0;
1055:../Backend/gnu-efi-3.0.9/lib/print.c ****         Attr = 0;
1056:../Backend/gnu-efi-3.0.9/lib/print.c **** 
1057:../Backend/gnu-efi-3.0.9/lib/print.c ****         while ((c = PGETC(&ps->fmt))) {
1058:../Backend/gnu-efi-3.0.9/lib/print.c **** 
1059:../Backend/gnu-efi-3.0.9/lib/print.c ****             switch (c) {
1060:../Backend/gnu-efi-3.0.9/lib/print.c **** 
1061:../Backend/gnu-efi-3.0.9/lib/print.c ****             case '%':
1062:../Backend/gnu-efi-3.0.9/lib/print.c ****                 //
1063:../Backend/gnu-efi-3.0.9/lib/print.c ****                 // %% -> %
1064:../Backend/gnu-efi-3.0.9/lib/print.c ****                 //
1065:../Backend/gnu-efi-3.0.9/lib/print.c ****                 Item.Scratch[0] = '%';
1066:../Backend/gnu-efi-3.0.9/lib/print.c ****                 Item.Scratch[1] = 0;
1067:../Backend/gnu-efi-3.0.9/lib/print.c ****                 Item.Item.pw = Item.Scratch;
1068:../Backend/gnu-efi-3.0.9/lib/print.c ****                 break;
1069:../Backend/gnu-efi-3.0.9/lib/print.c **** 
1070:../Backend/gnu-efi-3.0.9/lib/print.c ****             case '0':
1071:../Backend/gnu-efi-3.0.9/lib/print.c ****                 Item.Pad = '0';
1072:../Backend/gnu-efi-3.0.9/lib/print.c ****                 break;
1073:../Backend/gnu-efi-3.0.9/lib/print.c **** 
1074:../Backend/gnu-efi-3.0.9/lib/print.c ****             case '-':
1075:../Backend/gnu-efi-3.0.9/lib/print.c ****                 Item.PadBefore = FALSE;
1076:../Backend/gnu-efi-3.0.9/lib/print.c ****                 break;
1077:../Backend/gnu-efi-3.0.9/lib/print.c **** 
1078:../Backend/gnu-efi-3.0.9/lib/print.c ****             case ',':
1079:../Backend/gnu-efi-3.0.9/lib/print.c ****                 Item.Comma = TRUE;
1080:../Backend/gnu-efi-3.0.9/lib/print.c ****                 break;
1081:../Backend/gnu-efi-3.0.9/lib/print.c **** 
1082:../Backend/gnu-efi-3.0.9/lib/print.c ****             case '.':
1083:../Backend/gnu-efi-3.0.9/lib/print.c ****                 Item.WidthParse = &Item.FieldWidth;
1084:../Backend/gnu-efi-3.0.9/lib/print.c ****                 break;
1085:../Backend/gnu-efi-3.0.9/lib/print.c **** 
1086:../Backend/gnu-efi-3.0.9/lib/print.c ****             case '*':
1087:../Backend/gnu-efi-3.0.9/lib/print.c ****                 *Item.WidthParse = va_arg(ps->args, UINTN);
1088:../Backend/gnu-efi-3.0.9/lib/print.c ****                 break;
1089:../Backend/gnu-efi-3.0.9/lib/print.c **** 
1090:../Backend/gnu-efi-3.0.9/lib/print.c ****             case '1':
1091:../Backend/gnu-efi-3.0.9/lib/print.c ****             case '2':
1092:../Backend/gnu-efi-3.0.9/lib/print.c ****             case '3':
1093:../Backend/gnu-efi-3.0.9/lib/print.c ****             case '4':
1094:../Backend/gnu-efi-3.0.9/lib/print.c ****             case '5':
1095:../Backend/gnu-efi-3.0.9/lib/print.c ****             case '6':
1096:../Backend/gnu-efi-3.0.9/lib/print.c ****             case '7':
1097:../Backend/gnu-efi-3.0.9/lib/print.c ****             case '8':
1098:../Backend/gnu-efi-3.0.9/lib/print.c ****             case '9':
1099:../Backend/gnu-efi-3.0.9/lib/print.c ****                 *Item.WidthParse = 0;
1100:../Backend/gnu-efi-3.0.9/lib/print.c ****                 do {
1101:../Backend/gnu-efi-3.0.9/lib/print.c ****                     *Item.WidthParse = *Item.WidthParse * 10 + c - '0';
1102:../Backend/gnu-efi-3.0.9/lib/print.c ****                     c = PGETC(&ps->fmt);
1103:../Backend/gnu-efi-3.0.9/lib/print.c ****                 } while (c >= '0'  &&  c <= '9') ;
1104:../Backend/gnu-efi-3.0.9/lib/print.c ****                 ps->fmt.Index -= 1;
1105:../Backend/gnu-efi-3.0.9/lib/print.c ****                 break;
1106:../Backend/gnu-efi-3.0.9/lib/print.c **** 
1107:../Backend/gnu-efi-3.0.9/lib/print.c ****             case 'a':
1108:../Backend/gnu-efi-3.0.9/lib/print.c ****                 Item.Item.pc = va_arg(ps->args, CHAR8 *);
1109:../Backend/gnu-efi-3.0.9/lib/print.c ****                 Item.Item.Ascii = TRUE;
1110:../Backend/gnu-efi-3.0.9/lib/print.c ****                 if (!Item.Item.pc) {
1111:../Backend/gnu-efi-3.0.9/lib/print.c ****                     Item.Item.pc = (CHAR8 *)"(null)";
1112:../Backend/gnu-efi-3.0.9/lib/print.c ****                 }
1113:../Backend/gnu-efi-3.0.9/lib/print.c ****                 break;
1114:../Backend/gnu-efi-3.0.9/lib/print.c **** 
1115:../Backend/gnu-efi-3.0.9/lib/print.c ****             case 's':
1116:../Backend/gnu-efi-3.0.9/lib/print.c ****                 Item.Item.pw = va_arg(ps->args, CHAR16 *);
1117:../Backend/gnu-efi-3.0.9/lib/print.c ****                 if (!Item.Item.pw) {
1118:../Backend/gnu-efi-3.0.9/lib/print.c ****                     Item.Item.pw = L"(null)";
1119:../Backend/gnu-efi-3.0.9/lib/print.c ****                 }
1120:../Backend/gnu-efi-3.0.9/lib/print.c ****                 break;
1121:../Backend/gnu-efi-3.0.9/lib/print.c **** 
1122:../Backend/gnu-efi-3.0.9/lib/print.c ****             case 'c':
1123:../Backend/gnu-efi-3.0.9/lib/print.c ****                 Item.Scratch[0] = (CHAR16) va_arg(ps->args, UINTN);
1124:../Backend/gnu-efi-3.0.9/lib/print.c ****                 Item.Scratch[1] = 0;
1125:../Backend/gnu-efi-3.0.9/lib/print.c ****                 Item.Item.pw = Item.Scratch;
1126:../Backend/gnu-efi-3.0.9/lib/print.c ****                 break;
1127:../Backend/gnu-efi-3.0.9/lib/print.c **** 
1128:../Backend/gnu-efi-3.0.9/lib/print.c ****             case 'l':
1129:../Backend/gnu-efi-3.0.9/lib/print.c ****                 Item.Long = TRUE;
1130:../Backend/gnu-efi-3.0.9/lib/print.c ****                 break;
1131:../Backend/gnu-efi-3.0.9/lib/print.c **** 
1132:../Backend/gnu-efi-3.0.9/lib/print.c ****             case 'X':
1133:../Backend/gnu-efi-3.0.9/lib/print.c ****                 Item.Width = Item.Long ? 16 : 8;
1134:../Backend/gnu-efi-3.0.9/lib/print.c ****                 Item.Pad = '0';
1135:../Backend/gnu-efi-3.0.9/lib/print.c **** #if __GNUC__ >= 7
1136:../Backend/gnu-efi-3.0.9/lib/print.c **** 		__attribute__ ((fallthrough));
1137:../Backend/gnu-efi-3.0.9/lib/print.c **** #endif
1138:../Backend/gnu-efi-3.0.9/lib/print.c ****             case 'x':
1139:../Backend/gnu-efi-3.0.9/lib/print.c ****                 ValueToHex (
1140:../Backend/gnu-efi-3.0.9/lib/print.c ****                     Item.Scratch,
1141:../Backend/gnu-efi-3.0.9/lib/print.c ****                     Item.Long ? va_arg(ps->args, UINT64) : va_arg(ps->args, UINT32)
1142:../Backend/gnu-efi-3.0.9/lib/print.c ****                     );
1143:../Backend/gnu-efi-3.0.9/lib/print.c ****                 Item.Item.pw = Item.Scratch;
1144:../Backend/gnu-efi-3.0.9/lib/print.c **** 
1145:../Backend/gnu-efi-3.0.9/lib/print.c ****                 break;
1146:../Backend/gnu-efi-3.0.9/lib/print.c **** 
1147:../Backend/gnu-efi-3.0.9/lib/print.c **** 
1148:../Backend/gnu-efi-3.0.9/lib/print.c ****             case 'g':
1149:../Backend/gnu-efi-3.0.9/lib/print.c ****                 GuidToString (Item.Scratch, va_arg(ps->args, EFI_GUID *));
1150:../Backend/gnu-efi-3.0.9/lib/print.c ****                 Item.Item.pw = Item.Scratch;
1151:../Backend/gnu-efi-3.0.9/lib/print.c ****                 break;
1152:../Backend/gnu-efi-3.0.9/lib/print.c **** 
1153:../Backend/gnu-efi-3.0.9/lib/print.c ****             case 'u':
1154:../Backend/gnu-efi-3.0.9/lib/print.c ****                 ValueToString (
1155:../Backend/gnu-efi-3.0.9/lib/print.c ****                     Item.Scratch,
1156:../Backend/gnu-efi-3.0.9/lib/print.c ****                     Item.Comma,
1157:../Backend/gnu-efi-3.0.9/lib/print.c ****                     Item.Long ? va_arg(ps->args, UINT64) : va_arg(ps->args, UINT32)
1158:../Backend/gnu-efi-3.0.9/lib/print.c ****                     );
1159:../Backend/gnu-efi-3.0.9/lib/print.c ****                 Item.Item.pw = Item.Scratch;
1160:../Backend/gnu-efi-3.0.9/lib/print.c ****                 break;
1161:../Backend/gnu-efi-3.0.9/lib/print.c **** 
1162:../Backend/gnu-efi-3.0.9/lib/print.c ****             case 'd':
1163:../Backend/gnu-efi-3.0.9/lib/print.c ****                 ValueToString (
1164:../Backend/gnu-efi-3.0.9/lib/print.c ****                     Item.Scratch,
1165:../Backend/gnu-efi-3.0.9/lib/print.c ****                     Item.Comma,
1166:../Backend/gnu-efi-3.0.9/lib/print.c ****                     Item.Long ? va_arg(ps->args, INT64) : va_arg(ps->args, INT32)
1167:../Backend/gnu-efi-3.0.9/lib/print.c ****                     );
1168:../Backend/gnu-efi-3.0.9/lib/print.c ****                 Item.Item.pw = Item.Scratch;
1169:../Backend/gnu-efi-3.0.9/lib/print.c ****                 break;
1170:../Backend/gnu-efi-3.0.9/lib/print.c **** 
1171:../Backend/gnu-efi-3.0.9/lib/print.c ****             case 'D':
1172:../Backend/gnu-efi-3.0.9/lib/print.c ****             {
1173:../Backend/gnu-efi-3.0.9/lib/print.c ****                 EFI_DEVICE_PATH *dp = va_arg(ps->args, EFI_DEVICE_PATH *);
1174:../Backend/gnu-efi-3.0.9/lib/print.c ****                 CHAR16 *dpstr = DevicePathToStr(dp);
1175:../Backend/gnu-efi-3.0.9/lib/print.c ****                 StrnCpy(Item.Scratch, dpstr, PRINT_ITEM_BUFFER_LEN);
1176:../Backend/gnu-efi-3.0.9/lib/print.c ****                 Item.Scratch[PRINT_ITEM_BUFFER_LEN-1] = L'\0';
1177:../Backend/gnu-efi-3.0.9/lib/print.c ****                 FreePool(dpstr);
1178:../Backend/gnu-efi-3.0.9/lib/print.c **** 
1179:../Backend/gnu-efi-3.0.9/lib/print.c ****                 Item.Item.pw = Item.Scratch;
1180:../Backend/gnu-efi-3.0.9/lib/print.c ****                 break;
1181:../Backend/gnu-efi-3.0.9/lib/print.c ****             }
1182:../Backend/gnu-efi-3.0.9/lib/print.c **** 
1183:../Backend/gnu-efi-3.0.9/lib/print.c ****             case 'f':
1184:../Backend/gnu-efi-3.0.9/lib/print.c ****                 FloatToString (
1185:../Backend/gnu-efi-3.0.9/lib/print.c ****                     Item.Scratch,
1186:../Backend/gnu-efi-3.0.9/lib/print.c ****                     Item.Comma,
1187:../Backend/gnu-efi-3.0.9/lib/print.c ****                     va_arg(ps->args, double)
1188:../Backend/gnu-efi-3.0.9/lib/print.c ****                     );
1189:../Backend/gnu-efi-3.0.9/lib/print.c ****                 Item.Item.pw = Item.Scratch;
1190:../Backend/gnu-efi-3.0.9/lib/print.c ****                 break;
1191:../Backend/gnu-efi-3.0.9/lib/print.c **** 
1192:../Backend/gnu-efi-3.0.9/lib/print.c ****             case 't':
1193:../Backend/gnu-efi-3.0.9/lib/print.c ****                 TimeToString (Item.Scratch, va_arg(ps->args, EFI_TIME *));
1194:../Backend/gnu-efi-3.0.9/lib/print.c ****                 Item.Item.pw = Item.Scratch;
1195:../Backend/gnu-efi-3.0.9/lib/print.c ****                 break;
1196:../Backend/gnu-efi-3.0.9/lib/print.c **** 
1197:../Backend/gnu-efi-3.0.9/lib/print.c ****             case 'r':
1198:../Backend/gnu-efi-3.0.9/lib/print.c ****                 StatusToString (Item.Scratch, va_arg(ps->args, EFI_STATUS));
1199:../Backend/gnu-efi-3.0.9/lib/print.c ****                 Item.Item.pw = Item.Scratch;
1200:../Backend/gnu-efi-3.0.9/lib/print.c ****                 break;
1201:../Backend/gnu-efi-3.0.9/lib/print.c **** 
1202:../Backend/gnu-efi-3.0.9/lib/print.c ****             case 'n':
1203:../Backend/gnu-efi-3.0.9/lib/print.c ****                 PSETATTR(ps, ps->AttrNorm);
1204:../Backend/gnu-efi-3.0.9/lib/print.c ****                 break;
1205:../Backend/gnu-efi-3.0.9/lib/print.c **** 
1206:../Backend/gnu-efi-3.0.9/lib/print.c ****             case 'h':
1207:../Backend/gnu-efi-3.0.9/lib/print.c ****                 PSETATTR(ps, ps->AttrHighlight);
1208:../Backend/gnu-efi-3.0.9/lib/print.c ****                 break;
1209:../Backend/gnu-efi-3.0.9/lib/print.c **** 
1210:../Backend/gnu-efi-3.0.9/lib/print.c ****             case 'e':
1211:../Backend/gnu-efi-3.0.9/lib/print.c ****                 PSETATTR(ps, ps->AttrError);
1212:../Backend/gnu-efi-3.0.9/lib/print.c ****                 break;
1213:../Backend/gnu-efi-3.0.9/lib/print.c **** 
1214:../Backend/gnu-efi-3.0.9/lib/print.c ****             case 'N':
1215:../Backend/gnu-efi-3.0.9/lib/print.c ****                 Attr = ps->AttrNorm;
1216:../Backend/gnu-efi-3.0.9/lib/print.c ****                 break;
1217:../Backend/gnu-efi-3.0.9/lib/print.c **** 
1218:../Backend/gnu-efi-3.0.9/lib/print.c ****             case 'H':
1219:../Backend/gnu-efi-3.0.9/lib/print.c ****                 Attr = ps->AttrHighlight;
1220:../Backend/gnu-efi-3.0.9/lib/print.c ****                 break;
1221:../Backend/gnu-efi-3.0.9/lib/print.c **** 
1222:../Backend/gnu-efi-3.0.9/lib/print.c ****             case 'E':
1223:../Backend/gnu-efi-3.0.9/lib/print.c ****                 Attr = ps->AttrError;
1224:../Backend/gnu-efi-3.0.9/lib/print.c ****                 break;
1225:../Backend/gnu-efi-3.0.9/lib/print.c **** 
1226:../Backend/gnu-efi-3.0.9/lib/print.c ****             default:
1227:../Backend/gnu-efi-3.0.9/lib/print.c ****                 Item.Scratch[0] = '?';
1228:../Backend/gnu-efi-3.0.9/lib/print.c ****                 Item.Scratch[1] = 0;
1229:../Backend/gnu-efi-3.0.9/lib/print.c ****                 Item.Item.pw = Item.Scratch;
1230:../Backend/gnu-efi-3.0.9/lib/print.c ****                 break;
1231:../Backend/gnu-efi-3.0.9/lib/print.c ****             }
1232:../Backend/gnu-efi-3.0.9/lib/print.c **** 
1233:../Backend/gnu-efi-3.0.9/lib/print.c ****             // if we have an Item
1234:../Backend/gnu-efi-3.0.9/lib/print.c ****             if (Item.Item.pw) {
1235:../Backend/gnu-efi-3.0.9/lib/print.c ****                 PITEM (ps);
1236:../Backend/gnu-efi-3.0.9/lib/print.c ****                 break;
1237:../Backend/gnu-efi-3.0.9/lib/print.c ****             }
1238:../Backend/gnu-efi-3.0.9/lib/print.c **** 
1239:../Backend/gnu-efi-3.0.9/lib/print.c ****             // if we have an Attr set
1240:../Backend/gnu-efi-3.0.9/lib/print.c ****             if (Attr) {
1241:../Backend/gnu-efi-3.0.9/lib/print.c ****                 PSETATTR(ps, Attr);
1242:../Backend/gnu-efi-3.0.9/lib/print.c ****                 ps->RestoreAttr = 0;
1243:../Backend/gnu-efi-3.0.9/lib/print.c ****                 break;
1244:../Backend/gnu-efi-3.0.9/lib/print.c ****             }
1245:../Backend/gnu-efi-3.0.9/lib/print.c ****         }
1246:../Backend/gnu-efi-3.0.9/lib/print.c **** 
1247:../Backend/gnu-efi-3.0.9/lib/print.c ****         if (ps->RestoreAttr) {
1248:../Backend/gnu-efi-3.0.9/lib/print.c ****             PSETATTR(ps, ps->RestoreAttr);
1249:../Backend/gnu-efi-3.0.9/lib/print.c ****         }
1250:../Backend/gnu-efi-3.0.9/lib/print.c ****     }
1251:../Backend/gnu-efi-3.0.9/lib/print.c **** 
1252:../Backend/gnu-efi-3.0.9/lib/print.c ****     // Flush buffer
1253:../Backend/gnu-efi-3.0.9/lib/print.c ****     PFLUSH (ps);
1254:../Backend/gnu-efi-3.0.9/lib/print.c ****     return ps->Len;
1255:../Backend/gnu-efi-3.0.9/lib/print.c **** }
1256:../Backend/gnu-efi-3.0.9/lib/print.c **** 
1257:../Backend/gnu-efi-3.0.9/lib/print.c **** STATIC CHAR8 Hex[] = {'0','1','2','3','4','5','6','7',
1258:../Backend/gnu-efi-3.0.9/lib/print.c ****                       '8','9','A','B','C','D','E','F'};
1259:../Backend/gnu-efi-3.0.9/lib/print.c **** 
1260:../Backend/gnu-efi-3.0.9/lib/print.c **** VOID
1261:../Backend/gnu-efi-3.0.9/lib/print.c **** ValueToHex (
1262:../Backend/gnu-efi-3.0.9/lib/print.c ****     IN CHAR16   *Buffer,
1263:../Backend/gnu-efi-3.0.9/lib/print.c ****     IN UINT64   v
1264:../Backend/gnu-efi-3.0.9/lib/print.c ****     )
1265:../Backend/gnu-efi-3.0.9/lib/print.c **** {
 989              		.loc 1 1265 1 is_stmt 1 view -0
 990              		.cfi_startproc
 991              		.loc 1 1265 1 is_stmt 0 view .LVU225
 992 057e F30F1EFA 		endbr64
 993 0582 55       		pushq	%rbp
 994              		.cfi_def_cfa_offset 16
 995              		.cfi_offset 6, -16
 996 0583 53       		pushq	%rbx
 997              		.cfi_def_cfa_offset 24
 998              		.cfi_offset 3, -24
 999 0584 4883EC28 		subq	$40, %rsp
 1000              		.cfi_def_cfa_offset 64
 1001 0588 4889FB   		movq	%rdi, %rbx
1266:../Backend/gnu-efi-3.0.9/lib/print.c ****     CHAR8           str[30], *p1;
 1002              		.loc 1 1266 5 is_stmt 1 view .LVU226
1267:../Backend/gnu-efi-3.0.9/lib/print.c ****     CHAR16          *p2;
 1003              		.loc 1 1267 5 view .LVU227
1268:../Backend/gnu-efi-3.0.9/lib/print.c **** 
1269:../Backend/gnu-efi-3.0.9/lib/print.c ****     if (!v) {
 1004              		.loc 1 1269 5 view .LVU228
 1005              		.loc 1 1269 8 is_stmt 0 view .LVU229
 1006 058b 4885F6   		testq	%rsi, %rsi
 1007 058e 7408     		je	.L66
 1008 0590 4889F7   		movq	%rsi, %rdi
 1009              	.LVL82:
1270:../Backend/gnu-efi-3.0.9/lib/print.c ****         Buffer[0] = '0';
1271:../Backend/gnu-efi-3.0.9/lib/print.c ****         Buffer[1] = 0;
1272:../Backend/gnu-efi-3.0.9/lib/print.c ****         return ;
1273:../Backend/gnu-efi-3.0.9/lib/print.c ****     }
1274:../Backend/gnu-efi-3.0.9/lib/print.c **** 
1275:../Backend/gnu-efi-3.0.9/lib/print.c ****     p1 = str;
 1010              		.loc 1 1275 8 view .LVU230
 1011 0593 4889E2   		movq	%rsp, %rdx
 1012 0596 EB34     		jmp	.L59
 1013              	.L66:
1270:../Backend/gnu-efi-3.0.9/lib/print.c ****         Buffer[0] = '0';
 1014              		.loc 1 1270 9 is_stmt 1 view .LVU231
1270:../Backend/gnu-efi-3.0.9/lib/print.c ****         Buffer[0] = '0';
 1015              		.loc 1 1270 19 is_stmt 0 view .LVU232
 1016 0598 66C70730 		movw	$48, (%rdi)
 1016      00
1271:../Backend/gnu-efi-3.0.9/lib/print.c ****         return ;
 1017              		.loc 1 1271 9 is_stmt 1 view .LVU233
1271:../Backend/gnu-efi-3.0.9/lib/print.c ****         return ;
 1018              		.loc 1 1271 19 is_stmt 0 view .LVU234
 1019 059d 66C74702 		movw	$0, 2(%rdi)
 1019      0000
1272:../Backend/gnu-efi-3.0.9/lib/print.c ****     }
 1020              		.loc 1 1272 9 is_stmt 1 view .LVU235
 1021 05a3 EB49     		jmp	.L58
 1022              	.LVL83:
 1023              	.L61:
1276:../Backend/gnu-efi-3.0.9/lib/print.c ****     p2 = Buffer;
1277:../Backend/gnu-efi-3.0.9/lib/print.c **** 
1278:../Backend/gnu-efi-3.0.9/lib/print.c ****     while (v) {
1279:../Backend/gnu-efi-3.0.9/lib/print.c ****         // Without the cast, the MSVC compiler may insert a reference to __allmull
1280:../Backend/gnu-efi-3.0.9/lib/print.c ****         *(p1++) = Hex[(UINTN)(v & 0xf)];
 1024              		.loc 1 1280 9 view .LVU236
 1025              		.loc 1 1280 23 is_stmt 0 view .LVU237
 1026 05a5 4889F8   		movq	%rdi, %rax
 1027 05a8 83E00F   		andl	$15, %eax
 1028              		.loc 1 1280 13 view .LVU238
 1029 05ab 488D6A01 		leaq	1(%rdx), %rbp
 1030              	.LVL84:
 1031              		.loc 1 1280 22 view .LVU239
 1032 05af 488D0D00 		leaq	Hex(%rip), %rcx
 1032      000000
 1033 05b6 0FB60401 		movzbl	(%rcx,%rax), %eax
 1034              		.loc 1 1280 17 view .LVU240
 1035 05ba 8802     		movb	%al, (%rdx)
1281:../Backend/gnu-efi-3.0.9/lib/print.c ****         v = RShiftU64 (v, 4);
 1036              		.loc 1 1281 9 is_stmt 1 view .LVU241
 1037              		.loc 1 1281 13 is_stmt 0 view .LVU242
 1038 05bc BE040000 		movl	$4, %esi
 1038      00
 1039 05c1 E8000000 		call	RShiftU64
 1039      00
 1040              	.LVL85:
 1041              		.loc 1 1281 13 view .LVU243
 1042 05c6 4889C7   		movq	%rax, %rdi
 1043              	.LVL86:
1280:../Backend/gnu-efi-3.0.9/lib/print.c ****         v = RShiftU64 (v, 4);
 1044              		.loc 1 1280 13 view .LVU244
 1045 05c9 4889EA   		movq	%rbp, %rdx
 1046              	.LVL87:
 1047              	.L59:
1278:../Backend/gnu-efi-3.0.9/lib/print.c ****         // Without the cast, the MSVC compiler may insert a reference to __allmull
 1048              		.loc 1 1278 12 is_stmt 1 view .LVU245
 1049 05cc 4885FF   		testq	%rdi, %rdi
 1050 05cf 75D4     		jne	.L61
1278:../Backend/gnu-efi-3.0.9/lib/print.c ****         // Without the cast, the MSVC compiler may insert a reference to __allmull
 1051              		.loc 1 1278 12 is_stmt 0 view .LVU246
 1052 05d1 EB0E     		jmp	.L62
 1053              	.LVL88:
 1054              	.L63:
1282:../Backend/gnu-efi-3.0.9/lib/print.c ****     }
1283:../Backend/gnu-efi-3.0.9/lib/print.c **** 
1284:../Backend/gnu-efi-3.0.9/lib/print.c ****     while (p1 != str) {
1285:../Backend/gnu-efi-3.0.9/lib/print.c ****         *(p2++) = *(--p1);
 1055              		.loc 1 1285 9 is_stmt 1 view .LVU247
 1056              		.loc 1 1285 17 is_stmt 0 view .LVU248
 1057 05d3 4883EA01 		subq	$1, %rdx
 1058              	.LVL89:
 1059              		.loc 1 1285 19 view .LVU249
 1060 05d7 0FB602   		movzbl	(%rdx), %eax
 1061              		.loc 1 1285 17 view .LVU250
 1062 05da 668903   		movw	%ax, (%rbx)
 1063              		.loc 1 1285 13 view .LVU251
 1064 05dd 488D5B02 		leaq	2(%rbx), %rbx
 1065              	.LVL90:
 1066              	.L62:
1284:../Backend/gnu-efi-3.0.9/lib/print.c ****         *(p2++) = *(--p1);
 1067              		.loc 1 1284 15 is_stmt 1 view .LVU252
 1068 05e1 4889E0   		movq	%rsp, %rax
 1069 05e4 4839C2   		cmpq	%rax, %rdx
 1070 05e7 75EA     		jne	.L63
1286:../Backend/gnu-efi-3.0.9/lib/print.c ****     }
1287:../Backend/gnu-efi-3.0.9/lib/print.c ****     *p2 = 0;
 1071              		.loc 1 1287 5 view .LVU253
 1072              		.loc 1 1287 9 is_stmt 0 view .LVU254
 1073 05e9 66C70300 		movw	$0, (%rbx)
 1073      00
 1074              	.LVL91:
 1075              	.L58:
1288:../Backend/gnu-efi-3.0.9/lib/print.c **** }
 1076              		.loc 1 1288 1 view .LVU255
 1077 05ee 4883C428 		addq	$40, %rsp
 1078              		.cfi_def_cfa_offset 24
 1079 05f2 5B       		popq	%rbx
 1080              		.cfi_restore 3
 1081              		.cfi_def_cfa_offset 16
 1082 05f3 5D       		popq	%rbp
 1083              		.cfi_restore 6
 1084              		.cfi_def_cfa_offset 8
 1085 05f4 C3       		ret
 1086              		.cfi_endproc
 1087              	.LFE24:
 1089              		.globl	ValueToString
 1090              		.hidden	ValueToString
 1092              	ValueToString:
 1093              	.LVL92:
 1094              	.LFB25:
1289:../Backend/gnu-efi-3.0.9/lib/print.c **** 
1290:../Backend/gnu-efi-3.0.9/lib/print.c **** 
1291:../Backend/gnu-efi-3.0.9/lib/print.c **** VOID
1292:../Backend/gnu-efi-3.0.9/lib/print.c **** ValueToString (
1293:../Backend/gnu-efi-3.0.9/lib/print.c ****     IN CHAR16   *Buffer,
1294:../Backend/gnu-efi-3.0.9/lib/print.c ****     IN BOOLEAN  Comma,
1295:../Backend/gnu-efi-3.0.9/lib/print.c ****     IN INT64    v
1296:../Backend/gnu-efi-3.0.9/lib/print.c ****     )
1297:../Backend/gnu-efi-3.0.9/lib/print.c **** {
 1095              		.loc 1 1297 1 is_stmt 1 view -0
 1096              		.cfi_startproc
 1097              		.loc 1 1297 1 is_stmt 0 view .LVU257
 1098 05f5 F30F1EFA 		endbr64
 1099 05f9 4154     		pushq	%r12
 1100              		.cfi_def_cfa_offset 16
 1101              		.cfi_offset 12, -16
 1102 05fb 55       		pushq	%rbp
 1103              		.cfi_def_cfa_offset 24
 1104              		.cfi_offset 6, -24
 1105 05fc 53       		pushq	%rbx
 1106              		.cfi_def_cfa_offset 32
 1107              		.cfi_offset 3, -32
 1108 05fd 4883EC40 		subq	$64, %rsp
 1109              		.cfi_def_cfa_offset 96
 1110 0601 4889FD   		movq	%rdi, %rbp
1298:../Backend/gnu-efi-3.0.9/lib/print.c ****     STATIC CHAR8 ca[] = {  3, 1, 2 };
 1111              		.loc 1 1298 12 is_stmt 1 view .LVU258
 1112              		.loc 1 1298 18 is_stmt 0 view .LVU259
 1113 0604 66C74424 		movw	$259, 61(%rsp)
 1113      3D0301
 1114 060b C644243F 		movb	$2, 63(%rsp)
 1114      02
1299:../Backend/gnu-efi-3.0.9/lib/print.c ****     CHAR8        str[40], *p1;
 1115              		.loc 1 1299 5 is_stmt 1 view .LVU260
1300:../Backend/gnu-efi-3.0.9/lib/print.c ****     CHAR16       *p2;
 1116              		.loc 1 1300 5 view .LVU261
1301:../Backend/gnu-efi-3.0.9/lib/print.c ****     UINTN        c, r;
 1117              		.loc 1 1301 5 view .LVU262
1302:../Backend/gnu-efi-3.0.9/lib/print.c **** 
1303:../Backend/gnu-efi-3.0.9/lib/print.c ****     if (!v) {
 1118              		.loc 1 1303 5 view .LVU263
 1119              		.loc 1 1303 8 is_stmt 0 view .LVU264
 1120 0610 4885D2   		testq	%rdx, %rdx
 1121 0613 740F     		je	.L79
 1122 0615 4189F4   		movl	%esi, %r12d
 1123 0618 4889D7   		movq	%rdx, %rdi
 1124              	.LVL93:
1304:../Backend/gnu-efi-3.0.9/lib/print.c ****         Buffer[0] = '0';
1305:../Backend/gnu-efi-3.0.9/lib/print.c ****         Buffer[1] = 0;
1306:../Backend/gnu-efi-3.0.9/lib/print.c ****         return ;
1307:../Backend/gnu-efi-3.0.9/lib/print.c ****     }
1308:../Backend/gnu-efi-3.0.9/lib/print.c **** 
1309:../Backend/gnu-efi-3.0.9/lib/print.c ****     p1 = str;
 1125              		.loc 1 1309 5 is_stmt 1 view .LVU265
1310:../Backend/gnu-efi-3.0.9/lib/print.c ****     p2 = Buffer;
 1126              		.loc 1 1310 5 view .LVU266
1311:../Backend/gnu-efi-3.0.9/lib/print.c **** 
1312:../Backend/gnu-efi-3.0.9/lib/print.c ****     if (v < 0) {
 1127              		.loc 1 1312 5 view .LVU267
 1128              		.loc 1 1312 8 is_stmt 0 view .LVU268
 1129 061b 7817     		js	.L80
 1130              	.LVL94:
 1131              	.L70:
1313:../Backend/gnu-efi-3.0.9/lib/print.c ****         *(p2++) = '-';
 1132              		.loc 1 1313 13 view .LVU269
 1133 061d 488D5C24 		leaq	16(%rsp), %rbx
 1133      10
 1134              	.LVL95:
 1135              		.loc 1 1313 13 view .LVU270
 1136 0622 EB3F     		jmp	.L71
 1137              	.LVL96:
 1138              	.L79:
1304:../Backend/gnu-efi-3.0.9/lib/print.c ****         Buffer[1] = 0;
 1139              		.loc 1 1304 9 is_stmt 1 view .LVU271
1304:../Backend/gnu-efi-3.0.9/lib/print.c ****         Buffer[1] = 0;
 1140              		.loc 1 1304 19 is_stmt 0 view .LVU272
 1141 0624 66C70730 		movw	$48, (%rdi)
 1141      00
1305:../Backend/gnu-efi-3.0.9/lib/print.c ****         return ;
 1142              		.loc 1 1305 9 is_stmt 1 view .LVU273
1305:../Backend/gnu-efi-3.0.9/lib/print.c ****         return ;
 1143              		.loc 1 1305 19 is_stmt 0 view .LVU274
 1144 0629 66C74702 		movw	$0, 2(%rdi)
 1144      0000
1306:../Backend/gnu-efi-3.0.9/lib/print.c ****     }
 1145              		.loc 1 1306 9 is_stmt 1 view .LVU275
 1146 062f E9AE0000 		jmp	.L67
 1146      00
 1147              	.LVL97:
 1148              	.L80:
 1149              		.loc 1 1313 9 view .LVU276
 1150              		.loc 1 1313 17 is_stmt 0 view .LVU277
 1151 0634 66C74500 		movw	$45, 0(%rbp)
 1151      2D00
1314:../Backend/gnu-efi-3.0.9/lib/print.c ****         v = -v;
 1152              		.loc 1 1314 9 is_stmt 1 view .LVU278
 1153              		.loc 1 1314 11 is_stmt 0 view .LVU279
 1154 063a 48F7DF   		negq	%rdi
 1155              	.LVL98:
1313:../Backend/gnu-efi-3.0.9/lib/print.c ****         v = -v;
 1156              		.loc 1 1313 13 view .LVU280
 1157 063d 488D6D02 		leaq	2(%rbp), %rbp
 1158              	.LVL99:
1313:../Backend/gnu-efi-3.0.9/lib/print.c ****         v = -v;
 1159              		.loc 1 1313 13 view .LVU281
 1160 0641 EBDA     		jmp	.L70
 1161              	.LVL100:
 1162              	.L72:
1315:../Backend/gnu-efi-3.0.9/lib/print.c ****     }
1316:../Backend/gnu-efi-3.0.9/lib/print.c **** 
1317:../Backend/gnu-efi-3.0.9/lib/print.c ****     while (v) {
1318:../Backend/gnu-efi-3.0.9/lib/print.c ****         v = (INT64)DivU64x32 ((UINT64)v, 10, &r);
 1163              		.loc 1 1318 9 is_stmt 1 view .LVU282
 1164              		.loc 1 1318 20 is_stmt 0 view .LVU283
 1165 0643 488D5424 		leaq	8(%rsp), %rdx
 1165      08
 1166 0648 BE0A0000 		movl	$10, %esi
 1166      00
 1167 064d E8000000 		call	DivU64x32
 1167      00
 1168              	.LVL101:
 1169              		.loc 1 1318 20 view .LVU284
 1170 0652 4889C7   		movq	%rax, %rdi
 1171              	.LVL102:
1319:../Backend/gnu-efi-3.0.9/lib/print.c ****         *(p1++) = (CHAR8)r + '0';
 1172              		.loc 1 1319 9 is_stmt 1 view .LVU285
 1173              		.loc 1 1319 28 is_stmt 0 view .LVU286
 1174 0655 0FB64424 		movzbl	8(%rsp), %eax
 1174      08
 1175              	.LVL103:
 1176              		.loc 1 1319 28 view .LVU287
 1177 065a 83C030   		addl	$48, %eax
 1178              		.loc 1 1319 17 view .LVU288
 1179 065d 8803     		movb	%al, (%rbx)
 1180              		.loc 1 1319 13 view .LVU289
 1181 065f 488D5B01 		leaq	1(%rbx), %rbx
 1182              	.LVL104:
 1183              	.L71:
1317:../Backend/gnu-efi-3.0.9/lib/print.c ****         v = (INT64)DivU64x32 ((UINT64)v, 10, &r);
 1184              		.loc 1 1317 12 is_stmt 1 view .LVU290
 1185 0663 4885FF   		testq	%rdi, %rdi
 1186 0666 75DB     		jne	.L72
1320:../Backend/gnu-efi-3.0.9/lib/print.c ****     }
1321:../Backend/gnu-efi-3.0.9/lib/print.c **** 
1322:../Backend/gnu-efi-3.0.9/lib/print.c ****     c = (Comma ? ca[(p1 - str) % 3] : 999) + 1;
 1187              		.loc 1 1322 5 view .LVU291
 1188              		.loc 1 1322 44 is_stmt 0 view .LVU292
 1189 0668 4584E4   		testb	%r12b, %r12b
 1190 066b 7438     		je	.L77
 1191              		.loc 1 1322 25 discriminator 1 view .LVU293
 1192 066d 488D4424 		leaq	16(%rsp), %rax
 1192      10
 1193 0672 4889D9   		movq	%rbx, %rcx
 1194 0675 4829C1   		subq	%rax, %rcx
 1195              		.loc 1 1322 32 discriminator 1 view .LVU294
 1196 0678 48BA5655 		movabsq	$6148914691236517206, %rdx
 1196      55555555 
 1196      5555
 1197 0682 4889C8   		movq	%rcx, %rax
 1198 0685 48F7EA   		imulq	%rdx
 1199 0688 4889C8   		movq	%rcx, %rax
 1200 068b 48C1F83F 		sarq	$63, %rax
 1201 068f 4829C2   		subq	%rax, %rdx
 1202 0692 488D0452 		leaq	(%rdx,%rdx,2), %rax
 1203 0696 4829C1   		subq	%rax, %rcx
 1204              		.loc 1 1322 20 discriminator 1 view .LVU295
 1205 0699 0FB6440C 		movzbl	61(%rsp,%rcx), %eax
 1205      3D
 1206              		.loc 1 1322 44 discriminator 1 view .LVU296
 1207 069e 83C001   		addl	$1, %eax
 1208 06a1 4898     		cltq
 1209 06a3 EB16     		jmp	.L74
 1210              	.L77:
 1211              		.loc 1 1322 44 discriminator 2 view .LVU297
 1212 06a5 B8E80300 		movl	$1000, %eax
 1212      00
 1213 06aa EB0F     		jmp	.L74
 1214              	.L75:
 1215              	.LVL105:
1323:../Backend/gnu-efi-3.0.9/lib/print.c ****     while (p1 != str) {
1324:../Backend/gnu-efi-3.0.9/lib/print.c **** 
1325:../Backend/gnu-efi-3.0.9/lib/print.c ****         c -= 1;
1326:../Backend/gnu-efi-3.0.9/lib/print.c ****         if (!c) {
1327:../Backend/gnu-efi-3.0.9/lib/print.c ****             *(p2++) = ',';
1328:../Backend/gnu-efi-3.0.9/lib/print.c ****             c = 3;
1329:../Backend/gnu-efi-3.0.9/lib/print.c ****         }
1330:../Backend/gnu-efi-3.0.9/lib/print.c **** 
1331:../Backend/gnu-efi-3.0.9/lib/print.c ****         *(p2++) = *(--p1);
 1216              		.loc 1 1331 9 is_stmt 1 view .LVU298
 1217              		.loc 1 1331 17 is_stmt 0 view .LVU299
 1218 06ac 4883EB01 		subq	$1, %rbx
 1219              	.LVL106:
 1220              		.loc 1 1331 19 view .LVU300
 1221 06b0 0FB613   		movzbl	(%rbx), %edx
 1222              		.loc 1 1331 17 view .LVU301
 1223 06b3 66895500 		movw	%dx, 0(%rbp)
 1224              		.loc 1 1331 13 view .LVU302
 1225 06b7 488D6D02 		leaq	2(%rbp), %rbp
 1226              	.LVL107:
 1227              	.L74:
1323:../Backend/gnu-efi-3.0.9/lib/print.c ****     while (p1 != str) {
 1228              		.loc 1 1323 15 is_stmt 1 view .LVU303
 1229 06bb 488D5424 		leaq	16(%rsp), %rdx
 1229      10
 1230 06c0 4839D3   		cmpq	%rdx, %rbx
 1231 06c3 7417     		je	.L81
1325:../Backend/gnu-efi-3.0.9/lib/print.c ****         if (!c) {
 1232              		.loc 1 1325 9 view .LVU304
 1233              	.LVL108:
1326:../Backend/gnu-efi-3.0.9/lib/print.c ****             *(p2++) = ',';
 1234              		.loc 1 1326 9 view .LVU305
1326:../Backend/gnu-efi-3.0.9/lib/print.c ****             *(p2++) = ',';
 1235              		.loc 1 1326 12 is_stmt 0 view .LVU306
 1236 06c5 4883E801 		subq	$1, %rax
 1237              	.LVL109:
1326:../Backend/gnu-efi-3.0.9/lib/print.c ****             *(p2++) = ',';
 1238              		.loc 1 1326 12 view .LVU307
 1239 06c9 75E1     		jne	.L75
1327:../Backend/gnu-efi-3.0.9/lib/print.c ****             c = 3;
 1240              		.loc 1 1327 13 is_stmt 1 view .LVU308
 1241              	.LVL110:
1327:../Backend/gnu-efi-3.0.9/lib/print.c ****             c = 3;
 1242              		.loc 1 1327 21 is_stmt 0 view .LVU309
 1243 06cb 66C74500 		movw	$44, 0(%rbp)
 1243      2C00
1328:../Backend/gnu-efi-3.0.9/lib/print.c ****         }
 1244              		.loc 1 1328 13 is_stmt 1 view .LVU310
 1245              	.LVL111:
1327:../Backend/gnu-efi-3.0.9/lib/print.c ****             c = 3;
 1246              		.loc 1 1327 17 is_stmt 0 view .LVU311
 1247 06d1 488D6D02 		leaq	2(%rbp), %rbp
 1248              	.LVL112:
1328:../Backend/gnu-efi-3.0.9/lib/print.c ****         }
 1249              		.loc 1 1328 15 view .LVU312
 1250 06d5 B8030000 		movl	$3, %eax
 1250      00
 1251 06da EBD0     		jmp	.L75
 1252              	.LVL113:
 1253              	.L81:
1332:../Backend/gnu-efi-3.0.9/lib/print.c ****     }
1333:../Backend/gnu-efi-3.0.9/lib/print.c ****     *p2 = 0;
 1254              		.loc 1 1333 5 is_stmt 1 view .LVU313
 1255              		.loc 1 1333 9 is_stmt 0 view .LVU314
 1256 06dc 66C74500 		movw	$0, 0(%rbp)
 1256      0000
 1257              	.LVL114:
 1258              	.L67:
1334:../Backend/gnu-efi-3.0.9/lib/print.c **** }
 1259              		.loc 1 1334 1 view .LVU315
 1260 06e2 4883C440 		addq	$64, %rsp
 1261              		.cfi_def_cfa_offset 32
 1262 06e6 5B       		popq	%rbx
 1263              		.cfi_restore 3
 1264              		.cfi_def_cfa_offset 24
 1265 06e7 5D       		popq	%rbp
 1266              		.cfi_restore 6
 1267              		.cfi_def_cfa_offset 16
 1268 06e8 415C     		popq	%r12
 1269              		.cfi_restore 12
 1270              		.cfi_def_cfa_offset 8
 1271 06ea C3       		ret
 1272              		.cfi_endproc
 1273              	.LFE25:
 1275              		.globl	FloatToString
 1276              		.hidden	FloatToString
 1278              	FloatToString:
 1279              	.LVL115:
 1280              	.LFB26:
1335:../Backend/gnu-efi-3.0.9/lib/print.c **** 
1336:../Backend/gnu-efi-3.0.9/lib/print.c **** VOID
1337:../Backend/gnu-efi-3.0.9/lib/print.c **** FloatToString (
1338:../Backend/gnu-efi-3.0.9/lib/print.c ****     IN CHAR16   *Buffer,
1339:../Backend/gnu-efi-3.0.9/lib/print.c ****     IN BOOLEAN  Comma,
1340:../Backend/gnu-efi-3.0.9/lib/print.c ****     IN double   v
1341:../Backend/gnu-efi-3.0.9/lib/print.c ****     )
1342:../Backend/gnu-efi-3.0.9/lib/print.c **** {
 1281              		.loc 1 1342 1 is_stmt 1 view -0
 1282              		.cfi_startproc
 1283              		.loc 1 1342 1 is_stmt 0 view .LVU317
 1284 06eb F30F1EFA 		endbr64
 1285 06ef 55       		pushq	%rbp
 1286              		.cfi_def_cfa_offset 16
 1287              		.cfi_offset 6, -16
 1288 06f0 53       		pushq	%rbx
 1289              		.cfi_def_cfa_offset 24
 1290              		.cfi_offset 3, -24
 1291 06f1 4883EC18 		subq	$24, %rsp
 1292              		.cfi_def_cfa_offset 48
 1293 06f5 4889FB   		movq	%rdi, %rbx
1343:../Backend/gnu-efi-3.0.9/lib/print.c ****     /*
1344:../Backend/gnu-efi-3.0.9/lib/print.c ****      * Integer part.
1345:../Backend/gnu-efi-3.0.9/lib/print.c ****      */
1346:../Backend/gnu-efi-3.0.9/lib/print.c ****     INTN i = (INTN)v;
 1294              		.loc 1 1346 5 is_stmt 1 view .LVU318
 1295              		.loc 1 1346 10 is_stmt 0 view .LVU319
 1296 06f8 F20F1144 		movsd	%xmm0, 8(%rsp)
 1296      2408
 1297 06fe F2480F2C 		cvttsd2siq	%xmm0, %rbp
 1297      E8
 1298              	.LVL116:
1347:../Backend/gnu-efi-3.0.9/lib/print.c ****     ValueToString(Buffer, Comma, i);
 1299              		.loc 1 1347 5 is_stmt 1 view .LVU320
 1300 0703 400FB6F6 		movzbl	%sil, %esi
 1301              		.loc 1 1347 5 is_stmt 0 view .LVU321
 1302 0707 4889EA   		movq	%rbp, %rdx
 1303 070a E8000000 		call	ValueToString
 1303      00
 1304              	.LVL117:
1348:../Backend/gnu-efi-3.0.9/lib/print.c **** 
1349:../Backend/gnu-efi-3.0.9/lib/print.c **** 
1350:../Backend/gnu-efi-3.0.9/lib/print.c ****     /*
1351:../Backend/gnu-efi-3.0.9/lib/print.c ****      * Decimal point.
1352:../Backend/gnu-efi-3.0.9/lib/print.c ****      */
1353:../Backend/gnu-efi-3.0.9/lib/print.c ****     UINTN x = StrLen(Buffer);
 1305              		.loc 1 1353 5 is_stmt 1 view .LVU322
 1306              		.loc 1 1353 15 is_stmt 0 view .LVU323
 1307 070f 4889DF   		movq	%rbx, %rdi
 1308 0712 E8000000 		call	StrLen
 1308      00
 1309              	.LVL118:
1354:../Backend/gnu-efi-3.0.9/lib/print.c ****     Buffer[x] = L'.';
 1310              		.loc 1 1354 5 is_stmt 1 view .LVU324
 1311              		.loc 1 1354 15 is_stmt 0 view .LVU325
 1312 0717 66C70443 		movw	$46, (%rbx,%rax,2)
 1312      2E00
1355:../Backend/gnu-efi-3.0.9/lib/print.c ****     x++;
 1313              		.loc 1 1355 5 is_stmt 1 view .LVU326
 1314              		.loc 1 1355 6 is_stmt 0 view .LVU327
 1315 071d 4883C001 		addq	$1, %rax
 1316              	.LVL119:
1356:../Backend/gnu-efi-3.0.9/lib/print.c **** 
1357:../Backend/gnu-efi-3.0.9/lib/print.c **** 
1358:../Backend/gnu-efi-3.0.9/lib/print.c ****     /*
1359:../Backend/gnu-efi-3.0.9/lib/print.c ****      * Keep fractional part.
1360:../Backend/gnu-efi-3.0.9/lib/print.c ****      */
1361:../Backend/gnu-efi-3.0.9/lib/print.c ****     // float f = (float)(v - i); // Wait, shouldn't these be doubles? Single floats make 'v' lose p
1362:../Backend/gnu-efi-3.0.9/lib/print.c ****     double f = (double)(v - i);
 1317              		.loc 1 1362 5 is_stmt 1 view .LVU328
 1318              		.loc 1 1362 16 is_stmt 0 view .LVU329
 1319 0721 660FEFC9 		pxor	%xmm1, %xmm1
 1320 0725 F2480F2A 		cvtsi2sdq	%rbp, %xmm1
 1320      CD
 1321              		.loc 1 1362 12 view .LVU330
 1322 072a F20F1044 		movsd	8(%rsp), %xmm0
 1322      2408
 1323 0730 F20F5CC1 		subsd	%xmm1, %xmm0
 1324              	.LVL120:
1363:../Backend/gnu-efi-3.0.9/lib/print.c ****     if (f < 0) f = -f;
 1325              		.loc 1 1363 5 is_stmt 1 view .LVU331
 1326              		.loc 1 1363 8 is_stmt 0 view .LVU332
 1327 0734 660FEFC9 		pxor	%xmm1, %xmm1
 1328 0738 660F2FC8 		comisd	%xmm0, %xmm1
 1329 073c 770A     		ja	.L96
 1330              	.LVL121:
 1331              	.L83:
1364:../Backend/gnu-efi-3.0.9/lib/print.c **** 
1365:../Backend/gnu-efi-3.0.9/lib/print.c **** 
1366:../Backend/gnu-efi-3.0.9/lib/print.c ****     /*
1367:../Backend/gnu-efi-3.0.9/lib/print.c ****      * Leading fractional zeroes.
1368:../Backend/gnu-efi-3.0.9/lib/print.c ****      */
1369:../Backend/gnu-efi-3.0.9/lib/print.c ****     f *= 10.0; // Don't know what the author originally intended here: f *= 10.0f; or (double)f *= 
 1332              		.loc 1 1369 5 is_stmt 1 view .LVU333
 1333              		.loc 1 1369 7 is_stmt 0 view .LVU334
 1334 073e F20F5905 		mulsd	.LC2(%rip), %xmm0
 1334      00000000 
 1335              	.LVL122:
1370:../Backend/gnu-efi-3.0.9/lib/print.c ****     while (   (f != 0)
 1336              		.loc 1 1370 5 is_stmt 1 view .LVU335
 1337              		.loc 1 1370 11 is_stmt 0 view .LVU336
 1338 0746 EB1C     		jmp	.L85
 1339              	.L96:
1363:../Backend/gnu-efi-3.0.9/lib/print.c ****     if (f < 0) f = -f;
 1340              		.loc 1 1363 16 is_stmt 1 discriminator 1 view .LVU337
1363:../Backend/gnu-efi-3.0.9/lib/print.c ****     if (f < 0) f = -f;
 1341              		.loc 1 1363 18 is_stmt 0 discriminator 1 view .LVU338
 1342 0748 660F5705 		xorpd	.LC1(%rip), %xmm0
 1342      00000000 
 1343              	.LVL123:
1363:../Backend/gnu-efi-3.0.9/lib/print.c ****     if (f < 0) f = -f;
 1344              		.loc 1 1363 18 discriminator 1 view .LVU339
 1345 0750 EBEC     		jmp	.L83
 1346              	.LVL124:
 1347              	.L88:
1371:../Backend/gnu-efi-3.0.9/lib/print.c ****            && ((INTN)f == 0))
1372:../Backend/gnu-efi-3.0.9/lib/print.c ****     {
1373:../Backend/gnu-efi-3.0.9/lib/print.c ****       Buffer[x] = L'0';
 1348              		.loc 1 1373 7 is_stmt 1 view .LVU340
 1349              		.loc 1 1373 17 is_stmt 0 view .LVU341
 1350 0752 66C70443 		movw	$48, (%rbx,%rax,2)
 1350      3000
1374:../Backend/gnu-efi-3.0.9/lib/print.c ****       x++;
 1351              		.loc 1 1374 7 is_stmt 1 view .LVU342
 1352              		.loc 1 1374 8 is_stmt 0 view .LVU343
 1353 0758 4883C001 		addq	$1, %rax
 1354              	.LVL125:
1375:../Backend/gnu-efi-3.0.9/lib/print.c ****       f *= 10.0; // See above comment: f *= 10.0f; or (double)f *= 10.0; ...?
 1355              		.loc 1 1375 7 is_stmt 1 view .LVU344
 1356              		.loc 1 1375 9 is_stmt 0 view .LVU345
 1357 075c F20F5905 		mulsd	.LC2(%rip), %xmm0
 1357      00000000 
 1358              	.LVL126:
 1359              	.L85:
1371:../Backend/gnu-efi-3.0.9/lib/print.c ****            && ((INTN)f == 0))
 1360              		.loc 1 1371 12 is_stmt 1 view .LVU346
 1361 0764 660FEFC9 		pxor	%xmm1, %xmm1
 1362 0768 660F2EC1 		ucomisd	%xmm1, %xmm0
 1363 076c 7A02     		jp	.L93
1371:../Backend/gnu-efi-3.0.9/lib/print.c ****            && ((INTN)f == 0))
 1364              		.loc 1 1371 12 is_stmt 0 view .LVU347
 1365 076e 7414     		je	.L89
 1366              	.L93:
1371:../Backend/gnu-efi-3.0.9/lib/print.c ****            && ((INTN)f == 0))
 1367              		.loc 1 1371 16 discriminator 1 view .LVU348
 1368 0770 F2480F2C 		cvttsd2siq	%xmm0, %rdx
 1368      D0
1371:../Backend/gnu-efi-3.0.9/lib/print.c ****            && ((INTN)f == 0))
 1369              		.loc 1 1371 12 discriminator 1 view .LVU349
 1370 0775 4885D2   		testq	%rdx, %rdx
 1371 0778 74D8     		je	.L88
 1372 077a EB08     		jmp	.L89
 1373              	.L90:
1376:../Backend/gnu-efi-3.0.9/lib/print.c ****     }
1377:../Backend/gnu-efi-3.0.9/lib/print.c **** 
1378:../Backend/gnu-efi-3.0.9/lib/print.c **** 
1379:../Backend/gnu-efi-3.0.9/lib/print.c ****     /*
1380:../Backend/gnu-efi-3.0.9/lib/print.c ****      * Fractional digits.
1381:../Backend/gnu-efi-3.0.9/lib/print.c ****      */
1382:../Backend/gnu-efi-3.0.9/lib/print.c ****     // while ((float)(INTN)f != f) // Changing these to doubles
1383:../Backend/gnu-efi-3.0.9/lib/print.c ****     while ((double)(INTN)f != f)
1384:../Backend/gnu-efi-3.0.9/lib/print.c ****     {
1385:../Backend/gnu-efi-3.0.9/lib/print.c ****       // f *= 10;
1386:../Backend/gnu-efi-3.0.9/lib/print.c ****       f *= 10.0; // This should probably match the above...
 1374              		.loc 1 1386 7 is_stmt 1 view .LVU350
 1375              		.loc 1 1386 9 is_stmt 0 view .LVU351
 1376 077c F20F5905 		mulsd	.LC2(%rip), %xmm0
 1376      00000000 
 1377              	.LVL127:
 1378              	.L89:
1383:../Backend/gnu-efi-3.0.9/lib/print.c ****     {
 1379              		.loc 1 1383 28 is_stmt 1 view .LVU352
1383:../Backend/gnu-efi-3.0.9/lib/print.c ****     {
 1380              		.loc 1 1383 20 is_stmt 0 view .LVU353
 1381 0784 F2480F2C 		cvttsd2siq	%xmm0, %rdx
 1381      D0
1383:../Backend/gnu-efi-3.0.9/lib/print.c ****     {
 1382              		.loc 1 1383 12 view .LVU354
 1383 0789 660FEFC9 		pxor	%xmm1, %xmm1
 1384 078d F2480F2A 		cvtsi2sdq	%rdx, %xmm1
 1384      CA
1383:../Backend/gnu-efi-3.0.9/lib/print.c ****     {
 1385              		.loc 1 1383 28 view .LVU355
 1386 0792 660F2EC8 		ucomisd	%xmm0, %xmm1
 1387 0796 7AE4     		jp	.L90
1383:../Backend/gnu-efi-3.0.9/lib/print.c ****     {
 1388              		.loc 1 1383 28 view .LVU356
 1389 0798 75E2     		jne	.L90
1387:../Backend/gnu-efi-3.0.9/lib/print.c ****     }
1388:../Backend/gnu-efi-3.0.9/lib/print.c ****     ValueToString(Buffer + x, FALSE, (INTN)f);
 1390              		.loc 1 1388 5 is_stmt 1 view .LVU357
 1391 079a 488D3C43 		leaq	(%rbx,%rax,2), %rdi
 1392 079e BE000000 		movl	$0, %esi
 1392      00
 1393 07a3 E8000000 		call	ValueToString
 1393      00
 1394              	.LVL128:
1389:../Backend/gnu-efi-3.0.9/lib/print.c ****     return;
 1395              		.loc 1 1389 5 view .LVU358
1390:../Backend/gnu-efi-3.0.9/lib/print.c **** }
 1396              		.loc 1 1390 1 is_stmt 0 view .LVU359
 1397 07a8 4883C418 		addq	$24, %rsp
 1398              		.cfi_def_cfa_offset 24
 1399 07ac 5B       		popq	%rbx
 1400              		.cfi_restore 3
 1401              		.cfi_def_cfa_offset 16
 1402              	.LVL129:
 1403              		.loc 1 1390 1 view .LVU360
 1404 07ad 5D       		popq	%rbp
 1405              		.cfi_restore 6
 1406              		.cfi_def_cfa_offset 8
 1407              	.LVL130:
 1408              		.loc 1 1390 1 view .LVU361
 1409 07ae C3       		ret
 1410              		.cfi_endproc
 1411              	.LFE26:
 1413              		.section	.rodata
 1414              		.align 8
 1415              	.LC3:
 1416 0000 2500     		.string	"%"
 1417 0002 3000     		.string	"0"
 1418 0004 3200     		.string	"2"
 1419 0006 6400     		.string	"d"
 1420 0008 2F00     		.string	"/"
 1421 000a 2500     		.string	"%"
 1422 000c 3000     		.string	"0"
 1423 000e 3200     		.string	"2"
 1424 0010 6400     		.string	"d"
 1425 0012 2F00     		.string	"/"
 1426 0014 2500     		.string	"%"
 1427 0016 3000     		.string	"0"
 1428 0018 3200     		.string	"2"
 1429 001a 6400     		.string	"d"
 1430 001c 2000     		.string	" "
 1431 001e 2000     		.string	" "
 1432 0020 2500     		.string	"%"
 1433 0022 3000     		.string	"0"
 1434 0024 3200     		.string	"2"
 1435 0026 6400     		.string	"d"
 1436 0028 3A00     		.string	":"
 1437 002a 2500     		.string	"%"
 1438 002c 3000     		.string	"0"
 1439 002e 3200     		.string	"2"
 1440 0030 6400     		.string	"d"
 1441 0032 2500     		.string	"%"
 1442 0034 6300     		.string	"c"
 1443 0036 00       		.string	""
 1444 0037 00       		.string	""
 1445              		.text
 1446              		.globl	TimeToString
 1447              		.hidden	TimeToString
 1449              	TimeToString:
 1450              	.LVL131:
 1451              	.LFB27:
1391:../Backend/gnu-efi-3.0.9/lib/print.c **** 
1392:../Backend/gnu-efi-3.0.9/lib/print.c **** VOID
1393:../Backend/gnu-efi-3.0.9/lib/print.c **** TimeToString (
1394:../Backend/gnu-efi-3.0.9/lib/print.c ****     OUT CHAR16      *Buffer,
1395:../Backend/gnu-efi-3.0.9/lib/print.c ****     IN EFI_TIME     *Time
1396:../Backend/gnu-efi-3.0.9/lib/print.c ****     )
1397:../Backend/gnu-efi-3.0.9/lib/print.c **** {
 1452              		.loc 1 1397 1 is_stmt 1 view -0
 1453              		.cfi_startproc
 1454              		.loc 1 1397 1 is_stmt 0 view .LVU363
 1455 07af F30F1EFA 		endbr64
 1456 07b3 4883EC28 		subq	$40, %rsp
 1457              		.cfi_def_cfa_offset 48
1398:../Backend/gnu-efi-3.0.9/lib/print.c ****     UINTN       Hour, Year;
 1458              		.loc 1 1398 5 is_stmt 1 view .LVU364
1399:../Backend/gnu-efi-3.0.9/lib/print.c ****     CHAR16      AmPm;
 1459              		.loc 1 1399 5 view .LVU365
1400:../Backend/gnu-efi-3.0.9/lib/print.c **** 
1401:../Backend/gnu-efi-3.0.9/lib/print.c ****     AmPm = 'a';
 1460              		.loc 1 1401 5 view .LVU366
 1461              	.LVL132:
1402:../Backend/gnu-efi-3.0.9/lib/print.c ****     Hour = Time->Hour;
 1462              		.loc 1 1402 5 view .LVU367
 1463              		.loc 1 1402 16 is_stmt 0 view .LVU368
 1464 07b7 0FB64604 		movzbl	4(%rsi), %eax
 1465              	.LVL133:
1403:../Backend/gnu-efi-3.0.9/lib/print.c ****     if (Time->Hour == 0) {
 1466              		.loc 1 1403 5 is_stmt 1 view .LVU369
 1467              		.loc 1 1403 8 is_stmt 0 view .LVU370
 1468 07bb 84C0     		testb	%al, %al
 1469 07bd 741E     		je	.L99
 1470 07bf 0FB6C8   		movzbl	%al, %ecx
 1471              	.LVL134:
1404:../Backend/gnu-efi-3.0.9/lib/print.c ****         Hour = 12;
1405:../Backend/gnu-efi-3.0.9/lib/print.c ****     } else if (Time->Hour >= 12) {
 1472              		.loc 1 1405 12 is_stmt 1 view .LVU371
 1473              		.loc 1 1405 15 is_stmt 0 view .LVU372
 1474 07c2 3C0B     		cmpb	$11, %al
 1475 07c4 0F868D00 		jbe	.L100
 1475      0000
1406:../Backend/gnu-efi-3.0.9/lib/print.c ****         AmPm = 'p';
 1476              		.loc 1 1406 9 is_stmt 1 view .LVU373
 1477              	.LVL135:
1407:../Backend/gnu-efi-3.0.9/lib/print.c ****         if (Time->Hour >= 13) {
 1478              		.loc 1 1407 9 view .LVU374
 1479              		.loc 1 1407 12 is_stmt 0 view .LVU375
 1480 07ca 3C0C     		cmpb	$12, %al
 1481 07cc 0F868C00 		jbe	.L101
 1481      0000
1408:../Backend/gnu-efi-3.0.9/lib/print.c ****             Hour -= 12;
 1482              		.loc 1 1408 13 is_stmt 1 view .LVU376
 1483              		.loc 1 1408 18 is_stmt 0 view .LVU377
 1484 07d2 4883E90C 		subq	$12, %rcx
 1485              	.LVL136:
1406:../Backend/gnu-efi-3.0.9/lib/print.c ****         AmPm = 'p';
 1486              		.loc 1 1406 14 view .LVU378
 1487 07d6 BA700000 		movl	$112, %edx
 1487      00
 1488 07db EB0A     		jmp	.L98
 1489              	.LVL137:
 1490              	.L99:
1401:../Backend/gnu-efi-3.0.9/lib/print.c ****     Hour = Time->Hour;
 1491              		.loc 1 1401 10 view .LVU379
 1492 07dd BA610000 		movl	$97, %edx
 1492      00
1404:../Backend/gnu-efi-3.0.9/lib/print.c ****     } else if (Time->Hour >= 12) {
 1493              		.loc 1 1404 14 view .LVU380
 1494 07e2 B90C0000 		movl	$12, %ecx
 1494      00
 1495              	.LVL138:
 1496              	.L98:
1409:../Backend/gnu-efi-3.0.9/lib/print.c ****         }
1410:../Backend/gnu-efi-3.0.9/lib/print.c ****     }
1411:../Backend/gnu-efi-3.0.9/lib/print.c **** 
1412:../Backend/gnu-efi-3.0.9/lib/print.c ****     Year = Time->Year % 100;
 1497              		.loc 1 1412 5 is_stmt 1 view .LVU381
 1498              		.loc 1 1412 16 is_stmt 0 view .LVU382
 1499 07e7 0FB706   		movzwl	(%rsi), %eax
 1500              		.loc 1 1412 23 view .LVU383
 1501 07ea 4189C1   		movl	%eax, %r9d
 1502 07ed 6641C1E9 		shrw	$2, %r9w
 1502      02
 1503 07f2 450FB7C9 		movzwl	%r9w, %r9d
 1504 07f6 4569C97B 		imull	$5243, %r9d, %r9d
 1504      140000
 1505 07fd 41C1E911 		shrl	$17, %r9d
 1506 0801 478D0C89 		leal	(%r9,%r9,4), %r9d
 1507 0805 478D0C89 		leal	(%r9,%r9,4), %r9d
 1508 0809 468D048D 		leal	0(,%r9,4), %r8d
 1508      00000000 
 1509 0811 4429C0   		subl	%r8d, %eax
 1510 0814 4189C1   		movl	%eax, %r9d
 1511              	.LVL139:
1413:../Backend/gnu-efi-3.0.9/lib/print.c **** 
1414:../Backend/gnu-efi-3.0.9/lib/print.c ****     // bugbug: for now just print it any old way
1415:../Backend/gnu-efi-3.0.9/lib/print.c ****     SPrint (Buffer, 0, L"%02d/%02d/%02d  %02d:%02d%c",
 1512              		.loc 1 1415 5 is_stmt 1 view .LVU384
1416:../Backend/gnu-efi-3.0.9/lib/print.c ****         Time->Month,
1417:../Backend/gnu-efi-3.0.9/lib/print.c ****         Time->Day,
1418:../Backend/gnu-efi-3.0.9/lib/print.c ****         Year,
1419:../Backend/gnu-efi-3.0.9/lib/print.c ****         Hour,
1420:../Backend/gnu-efi-3.0.9/lib/print.c ****         Time->Minute,
 1513              		.loc 1 1420 13 is_stmt 0 view .LVU385
 1514 0817 0FB64605 		movzbl	5(%rsi), %eax
 1515              	.LVL140:
1415:../Backend/gnu-efi-3.0.9/lib/print.c ****         Time->Month,
 1516              		.loc 1 1415 5 view .LVU386
 1517 081b 440FB646 		movzbl	3(%rsi), %r8d
 1517      03
 1518 0820 0FB67602 		movzbl	2(%rsi), %esi
 1519              	.LVL141:
1415:../Backend/gnu-efi-3.0.9/lib/print.c ****         Time->Month,
 1520              		.loc 1 1415 5 view .LVU387
 1521 0824 0FB7D2   		movzwl	%dx, %edx
1415:../Backend/gnu-efi-3.0.9/lib/print.c ****         Time->Month,
 1522              		.loc 1 1415 5 view .LVU388
 1523 0827 89542410 		movl	%edx, 16(%rsp)
 1524 082b 0FB6C0   		movzbl	%al, %eax
 1525 082e 89442408 		movl	%eax, 8(%rsp)
 1526 0832 48890C24 		movq	%rcx, (%rsp)
 1527 0836 450FB7C9 		movzwl	%r9w, %r9d
 1528              	.LVL142:
1415:../Backend/gnu-efi-3.0.9/lib/print.c ****         Time->Month,
 1529              		.loc 1 1415 5 view .LVU389
 1530 083a 89F1     		movl	%esi, %ecx
 1531              	.LVL143:
1415:../Backend/gnu-efi-3.0.9/lib/print.c ****         Time->Month,
 1532              		.loc 1 1415 5 view .LVU390
 1533 083c 488D1500 		leaq	.LC3(%rip), %rdx
 1533      000000
 1534              	.LVL144:
1415:../Backend/gnu-efi-3.0.9/lib/print.c ****         Time->Month,
 1535              		.loc 1 1415 5 view .LVU391
 1536 0843 BE000000 		movl	$0, %esi
 1536      00
 1537 0848 B8000000 		movl	$0, %eax
 1537      00
 1538 084d E8000000 		call	SPrint
 1538      00
 1539              	.LVL145:
1421:../Backend/gnu-efi-3.0.9/lib/print.c ****         AmPm
1422:../Backend/gnu-efi-3.0.9/lib/print.c ****         );
1423:../Backend/gnu-efi-3.0.9/lib/print.c **** }
 1540              		.loc 1 1423 1 view .LVU392
 1541 0852 4883C428 		addq	$40, %rsp
 1542              		.cfi_remember_state
 1543              		.cfi_def_cfa_offset 8
 1544 0856 C3       		ret
 1545              	.LVL146:
 1546              	.L100:
 1547              		.cfi_restore_state
1401:../Backend/gnu-efi-3.0.9/lib/print.c ****     Hour = Time->Hour;
 1548              		.loc 1 1401 10 view .LVU393
 1549 0857 BA610000 		movl	$97, %edx
 1549      00
 1550 085c EB89     		jmp	.L98
 1551              	.LVL147:
 1552              	.L101:
1406:../Backend/gnu-efi-3.0.9/lib/print.c ****         if (Time->Hour >= 13) {
 1553              		.loc 1 1406 14 view .LVU394
 1554 085e BA700000 		movl	$112, %edx
 1554      00
 1555 0863 EB82     		jmp	.L98
 1556              		.cfi_endproc
 1557              	.LFE27:
 1559              		.section	.rodata
 1560              	.LC4:
 1561 0038 286E756C 		.string	"(null)"
 1561      6C2900
 1562 003f 00       		.align 2
 1563              	.LC5:
 1564 0040 2800     		.string	"("
 1565 0042 6E00     		.string	"n"
 1566 0044 7500     		.string	"u"
 1567 0046 6C00     		.string	"l"
 1568 0048 6C00     		.string	"l"
 1569 004a 2900     		.string	")"
 1570 004c 00       		.string	""
 1571 004d 00       		.string	""
 1572              		.text
 1573              		.globl	_Print
 1574              		.hidden	_Print
 1576              	_Print:
 1577              	.LVL148:
 1578              	.LFB23:
1024:../Backend/gnu-efi-3.0.9/lib/print.c ****     CHAR16          c;
 1579              		.loc 1 1024 1 is_stmt 1 view -0
 1580              		.cfi_startproc
1024:../Backend/gnu-efi-3.0.9/lib/print.c ****     CHAR16          c;
 1581              		.loc 1 1024 1 is_stmt 0 view .LVU396
 1582 0865 F30F1EFA 		endbr64
 1583 0869 4155     		pushq	%r13
 1584              		.cfi_def_cfa_offset 16
 1585              		.cfi_offset 13, -16
 1586 086b 4154     		pushq	%r12
 1587              		.cfi_def_cfa_offset 24
 1588              		.cfi_offset 12, -24
 1589 086d 55       		pushq	%rbp
 1590              		.cfi_def_cfa_offset 32
 1591              		.cfi_offset 6, -32
 1592 086e 53       		pushq	%rbx
 1593              		.cfi_def_cfa_offset 40
 1594              		.cfi_offset 3, -40
 1595 086f 4881EC98 		subq	$664, %rsp
 1595      020000
 1596              		.cfi_def_cfa_offset 704
 1597 0876 4889FB   		movq	%rdi, %rbx
1025:../Backend/gnu-efi-3.0.9/lib/print.c ****     UINTN           Attr;
 1598              		.loc 1 1025 5 is_stmt 1 view .LVU397
1026:../Backend/gnu-efi-3.0.9/lib/print.c ****     PRINT_ITEM      Item;
 1599              		.loc 1 1026 5 view .LVU398
1027:../Backend/gnu-efi-3.0.9/lib/print.c ****     CHAR16          Buffer[PRINT_STRING_LEN];
 1600              		.loc 1 1027 5 view .LVU399
1028:../Backend/gnu-efi-3.0.9/lib/print.c **** 
 1601              		.loc 1 1028 5 view .LVU400
1030:../Backend/gnu-efi-3.0.9/lib/print.c ****     ps->Buffer = Buffer;
 1602              		.loc 1 1030 5 view .LVU401
1030:../Backend/gnu-efi-3.0.9/lib/print.c ****     ps->Buffer = Buffer;
 1603              		.loc 1 1030 13 is_stmt 0 view .LVU402
 1604 0879 48C74748 		movq	$0, 72(%rdi)
 1604      00000000 
1031:../Backend/gnu-efi-3.0.9/lib/print.c ****     ps->Pos = Buffer;
 1605              		.loc 1 1031 5 is_stmt 1 view .LVU403
1031:../Backend/gnu-efi-3.0.9/lib/print.c ****     ps->Pos = Buffer;
 1606              		.loc 1 1031 16 is_stmt 0 view .LVU404
 1607 0881 4889E0   		movq	%rsp, %rax
 1608 0884 48894730 		movq	%rax, 48(%rdi)
1032:../Backend/gnu-efi-3.0.9/lib/print.c ****     ps->End = Buffer + PRINT_STRING_LEN - 1;
 1609              		.loc 1 1032 5 is_stmt 1 view .LVU405
1032:../Backend/gnu-efi-3.0.9/lib/print.c ****     ps->End = Buffer + PRINT_STRING_LEN - 1;
 1610              		.loc 1 1032 13 is_stmt 0 view .LVU406
 1611 0888 48894740 		movq	%rax, 64(%rdi)
1033:../Backend/gnu-efi-3.0.9/lib/print.c ****     ps->Item = &Item;
 1612              		.loc 1 1033 5 is_stmt 1 view .LVU407
1033:../Backend/gnu-efi-3.0.9/lib/print.c ****     ps->Item = &Item;
 1613              		.loc 1 1033 13 is_stmt 0 view .LVU408
 1614 088c 488D8424 		leaq	398(%rsp), %rax
 1614      8E010000 
 1615 0894 48894738 		movq	%rax, 56(%rdi)
1034:../Backend/gnu-efi-3.0.9/lib/print.c **** 
 1616              		.loc 1 1034 5 is_stmt 1 view .LVU409
1034:../Backend/gnu-efi-3.0.9/lib/print.c **** 
 1617              		.loc 1 1034 14 is_stmt 0 view .LVU410
 1618 0898 488D8424 		leaq	400(%rsp), %rax
 1618      90010000 
 1619 08a0 48898790 		movq	%rax, 144(%rdi)
 1619      000000
1036:../Backend/gnu-efi-3.0.9/lib/print.c ****     while ((c = PGETC(&ps->fmt))) {
 1620              		.loc 1 1036 5 is_stmt 1 view .LVU411
1036:../Backend/gnu-efi-3.0.9/lib/print.c ****     while ((c = PGETC(&ps->fmt))) {
 1621              		.loc 1 1036 19 is_stmt 0 view .LVU412
 1622 08a7 48C74708 		movq	$0, 8(%rdi)
 1622      00000000 
1037:../Backend/gnu-efi-3.0.9/lib/print.c **** 
 1623              		.loc 1 1037 5 is_stmt 1 view .LVU413
1037:../Backend/gnu-efi-3.0.9/lib/print.c **** 
 1624              		.loc 1 1037 11 is_stmt 0 view .LVU414
 1625 08af EB0B     		jmp	.L104
 1626              	.LVL149:
 1627              	.L182:
1040:../Backend/gnu-efi-3.0.9/lib/print.c ****             continue;
 1628              		.loc 1 1040 13 is_stmt 1 view .LVU415
 1629 08b1 0FB7F0   		movzwl	%ax, %esi
 1630 08b4 4889DF   		movq	%rbx, %rdi
 1631 08b7 E8000000 		call	PPUTC
 1631      00
 1632              	.LVL150:
1041:../Backend/gnu-efi-3.0.9/lib/print.c ****         }
 1633              		.loc 1 1041 13 view .LVU416
 1634              	.L104:
1037:../Backend/gnu-efi-3.0.9/lib/print.c **** 
 1635              		.loc 1 1037 12 view .LVU417
1037:../Backend/gnu-efi-3.0.9/lib/print.c **** 
 1636              		.loc 1 1037 17 is_stmt 0 view .LVU418
 1637 08bc 4889DF   		movq	%rbx, %rdi
 1638 08bf E8000000 		call	PGETC
 1638      00
 1639              	.LVL151:
1037:../Backend/gnu-efi-3.0.9/lib/print.c **** 
 1640              		.loc 1 1037 12 discriminator 1 view .LVU419
 1641 08c4 6685C0   		testw	%ax, %ax
 1642 08c7 0F846306 		je	.L181
 1642      0000
1039:../Backend/gnu-efi-3.0.9/lib/print.c ****             PPUTC ( ps, c );
 1643              		.loc 1 1039 9 is_stmt 1 view .LVU420
1039:../Backend/gnu-efi-3.0.9/lib/print.c ****             PPUTC ( ps, c );
 1644              		.loc 1 1039 12 is_stmt 0 view .LVU421
 1645 08cd 6683F825 		cmpw	$37, %ax
 1646 08d1 75DE     		jne	.L182
1045:../Backend/gnu-efi-3.0.9/lib/print.c ****         Item.Width = 0;
 1647              		.loc 1 1045 9 is_stmt 1 view .LVU422
1045:../Backend/gnu-efi-3.0.9/lib/print.c ****         Item.Width = 0;
 1648              		.loc 1 1045 25 is_stmt 0 view .LVU423
 1649 08d3 48C78424 		movq	$-1, 632(%rsp)
 1649      78020000 
 1649      FFFFFFFF 
1046:../Backend/gnu-efi-3.0.9/lib/print.c ****         Item.WidthParse = &Item.Width;
 1650              		.loc 1 1046 9 is_stmt 1 view .LVU424
1046:../Backend/gnu-efi-3.0.9/lib/print.c ****         Item.WidthParse = &Item.Width;
 1651              		.loc 1 1046 20 is_stmt 0 view .LVU425
 1652 08df 48C78424 		movq	$0, 624(%rsp)
 1652      70020000 
 1652      00000000 
1047:../Backend/gnu-efi-3.0.9/lib/print.c ****         Item.Pad = ' ';
 1653              		.loc 1 1047 9 is_stmt 1 view .LVU426
1047:../Backend/gnu-efi-3.0.9/lib/print.c ****         Item.Pad = ' ';
 1654              		.loc 1 1047 25 is_stmt 0 view .LVU427
 1655 08eb 488D8424 		leaq	624(%rsp), %rax
 1655      70020000 
 1656              	.LVL152:
1047:../Backend/gnu-efi-3.0.9/lib/print.c ****         Item.Pad = ' ';
 1657              		.loc 1 1047 25 view .LVU428
 1658 08f3 48898424 		movq	%rax, 640(%rsp)
 1658      80020000 
1048:../Backend/gnu-efi-3.0.9/lib/print.c ****         Item.PadBefore = TRUE;
 1659              		.loc 1 1048 9 is_stmt 1 view .LVU429
1048:../Backend/gnu-efi-3.0.9/lib/print.c ****         Item.PadBefore = TRUE;
 1660              		.loc 1 1048 18 is_stmt 0 view .LVU430
 1661 08fb 66C78424 		movw	$32, 648(%rsp)
 1661      88020000 
 1661      2000
1049:../Backend/gnu-efi-3.0.9/lib/print.c ****         Item.Comma = FALSE;
 1662              		.loc 1 1049 9 is_stmt 1 view .LVU431
1049:../Backend/gnu-efi-3.0.9/lib/print.c ****         Item.Comma = FALSE;
 1663              		.loc 1 1049 24 is_stmt 0 view .LVU432
 1664 0905 C684248A 		movb	$1, 650(%rsp)
 1664      02000001 
1050:../Backend/gnu-efi-3.0.9/lib/print.c ****         Item.Long = FALSE;
 1665              		.loc 1 1050 9 is_stmt 1 view .LVU433
1050:../Backend/gnu-efi-3.0.9/lib/print.c ****         Item.Long = FALSE;
 1666              		.loc 1 1050 20 is_stmt 0 view .LVU434
 1667 090d C684248B 		movb	$0, 651(%rsp)
 1667      02000000 
1051:../Backend/gnu-efi-3.0.9/lib/print.c ****         Item.Item.Ascii = FALSE;
 1668              		.loc 1 1051 9 is_stmt 1 view .LVU435
1051:../Backend/gnu-efi-3.0.9/lib/print.c ****         Item.Item.Ascii = FALSE;
 1669              		.loc 1 1051 19 is_stmt 0 view .LVU436
 1670 0915 C684248C 		movb	$0, 652(%rsp)
 1670      02000000 
1052:../Backend/gnu-efi-3.0.9/lib/print.c ****         Item.Item.pw = NULL;
 1671              		.loc 1 1052 9 is_stmt 1 view .LVU437
1052:../Backend/gnu-efi-3.0.9/lib/print.c ****         Item.Item.pw = NULL;
 1672              		.loc 1 1052 25 is_stmt 0 view .LVU438
 1673 091d C6842490 		movb	$0, 400(%rsp)
 1673      01000000 
1053:../Backend/gnu-efi-3.0.9/lib/print.c ****         ps->RestoreAttr = 0;
 1674              		.loc 1 1053 9 is_stmt 1 view .LVU439
1053:../Backend/gnu-efi-3.0.9/lib/print.c ****         ps->RestoreAttr = 0;
 1675              		.loc 1 1053 22 is_stmt 0 view .LVU440
 1676 0925 48C78424 		movq	$0, 416(%rsp)
 1676      A0010000 
 1676      00000000 
1054:../Backend/gnu-efi-3.0.9/lib/print.c ****         Attr = 0;
 1677              		.loc 1 1054 9 is_stmt 1 view .LVU441
1054:../Backend/gnu-efi-3.0.9/lib/print.c ****         Attr = 0;
 1678              		.loc 1 1054 25 is_stmt 0 view .LVU442
 1679 0931 48C74358 		movq	$0, 88(%rbx)
 1679      00000000 
1055:../Backend/gnu-efi-3.0.9/lib/print.c **** 
 1680              		.loc 1 1055 9 is_stmt 1 view .LVU443
 1681              	.LVL153:
1057:../Backend/gnu-efi-3.0.9/lib/print.c **** 
 1682              		.loc 1 1057 9 view .LVU444
1055:../Backend/gnu-efi-3.0.9/lib/print.c **** 
 1683              		.loc 1 1055 14 is_stmt 0 view .LVU445
 1684 0939 BD000000 		movl	$0, %ebp
 1684      00
1057:../Backend/gnu-efi-3.0.9/lib/print.c **** 
 1685              		.loc 1 1057 15 view .LVU446
 1686 093e E9550200 		jmp	.L107
 1686      00
 1687              	.LVL154:
 1688              	.L135:
1065:../Backend/gnu-efi-3.0.9/lib/print.c ****                 Item.Scratch[1] = 0;
 1689              		.loc 1 1065 17 is_stmt 1 view .LVU447
1065:../Backend/gnu-efi-3.0.9/lib/print.c ****                 Item.Scratch[1] = 0;
 1690              		.loc 1 1065 33 is_stmt 0 view .LVU448
 1691 0943 66C78424 		movw	$37, 424(%rsp)
 1691      A8010000 
 1691      2500
1066:../Backend/gnu-efi-3.0.9/lib/print.c ****                 Item.Item.pw = Item.Scratch;
 1692              		.loc 1 1066 17 is_stmt 1 view .LVU449
1066:../Backend/gnu-efi-3.0.9/lib/print.c ****                 Item.Item.pw = Item.Scratch;
 1693              		.loc 1 1066 33 is_stmt 0 view .LVU450
 1694 094d 66C78424 		movw	$0, 426(%rsp)
 1694      AA010000 
 1694      0000
1067:../Backend/gnu-efi-3.0.9/lib/print.c ****                 break;
 1695              		.loc 1 1067 17 is_stmt 1 view .LVU451
1067:../Backend/gnu-efi-3.0.9/lib/print.c ****                 break;
 1696              		.loc 1 1067 30 is_stmt 0 view .LVU452
 1697 0957 488D8424 		leaq	424(%rsp), %rax
 1697      A8010000 
 1698              	.LVL155:
1067:../Backend/gnu-efi-3.0.9/lib/print.c ****                 break;
 1699              		.loc 1 1067 30 view .LVU453
 1700 095f 48898424 		movq	%rax, 416(%rsp)
 1700      A0010000 
1068:../Backend/gnu-efi-3.0.9/lib/print.c **** 
 1701              		.loc 1 1068 17 is_stmt 1 view .LVU454
 1702 0967 E9140200 		jmp	.L136
 1702      00
 1703              	.LVL156:
 1704              	.L130:
1071:../Backend/gnu-efi-3.0.9/lib/print.c ****                 break;
 1705              		.loc 1 1071 17 view .LVU455
1071:../Backend/gnu-efi-3.0.9/lib/print.c ****                 break;
 1706              		.loc 1 1071 26 is_stmt 0 view .LVU456
 1707 096c 66C78424 		movw	$48, 648(%rsp)
 1707      88020000 
 1707      3000
1072:../Backend/gnu-efi-3.0.9/lib/print.c **** 
 1708              		.loc 1 1072 17 is_stmt 1 view .LVU457
 1709 0976 E9050200 		jmp	.L136
 1709      00
 1710              	.L132:
1075:../Backend/gnu-efi-3.0.9/lib/print.c ****                 break;
 1711              		.loc 1 1075 17 view .LVU458
1075:../Backend/gnu-efi-3.0.9/lib/print.c ****                 break;
 1712              		.loc 1 1075 32 is_stmt 0 view .LVU459
 1713 097b C684248A 		movb	$0, 650(%rsp)
 1713      02000000 
1076:../Backend/gnu-efi-3.0.9/lib/print.c **** 
 1714              		.loc 1 1076 17 is_stmt 1 view .LVU460
 1715 0983 E9F80100 		jmp	.L136
 1715      00
 1716              	.L133:
1079:../Backend/gnu-efi-3.0.9/lib/print.c ****                 break;
 1717              		.loc 1 1079 17 view .LVU461
1079:../Backend/gnu-efi-3.0.9/lib/print.c ****                 break;
 1718              		.loc 1 1079 28 is_stmt 0 view .LVU462
 1719 0988 C684248B 		movb	$1, 651(%rsp)
 1719      02000001 
1080:../Backend/gnu-efi-3.0.9/lib/print.c **** 
 1720              		.loc 1 1080 17 is_stmt 1 view .LVU463
 1721 0990 E9EB0100 		jmp	.L136
 1721      00
 1722              	.L131:
1083:../Backend/gnu-efi-3.0.9/lib/print.c ****                 break;
 1723              		.loc 1 1083 17 view .LVU464
1083:../Backend/gnu-efi-3.0.9/lib/print.c ****                 break;
 1724              		.loc 1 1083 33 is_stmt 0 view .LVU465
 1725 0995 488D8424 		leaq	632(%rsp), %rax
 1725      78020000 
 1726              	.LVL157:
1083:../Backend/gnu-efi-3.0.9/lib/print.c ****                 break;
 1727              		.loc 1 1083 33 view .LVU466
 1728 099d 48898424 		movq	%rax, 640(%rsp)
 1728      80020000 
1084:../Backend/gnu-efi-3.0.9/lib/print.c **** 
 1729              		.loc 1 1084 17 is_stmt 1 view .LVU467
 1730 09a5 E9D60100 		jmp	.L136
 1730      00
 1731              	.LVL158:
 1732              	.L134:
1087:../Backend/gnu-efi-3.0.9/lib/print.c ****                 break;
 1733              		.loc 1 1087 17 view .LVU468
1087:../Backend/gnu-efi-3.0.9/lib/print.c ****                 break;
 1734              		.loc 1 1087 22 is_stmt 0 view .LVU469
 1735 09aa 488B8C24 		movq	640(%rsp), %rcx
 1735      80020000 
1087:../Backend/gnu-efi-3.0.9/lib/print.c ****                 break;
 1736              		.loc 1 1087 36 view .LVU470
 1737 09b2 488D5318 		leaq	24(%rbx), %rdx
 1738 09b6 837B182F 		cmpl	$47, 24(%rbx)
 1739 09ba 7716     		ja	.L137
 1740 09bc 8B4318   		movl	24(%rbx), %eax
 1741              	.LVL159:
1087:../Backend/gnu-efi-3.0.9/lib/print.c ****                 break;
 1742              		.loc 1 1087 36 view .LVU471
 1743 09bf 48034210 		addq	16(%rdx), %rax
 1744 09c3 83431808 		addl	$8, 24(%rbx)
 1745              	.L138:
 1746 09c7 488B00   		movq	(%rax), %rax
1087:../Backend/gnu-efi-3.0.9/lib/print.c ****                 break;
 1747              		.loc 1 1087 34 discriminator 1 view .LVU472
 1748 09ca 488901   		movq	%rax, (%rcx)
1088:../Backend/gnu-efi-3.0.9/lib/print.c **** 
 1749              		.loc 1 1088 17 is_stmt 1 view .LVU473
 1750 09cd E9AE0100 		jmp	.L136
 1750      00
 1751              	.LVL160:
 1752              	.L137:
1087:../Backend/gnu-efi-3.0.9/lib/print.c ****                 break;
 1753              		.loc 1 1087 36 is_stmt 0 view .LVU474
 1754 09d2 488B4208 		movq	8(%rdx), %rax
 1755              	.LVL161:
1087:../Backend/gnu-efi-3.0.9/lib/print.c ****                 break;
 1756              		.loc 1 1087 36 view .LVU475
 1757 09d6 488D7008 		leaq	8(%rax), %rsi
 1758 09da 48897208 		movq	%rsi, 8(%rdx)
 1759 09de EBE7     		jmp	.L138
 1760              	.LVL162:
 1761              	.L129:
1099:../Backend/gnu-efi-3.0.9/lib/print.c ****                 do {
 1762              		.loc 1 1099 17 is_stmt 1 view .LVU476
1099:../Backend/gnu-efi-3.0.9/lib/print.c ****                 do {
 1763              		.loc 1 1099 22 is_stmt 0 view .LVU477
 1764 09e0 488B9424 		movq	640(%rsp), %rdx
 1764      80020000 
1099:../Backend/gnu-efi-3.0.9/lib/print.c ****                 do {
 1765              		.loc 1 1099 34 view .LVU478
 1766 09e8 48C70200 		movq	$0, (%rdx)
 1766      000000
 1767              	.L139:
1100:../Backend/gnu-efi-3.0.9/lib/print.c ****                     *Item.WidthParse = *Item.WidthParse * 10 + c - '0';
 1768              		.loc 1 1100 17 is_stmt 1 view .LVU479
1101:../Backend/gnu-efi-3.0.9/lib/print.c ****                     c = PGETC(&ps->fmt);
 1769              		.loc 1 1101 21 view .LVU480
1101:../Backend/gnu-efi-3.0.9/lib/print.c ****                     c = PGETC(&ps->fmt);
 1770              		.loc 1 1101 45 is_stmt 0 view .LVU481
 1771 09ef 488B9424 		movq	640(%rsp), %rdx
 1771      80020000 
1101:../Backend/gnu-efi-3.0.9/lib/print.c ****                     c = PGETC(&ps->fmt);
 1772              		.loc 1 1101 40 view .LVU482
 1773 09f7 488B0A   		movq	(%rdx), %rcx
1101:../Backend/gnu-efi-3.0.9/lib/print.c ****                     c = PGETC(&ps->fmt);
 1774              		.loc 1 1101 57 view .LVU483
 1775 09fa 488D0C89 		leaq	(%rcx,%rcx,4), %rcx
1101:../Backend/gnu-efi-3.0.9/lib/print.c ****                     c = PGETC(&ps->fmt);
 1776              		.loc 1 1101 62 view .LVU484
 1777 09fe 0FB7C0   		movzwl	%ax, %eax
1101:../Backend/gnu-efi-3.0.9/lib/print.c ****                     c = PGETC(&ps->fmt);
 1778              		.loc 1 1101 66 view .LVU485
 1779 0a01 488D4448 		leaq	-48(%rax,%rcx,2), %rax
 1779      D0
 1780              	.LVL163:
1101:../Backend/gnu-efi-3.0.9/lib/print.c ****                     c = PGETC(&ps->fmt);
 1781              		.loc 1 1101 38 view .LVU486
 1782 0a06 488902   		movq	%rax, (%rdx)
1102:../Backend/gnu-efi-3.0.9/lib/print.c ****                 } while (c >= '0'  &&  c <= '9') ;
 1783              		.loc 1 1102 21 is_stmt 1 view .LVU487
1102:../Backend/gnu-efi-3.0.9/lib/print.c ****                 } while (c >= '0'  &&  c <= '9') ;
 1784              		.loc 1 1102 25 is_stmt 0 view .LVU488
 1785 0a09 4889DF   		movq	%rbx, %rdi
 1786 0a0c E8000000 		call	PGETC
 1786      00
 1787              	.LVL164:
1103:../Backend/gnu-efi-3.0.9/lib/print.c ****                 ps->fmt.Index -= 1;
 1788              		.loc 1 1103 36 is_stmt 1 discriminator 1 view .LVU489
 1789 0a11 8D50D0   		leal	-48(%rax), %edx
 1790 0a14 6683FA09 		cmpw	$9, %dx
 1791 0a18 76D5     		jbe	.L139
1104:../Backend/gnu-efi-3.0.9/lib/print.c ****                 break;
 1792              		.loc 1 1104 17 view .LVU490
1104:../Backend/gnu-efi-3.0.9/lib/print.c ****                 break;
 1793              		.loc 1 1104 31 is_stmt 0 view .LVU491
 1794 0a1a 488B4308 		movq	8(%rbx), %rax
 1795              	.LVL165:
1104:../Backend/gnu-efi-3.0.9/lib/print.c ****                 break;
 1796              		.loc 1 1104 31 view .LVU492
 1797 0a1e 4883E801 		subq	$1, %rax
 1798 0a22 48894308 		movq	%rax, 8(%rbx)
1105:../Backend/gnu-efi-3.0.9/lib/print.c **** 
 1799              		.loc 1 1105 17 is_stmt 1 view .LVU493
 1800 0a26 E9550100 		jmp	.L136
 1800      00
 1801              	.LVL166:
 1802              	.L123:
1108:../Backend/gnu-efi-3.0.9/lib/print.c ****                 Item.Item.Ascii = TRUE;
 1803              		.loc 1 1108 17 view .LVU494
1108:../Backend/gnu-efi-3.0.9/lib/print.c ****                 Item.Item.Ascii = TRUE;
 1804              		.loc 1 1108 32 is_stmt 0 view .LVU495
 1805 0a2b 488D5318 		leaq	24(%rbx), %rdx
 1806 0a2f 837B182F 		cmpl	$47, 24(%rbx)
 1807 0a33 773B     		ja	.L140
 1808 0a35 8B4318   		movl	24(%rbx), %eax
 1809              	.LVL167:
1108:../Backend/gnu-efi-3.0.9/lib/print.c ****                 Item.Item.Ascii = TRUE;
 1810              		.loc 1 1108 32 view .LVU496
 1811 0a38 48034210 		addq	16(%rdx), %rax
 1812 0a3c 83431808 		addl	$8, 24(%rbx)
 1813              	.L141:
 1814 0a40 488B00   		movq	(%rax), %rax
1108:../Backend/gnu-efi-3.0.9/lib/print.c ****                 Item.Item.Ascii = TRUE;
 1815              		.loc 1 1108 30 discriminator 1 view .LVU497
 1816 0a43 48898424 		movq	%rax, 416(%rsp)
 1816      A0010000 
1109:../Backend/gnu-efi-3.0.9/lib/print.c ****                 if (!Item.Item.pc) {
 1817              		.loc 1 1109 17 is_stmt 1 view .LVU498
1109:../Backend/gnu-efi-3.0.9/lib/print.c ****                 if (!Item.Item.pc) {
 1818              		.loc 1 1109 33 is_stmt 0 view .LVU499
 1819 0a4b C6842490 		movb	$1, 400(%rsp)
 1819      01000001 
1110:../Backend/gnu-efi-3.0.9/lib/print.c ****                     Item.Item.pc = (CHAR8 *)"(null)";
 1820              		.loc 1 1110 17 is_stmt 1 view .LVU500
1110:../Backend/gnu-efi-3.0.9/lib/print.c ****                     Item.Item.pc = (CHAR8 *)"(null)";
 1821              		.loc 1 1110 20 is_stmt 0 view .LVU501
 1822 0a53 4885C0   		testq	%rax, %rax
 1823 0a56 0F852401 		jne	.L136
 1823      0000
1111:../Backend/gnu-efi-3.0.9/lib/print.c ****                 }
 1824              		.loc 1 1111 21 is_stmt 1 view .LVU502
1111:../Backend/gnu-efi-3.0.9/lib/print.c ****                 }
 1825              		.loc 1 1111 34 is_stmt 0 view .LVU503
 1826 0a5c 488D0500 		leaq	.LC4(%rip), %rax
 1826      000000
 1827 0a63 48898424 		movq	%rax, 416(%rsp)
 1827      A0010000 
 1828 0a6b E9100100 		jmp	.L136
 1828      00
 1829              	.LVL168:
 1830              	.L140:
1108:../Backend/gnu-efi-3.0.9/lib/print.c ****                 Item.Item.Ascii = TRUE;
 1831              		.loc 1 1108 32 view .LVU504
 1832 0a70 488B4208 		movq	8(%rdx), %rax
 1833              	.LVL169:
1108:../Backend/gnu-efi-3.0.9/lib/print.c ****                 Item.Item.Ascii = TRUE;
 1834              		.loc 1 1108 32 view .LVU505
 1835 0a74 488D4808 		leaq	8(%rax), %rcx
 1836 0a78 48894A08 		movq	%rcx, 8(%rdx)
 1837 0a7c EBC2     		jmp	.L141
 1838              	.LVL170:
 1839              	.L113:
1116:../Backend/gnu-efi-3.0.9/lib/print.c ****                 if (!Item.Item.pw) {
 1840              		.loc 1 1116 17 is_stmt 1 view .LVU506
1116:../Backend/gnu-efi-3.0.9/lib/print.c ****                 if (!Item.Item.pw) {
 1841              		.loc 1 1116 32 is_stmt 0 view .LVU507
 1842 0a7e 488D5318 		leaq	24(%rbx), %rdx
 1843 0a82 837B182F 		cmpl	$47, 24(%rbx)
 1844 0a86 7733     		ja	.L142
 1845 0a88 8B4318   		movl	24(%rbx), %eax
 1846              	.LVL171:
1116:../Backend/gnu-efi-3.0.9/lib/print.c ****                 if (!Item.Item.pw) {
 1847              		.loc 1 1116 32 view .LVU508
 1848 0a8b 48034210 		addq	16(%rdx), %rax
 1849 0a8f 83431808 		addl	$8, 24(%rbx)
 1850              	.L143:
 1851 0a93 488B00   		movq	(%rax), %rax
1116:../Backend/gnu-efi-3.0.9/lib/print.c ****                 if (!Item.Item.pw) {
 1852              		.loc 1 1116 30 discriminator 1 view .LVU509
 1853 0a96 48898424 		movq	%rax, 416(%rsp)
 1853      A0010000 
1117:../Backend/gnu-efi-3.0.9/lib/print.c ****                     Item.Item.pw = L"(null)";
 1854              		.loc 1 1117 17 is_stmt 1 view .LVU510
1117:../Backend/gnu-efi-3.0.9/lib/print.c ****                     Item.Item.pw = L"(null)";
 1855              		.loc 1 1117 20 is_stmt 0 view .LVU511
 1856 0a9e 4885C0   		testq	%rax, %rax
 1857 0aa1 0F85D900 		jne	.L136
 1857      0000
1118:../Backend/gnu-efi-3.0.9/lib/print.c ****                 }
 1858              		.loc 1 1118 21 is_stmt 1 view .LVU512
1118:../Backend/gnu-efi-3.0.9/lib/print.c ****                 }
 1859              		.loc 1 1118 34 is_stmt 0 view .LVU513
 1860 0aa7 488D0500 		leaq	.LC5(%rip), %rax
 1860      000000
 1861 0aae 48898424 		movq	%rax, 416(%rsp)
 1861      A0010000 
 1862 0ab6 E9C50000 		jmp	.L136
 1862      00
 1863              	.LVL172:
 1864              	.L142:
1116:../Backend/gnu-efi-3.0.9/lib/print.c ****                 if (!Item.Item.pw) {
 1865              		.loc 1 1116 32 view .LVU514
 1866 0abb 488B4208 		movq	8(%rdx), %rax
 1867              	.LVL173:
1116:../Backend/gnu-efi-3.0.9/lib/print.c ****                 if (!Item.Item.pw) {
 1868              		.loc 1 1116 32 view .LVU515
 1869 0abf 488D4808 		leaq	8(%rax), %rcx
 1870 0ac3 48894A08 		movq	%rcx, 8(%rdx)
 1871 0ac7 EBCA     		jmp	.L143
 1872              	.LVL174:
 1873              	.L122:
1123:../Backend/gnu-efi-3.0.9/lib/print.c ****                 Item.Scratch[1] = 0;
 1874              		.loc 1 1123 17 is_stmt 1 view .LVU516
1123:../Backend/gnu-efi-3.0.9/lib/print.c ****                 Item.Scratch[1] = 0;
 1875              		.loc 1 1123 44 is_stmt 0 view .LVU517
 1876 0ac9 488D5318 		leaq	24(%rbx), %rdx
 1877 0acd 837B182F 		cmpl	$47, 24(%rbx)
 1878 0ad1 7732     		ja	.L144
 1879 0ad3 8B4318   		movl	24(%rbx), %eax
 1880              	.LVL175:
1123:../Backend/gnu-efi-3.0.9/lib/print.c ****                 Item.Scratch[1] = 0;
 1881              		.loc 1 1123 44 view .LVU518
 1882 0ad6 48034210 		addq	16(%rdx), %rax
 1883 0ada 83431808 		addl	$8, 24(%rbx)
 1884              	.L145:
 1885 0ade 488B00   		movq	(%rax), %rax
1123:../Backend/gnu-efi-3.0.9/lib/print.c ****                 Item.Scratch[1] = 0;
 1886              		.loc 1 1123 33 discriminator 1 view .LVU519
 1887 0ae1 66898424 		movw	%ax, 424(%rsp)
 1887      A8010000 
1124:../Backend/gnu-efi-3.0.9/lib/print.c ****                 Item.Item.pw = Item.Scratch;
 1888              		.loc 1 1124 17 is_stmt 1 view .LVU520
1124:../Backend/gnu-efi-3.0.9/lib/print.c ****                 Item.Item.pw = Item.Scratch;
 1889              		.loc 1 1124 33 is_stmt 0 view .LVU521
 1890 0ae9 66C78424 		movw	$0, 426(%rsp)
 1890      AA010000 
 1890      0000
1125:../Backend/gnu-efi-3.0.9/lib/print.c ****                 break;
 1891              		.loc 1 1125 17 is_stmt 1 view .LVU522
1125:../Backend/gnu-efi-3.0.9/lib/print.c ****                 break;
 1892              		.loc 1 1125 30 is_stmt 0 view .LVU523
 1893 0af3 488D8424 		leaq	424(%rsp), %rax
 1893      A8010000 
 1894 0afb 48898424 		movq	%rax, 416(%rsp)
 1894      A0010000 
1126:../Backend/gnu-efi-3.0.9/lib/print.c **** 
 1895              		.loc 1 1126 17 is_stmt 1 view .LVU524
 1896 0b03 EB7B     		jmp	.L136
 1897              	.LVL176:
 1898              	.L144:
1123:../Backend/gnu-efi-3.0.9/lib/print.c ****                 Item.Scratch[1] = 0;
 1899              		.loc 1 1123 44 is_stmt 0 view .LVU525
 1900 0b05 488B4208 		movq	8(%rdx), %rax
 1901              	.LVL177:
1123:../Backend/gnu-efi-3.0.9/lib/print.c ****                 Item.Scratch[1] = 0;
 1902              		.loc 1 1123 44 view .LVU526
 1903 0b09 488D4808 		leaq	8(%rax), %rcx
 1904 0b0d 48894A08 		movq	%rcx, 8(%rdx)
 1905 0b11 EBCB     		jmp	.L145
 1906              	.LVL178:
 1907              	.L116:
1129:../Backend/gnu-efi-3.0.9/lib/print.c ****                 break;
 1908              		.loc 1 1129 17 is_stmt 1 view .LVU527
1129:../Backend/gnu-efi-3.0.9/lib/print.c ****                 break;
 1909              		.loc 1 1129 27 is_stmt 0 view .LVU528
 1910 0b13 C684248C 		movb	$1, 652(%rsp)
 1910      02000001 
1130:../Backend/gnu-efi-3.0.9/lib/print.c **** 
 1911              		.loc 1 1130 17 is_stmt 1 view .LVU529
 1912 0b1b EB63     		jmp	.L136
 1913              	.L124:
1133:../Backend/gnu-efi-3.0.9/lib/print.c ****                 Item.Pad = '0';
 1914              		.loc 1 1133 17 view .LVU530
1133:../Backend/gnu-efi-3.0.9/lib/print.c ****                 Item.Pad = '0';
 1915              		.loc 1 1133 45 is_stmt 0 view .LVU531
 1916 0b1d 80BC248C 		cmpb	$0, 652(%rsp)
 1916      02000000 
 1917 0b25 0F849F00 		je	.L179
 1917      0000
1133:../Backend/gnu-efi-3.0.9/lib/print.c ****                 Item.Pad = '0';
 1918              		.loc 1 1133 45 discriminator 1 view .LVU532
 1919 0b2b B8100000 		movl	$16, %eax
 1919      00
 1920              	.LVL179:
 1921              	.L146:
1133:../Backend/gnu-efi-3.0.9/lib/print.c ****                 Item.Pad = '0';
 1922              		.loc 1 1133 28 discriminator 4 view .LVU533
 1923 0b30 48898424 		movq	%rax, 624(%rsp)
 1923      70020000 
1134:../Backend/gnu-efi-3.0.9/lib/print.c **** #if __GNUC__ >= 7
 1924              		.loc 1 1134 17 is_stmt 1 view .LVU534
1134:../Backend/gnu-efi-3.0.9/lib/print.c **** #if __GNUC__ >= 7
 1925              		.loc 1 1134 26 is_stmt 0 view .LVU535
 1926 0b38 66C78424 		movw	$48, 648(%rsp)
 1926      88020000 
 1926      3000
 1927              	.L109:
1136:../Backend/gnu-efi-3.0.9/lib/print.c **** #endif
 1928              		.loc 1 1136 3 is_stmt 1 view .LVU536
1139:../Backend/gnu-efi-3.0.9/lib/print.c ****                     Item.Scratch,
 1929              		.loc 1 1139 17 view .LVU537
 1930 0b42 80BC248C 		cmpb	$0, 652(%rsp)
 1930      02000000 
 1931 0b4a 0F849200 		je	.L147
 1931      0000
1141:../Backend/gnu-efi-3.0.9/lib/print.c ****                     );
 1932              		.loc 1 1141 33 is_stmt 0 view .LVU538
 1933 0b50 488D5318 		leaq	24(%rbx), %rdx
1139:../Backend/gnu-efi-3.0.9/lib/print.c ****                     Item.Scratch,
 1934              		.loc 1 1139 17 discriminator 1 view .LVU539
 1935 0b54 837B182F 		cmpl	$47, 24(%rbx)
 1936 0b58 777A     		ja	.L148
 1937 0b5a 8B4318   		movl	24(%rbx), %eax
 1938 0b5d 48034210 		addq	16(%rdx), %rax
 1939 0b61 83431808 		addl	$8, 24(%rbx)
 1940              	.L149:
 1941 0b65 488B30   		movq	(%rax), %rsi
 1942              	.L150:
1139:../Backend/gnu-efi-3.0.9/lib/print.c ****                     Item.Scratch,
 1943              		.loc 1 1139 17 discriminator 4 view .LVU540
 1944 0b68 4C8DA424 		leaq	424(%rsp), %r12
 1944      A8010000 
 1945 0b70 4C89E7   		movq	%r12, %rdi
 1946 0b73 E8000000 		call	ValueToHex
 1946      00
 1947              	.LVL180:
1143:../Backend/gnu-efi-3.0.9/lib/print.c **** 
 1948              		.loc 1 1143 17 is_stmt 1 view .LVU541
1143:../Backend/gnu-efi-3.0.9/lib/print.c **** 
 1949              		.loc 1 1143 30 is_stmt 0 view .LVU542
 1950 0b78 4C89A424 		movq	%r12, 416(%rsp)
 1950      A0010000 
1145:../Backend/gnu-efi-3.0.9/lib/print.c **** 
 1951              		.loc 1 1145 17 is_stmt 1 view .LVU543
 1952              	.LVL181:
 1953              	.L136:
1234:../Backend/gnu-efi-3.0.9/lib/print.c ****                 PITEM (ps);
 1954              		.loc 1 1234 13 view .LVU544
1234:../Backend/gnu-efi-3.0.9/lib/print.c ****                 PITEM (ps);
 1955              		.loc 1 1234 16 is_stmt 0 view .LVU545
 1956 0b80 4883BC24 		cmpq	$0, 416(%rsp)
 1956      A0010000 
 1956      00
 1957 0b89 0F856A03 		jne	.L183
 1957      0000
1240:../Backend/gnu-efi-3.0.9/lib/print.c ****                 PSETATTR(ps, Attr);
 1958              		.loc 1 1240 13 is_stmt 1 view .LVU546
1240:../Backend/gnu-efi-3.0.9/lib/print.c ****                 PSETATTR(ps, Attr);
 1959              		.loc 1 1240 16 is_stmt 0 view .LVU547
 1960 0b8f 4885ED   		testq	%rbp, %rbp
 1961 0b92 0F858303 		jne	.L184
 1961      0000
 1962              	.LVL182:
 1963              	.L107:
1057:../Backend/gnu-efi-3.0.9/lib/print.c **** 
 1964              		.loc 1 1057 16 is_stmt 1 view .LVU548
1057:../Backend/gnu-efi-3.0.9/lib/print.c **** 
 1965              		.loc 1 1057 21 is_stmt 0 view .LVU549
 1966 0b98 4889DF   		movq	%rbx, %rdi
 1967 0b9b E8000000 		call	PGETC
 1967      00
 1968              	.LVL183:
1057:../Backend/gnu-efi-3.0.9/lib/print.c **** 
 1969              		.loc 1 1057 16 discriminator 1 view .LVU550
 1970 0ba0 6685C0   		testw	%ax, %ax
 1971 0ba3 0F845803 		je	.L176
 1971      0000
1059:../Backend/gnu-efi-3.0.9/lib/print.c **** 
 1972              		.loc 1 1059 13 is_stmt 1 view .LVU551
 1973 0ba9 8D50DB   		leal	-37(%rax), %edx
 1974 0bac 6683FA53 		cmpw	$83, %dx
 1975 0bb0 0F871A03 		ja	.L108
 1975      0000
 1976 0bb6 0FB7D2   		movzwl	%dx, %edx
 1977 0bb9 488D0D00 		leaq	.L110(%rip), %rcx
 1977      000000
 1978 0bc0 48631491 		movslq	(%rcx,%rdx,4), %rdx
 1979 0bc4 4801CA   		addq	%rcx, %rdx
 1980 0bc7 3EFFE2   		notrack jmp	*%rdx
 1981              		.section	.rodata
 1982 004e 0000     		.align 4
 1983              		.align 4
 1984              	.L110:
 1985 0050 00000000 		.long	.L135-.L110
 1986 0054 00000000 		.long	.L108-.L110
 1987 0058 00000000 		.long	.L108-.L110
 1988 005c 00000000 		.long	.L108-.L110
 1989 0060 00000000 		.long	.L108-.L110
 1990 0064 00000000 		.long	.L134-.L110
 1991 0068 00000000 		.long	.L108-.L110
 1992 006c 00000000 		.long	.L133-.L110
 1993 0070 00000000 		.long	.L132-.L110
 1994 0074 00000000 		.long	.L131-.L110
 1995 0078 00000000 		.long	.L108-.L110
 1996 007c 00000000 		.long	.L130-.L110
 1997 0080 00000000 		.long	.L129-.L110
 1998 0084 00000000 		.long	.L129-.L110
 1999 0088 00000000 		.long	.L129-.L110
 2000 008c 00000000 		.long	.L129-.L110
 2001 0090 00000000 		.long	.L129-.L110
 2002 0094 00000000 		.long	.L129-.L110
 2003 0098 00000000 		.long	.L129-.L110
 2004 009c 00000000 		.long	.L129-.L110
 2005 00a0 00000000 		.long	.L129-.L110
 2006 00a4 00000000 		.long	.L108-.L110
 2007 00a8 00000000 		.long	.L108-.L110
 2008 00ac 00000000 		.long	.L108-.L110
 2009 00b0 00000000 		.long	.L108-.L110
 2010 00b4 00000000 		.long	.L108-.L110
 2011 00b8 00000000 		.long	.L108-.L110
 2012 00bc 00000000 		.long	.L108-.L110
 2013 00c0 00000000 		.long	.L108-.L110
 2014 00c4 00000000 		.long	.L108-.L110
 2015 00c8 00000000 		.long	.L108-.L110
 2016 00cc 00000000 		.long	.L128-.L110
 2017 00d0 00000000 		.long	.L127-.L110
 2018 00d4 00000000 		.long	.L108-.L110
 2019 00d8 00000000 		.long	.L108-.L110
 2020 00dc 00000000 		.long	.L126-.L110
 2021 00e0 00000000 		.long	.L108-.L110
 2022 00e4 00000000 		.long	.L108-.L110
 2023 00e8 00000000 		.long	.L108-.L110
 2024 00ec 00000000 		.long	.L108-.L110
 2025 00f0 00000000 		.long	.L108-.L110
 2026 00f4 00000000 		.long	.L125-.L110
 2027 00f8 00000000 		.long	.L108-.L110
 2028 00fc 00000000 		.long	.L108-.L110
 2029 0100 00000000 		.long	.L108-.L110
 2030 0104 00000000 		.long	.L108-.L110
 2031 0108 00000000 		.long	.L108-.L110
 2032 010c 00000000 		.long	.L108-.L110
 2033 0110 00000000 		.long	.L108-.L110
 2034 0114 00000000 		.long	.L108-.L110
 2035 0118 00000000 		.long	.L108-.L110
 2036 011c 00000000 		.long	.L124-.L110
 2037 0120 00000000 		.long	.L108-.L110
 2038 0124 00000000 		.long	.L108-.L110
 2039 0128 00000000 		.long	.L108-.L110
 2040 012c 00000000 		.long	.L108-.L110
 2041 0130 00000000 		.long	.L108-.L110
 2042 0134 00000000 		.long	.L108-.L110
 2043 0138 00000000 		.long	.L108-.L110
 2044 013c 00000000 		.long	.L108-.L110
 2045 0140 00000000 		.long	.L123-.L110
 2046 0144 00000000 		.long	.L108-.L110
 2047 0148 00000000 		.long	.L122-.L110
 2048 014c 00000000 		.long	.L121-.L110
 2049 0150 00000000 		.long	.L120-.L110
 2050 0154 00000000 		.long	.L119-.L110
 2051 0158 00000000 		.long	.L118-.L110
 2052 015c 00000000 		.long	.L117-.L110
 2053 0160 00000000 		.long	.L108-.L110
 2054 0164 00000000 		.long	.L108-.L110
 2055 0168 00000000 		.long	.L108-.L110
 2056 016c 00000000 		.long	.L116-.L110
 2057 0170 00000000 		.long	.L108-.L110
 2058 0174 00000000 		.long	.L115-.L110
 2059 0178 00000000 		.long	.L108-.L110
 2060 017c 00000000 		.long	.L108-.L110
 2061 0180 00000000 		.long	.L108-.L110
 2062 0184 00000000 		.long	.L114-.L110
 2063 0188 00000000 		.long	.L113-.L110
 2064 018c 00000000 		.long	.L112-.L110
 2065 0190 00000000 		.long	.L111-.L110
 2066 0194 00000000 		.long	.L108-.L110
 2067 0198 00000000 		.long	.L108-.L110
 2068 019c 00000000 		.long	.L109-.L110
 2069              		.text
 2070              	.L179:
1133:../Backend/gnu-efi-3.0.9/lib/print.c ****                 Item.Pad = '0';
 2071              		.loc 1 1133 45 is_stmt 0 discriminator 2 view .LVU552
 2072 0bca B8080000 		movl	$8, %eax
 2072      00
 2073              	.LVL184:
1133:../Backend/gnu-efi-3.0.9/lib/print.c ****                 Item.Pad = '0';
 2074              		.loc 1 1133 45 discriminator 2 view .LVU553
 2075 0bcf E95CFFFF 		jmp	.L146
 2075      FF
 2076              	.L148:
1139:../Backend/gnu-efi-3.0.9/lib/print.c ****                     Item.Scratch,
 2077              		.loc 1 1139 17 discriminator 1 view .LVU554
 2078 0bd4 488B4208 		movq	8(%rdx), %rax
 2079 0bd8 488D4808 		leaq	8(%rax), %rcx
 2080 0bdc 48894A08 		movq	%rcx, 8(%rdx)
 2081 0be0 EB83     		jmp	.L149
 2082              	.L147:
1141:../Backend/gnu-efi-3.0.9/lib/print.c ****                     );
 2083              		.loc 1 1141 60 view .LVU555
 2084 0be2 488D5318 		leaq	24(%rbx), %rdx
 2085 0be6 837B182F 		cmpl	$47, 24(%rbx)
 2086 0bea 7712     		ja	.L151
 2087 0bec 8B4318   		movl	24(%rbx), %eax
 2088 0bef 48034210 		addq	16(%rdx), %rax
 2089 0bf3 83431808 		addl	$8, 24(%rbx)
 2090              	.L152:
1139:../Backend/gnu-efi-3.0.9/lib/print.c ****                     Item.Scratch,
 2091              		.loc 1 1139 17 discriminator 2 view .LVU556
 2092 0bf7 8B30     		movl	(%rax), %esi
 2093 0bf9 E96AFFFF 		jmp	.L150
 2093      FF
 2094              	.L151:
1141:../Backend/gnu-efi-3.0.9/lib/print.c ****                     );
 2095              		.loc 1 1141 60 view .LVU557
 2096 0bfe 488B4208 		movq	8(%rdx), %rax
 2097 0c02 488D4808 		leaq	8(%rax), %rcx
 2098 0c06 48894A08 		movq	%rcx, 8(%rdx)
 2099 0c0a EBEB     		jmp	.L152
 2100              	.LVL185:
 2101              	.L118:
1149:../Backend/gnu-efi-3.0.9/lib/print.c ****                 Item.Item.pw = Item.Scratch;
 2102              		.loc 1 1149 17 is_stmt 1 view .LVU558
 2103 0c0c 488D5318 		leaq	24(%rbx), %rdx
 2104 0c10 837B182F 		cmpl	$47, 24(%rbx)
 2105 0c14 772B     		ja	.L153
 2106 0c16 8B4318   		movl	24(%rbx), %eax
 2107              	.LVL186:
1149:../Backend/gnu-efi-3.0.9/lib/print.c ****                 Item.Item.pw = Item.Scratch;
 2108              		.loc 1 1149 17 is_stmt 0 view .LVU559
 2109 0c19 48034210 		addq	16(%rdx), %rax
 2110 0c1d 83431808 		addl	$8, 24(%rbx)
 2111              	.L154:
1149:../Backend/gnu-efi-3.0.9/lib/print.c ****                 Item.Item.pw = Item.Scratch;
 2112              		.loc 1 1149 17 discriminator 1 view .LVU560
 2113 0c21 488B30   		movq	(%rax), %rsi
 2114 0c24 4C8DA424 		leaq	424(%rsp), %r12
 2114      A8010000 
 2115 0c2c 4C89E7   		movq	%r12, %rdi
 2116 0c2f E8000000 		call	GuidToString
 2116      00
 2117              	.LVL187:
1150:../Backend/gnu-efi-3.0.9/lib/print.c ****                 break;
 2118              		.loc 1 1150 17 is_stmt 1 view .LVU561
1150:../Backend/gnu-efi-3.0.9/lib/print.c ****                 break;
 2119              		.loc 1 1150 30 is_stmt 0 view .LVU562
 2120 0c34 4C89A424 		movq	%r12, 416(%rsp)
 2120      A0010000 
1151:../Backend/gnu-efi-3.0.9/lib/print.c **** 
 2121              		.loc 1 1151 17 is_stmt 1 view .LVU563
 2122 0c3c E93FFFFF 		jmp	.L136
 2122      FF
 2123              	.LVL188:
 2124              	.L153:
1149:../Backend/gnu-efi-3.0.9/lib/print.c ****                 Item.Item.pw = Item.Scratch;
 2125              		.loc 1 1149 17 is_stmt 0 view .LVU564
 2126 0c41 488B4208 		movq	8(%rdx), %rax
 2127              	.LVL189:
1149:../Backend/gnu-efi-3.0.9/lib/print.c ****                 Item.Item.pw = Item.Scratch;
 2128              		.loc 1 1149 17 view .LVU565
 2129 0c45 488D4808 		leaq	8(%rax), %rcx
 2130 0c49 48894A08 		movq	%rcx, 8(%rdx)
 2131 0c4d EBD2     		jmp	.L154
 2132              	.LVL190:
 2133              	.L111:
1154:../Backend/gnu-efi-3.0.9/lib/print.c ****                     Item.Scratch,
 2134              		.loc 1 1154 17 is_stmt 1 view .LVU566
 2135 0c4f 80BC248C 		cmpb	$0, 652(%rsp)
 2135      02000000 
 2136 0c57 744B     		je	.L155
1157:../Backend/gnu-efi-3.0.9/lib/print.c ****                     );
 2137              		.loc 1 1157 33 is_stmt 0 view .LVU567
 2138 0c59 488D5318 		leaq	24(%rbx), %rdx
 2139 0c5d 837B182F 		cmpl	$47, 24(%rbx)
 2140 0c61 7733     		ja	.L156
 2141 0c63 8B4318   		movl	24(%rbx), %eax
 2142              	.LVL191:
1157:../Backend/gnu-efi-3.0.9/lib/print.c ****                     );
 2143              		.loc 1 1157 33 view .LVU568
 2144 0c66 48034210 		addq	16(%rdx), %rax
 2145 0c6a 83431808 		addl	$8, 24(%rbx)
 2146              	.L157:
 2147 0c6e 488B10   		movq	(%rax), %rdx
 2148              	.L158:
1154:../Backend/gnu-efi-3.0.9/lib/print.c ****                     Item.Scratch,
 2149              		.loc 1 1154 17 view .LVU569
 2150 0c71 0FB6B424 		movzbl	651(%rsp), %esi
 2150      8B020000 
 2151 0c79 4C8DA424 		leaq	424(%rsp), %r12
 2151      A8010000 
 2152 0c81 4C89E7   		movq	%r12, %rdi
 2153 0c84 E8000000 		call	ValueToString
 2153      00
 2154              	.LVL192:
1159:../Backend/gnu-efi-3.0.9/lib/print.c ****                 break;
 2155              		.loc 1 1159 17 is_stmt 1 view .LVU570
1159:../Backend/gnu-efi-3.0.9/lib/print.c ****                 break;
 2156              		.loc 1 1159 30 is_stmt 0 view .LVU571
 2157 0c89 4C89A424 		movq	%r12, 416(%rsp)
 2157      A0010000 
1160:../Backend/gnu-efi-3.0.9/lib/print.c **** 
 2158              		.loc 1 1160 17 is_stmt 1 view .LVU572
 2159 0c91 E9EAFEFF 		jmp	.L136
 2159      FF
 2160              	.LVL193:
 2161              	.L156:
1157:../Backend/gnu-efi-3.0.9/lib/print.c ****                     );
 2162              		.loc 1 1157 33 is_stmt 0 view .LVU573
 2163 0c96 488B4208 		movq	8(%rdx), %rax
 2164              	.LVL194:
1157:../Backend/gnu-efi-3.0.9/lib/print.c ****                     );
 2165              		.loc 1 1157 33 view .LVU574
 2166 0c9a 488D4808 		leaq	8(%rax), %rcx
 2167 0c9e 48894A08 		movq	%rcx, 8(%rdx)
 2168 0ca2 EBCA     		jmp	.L157
 2169              	.LVL195:
 2170              	.L155:
1157:../Backend/gnu-efi-3.0.9/lib/print.c ****                     );
 2171              		.loc 1 1157 60 view .LVU575
 2172 0ca4 488D5318 		leaq	24(%rbx), %rdx
 2173 0ca8 837B182F 		cmpl	$47, 24(%rbx)
 2174 0cac 770F     		ja	.L159
 2175 0cae 8B4318   		movl	24(%rbx), %eax
 2176              	.LVL196:
1157:../Backend/gnu-efi-3.0.9/lib/print.c ****                     );
 2177              		.loc 1 1157 60 view .LVU576
 2178 0cb1 48034210 		addq	16(%rdx), %rax
 2179 0cb5 83431808 		addl	$8, 24(%rbx)
 2180              	.L160:
1154:../Backend/gnu-efi-3.0.9/lib/print.c ****                     Item.Scratch,
 2181              		.loc 1 1154 17 discriminator 2 view .LVU577
 2182 0cb9 8B10     		movl	(%rax), %edx
 2183 0cbb EBB4     		jmp	.L158
 2184              	.LVL197:
 2185              	.L159:
1157:../Backend/gnu-efi-3.0.9/lib/print.c ****                     );
 2186              		.loc 1 1157 60 view .LVU578
 2187 0cbd 488B4208 		movq	8(%rdx), %rax
 2188              	.LVL198:
1157:../Backend/gnu-efi-3.0.9/lib/print.c ****                     );
 2189              		.loc 1 1157 60 view .LVU579
 2190 0cc1 488D4808 		leaq	8(%rax), %rcx
 2191 0cc5 48894A08 		movq	%rcx, 8(%rdx)
 2192 0cc9 EBEE     		jmp	.L160
 2193              	.LVL199:
 2194              	.L121:
1163:../Backend/gnu-efi-3.0.9/lib/print.c ****                     Item.Scratch,
 2195              		.loc 1 1163 17 is_stmt 1 view .LVU580
 2196 0ccb 80BC248C 		cmpb	$0, 652(%rsp)
 2196      02000000 
 2197 0cd3 744B     		je	.L161
1166:../Backend/gnu-efi-3.0.9/lib/print.c ****                     );
 2198              		.loc 1 1166 33 is_stmt 0 view .LVU581
 2199 0cd5 488D5318 		leaq	24(%rbx), %rdx
1163:../Backend/gnu-efi-3.0.9/lib/print.c ****                     Item.Scratch,
 2200              		.loc 1 1163 17 discriminator 1 view .LVU582
 2201 0cd9 837B182F 		cmpl	$47, 24(%rbx)
 2202 0cdd 7733     		ja	.L162
 2203 0cdf 8B4318   		movl	24(%rbx), %eax
 2204              	.LVL200:
1163:../Backend/gnu-efi-3.0.9/lib/print.c ****                     Item.Scratch,
 2205              		.loc 1 1163 17 discriminator 1 view .LVU583
 2206 0ce2 48034210 		addq	16(%rdx), %rax
 2207 0ce6 83431808 		addl	$8, 24(%rbx)
 2208              	.L163:
 2209 0cea 488B10   		movq	(%rax), %rdx
 2210              	.L164:
1163:../Backend/gnu-efi-3.0.9/lib/print.c ****                     Item.Scratch,
 2211              		.loc 1 1163 17 view .LVU584
 2212 0ced 0FB6B424 		movzbl	651(%rsp), %esi
 2212      8B020000 
 2213 0cf5 4C8DA424 		leaq	424(%rsp), %r12
 2213      A8010000 
 2214 0cfd 4C89E7   		movq	%r12, %rdi
 2215 0d00 E8000000 		call	ValueToString
 2215      00
 2216              	.LVL201:
1168:../Backend/gnu-efi-3.0.9/lib/print.c ****                 break;
 2217              		.loc 1 1168 17 is_stmt 1 view .LVU585
1168:../Backend/gnu-efi-3.0.9/lib/print.c ****                 break;
 2218              		.loc 1 1168 30 is_stmt 0 view .LVU586
 2219 0d05 4C89A424 		movq	%r12, 416(%rsp)
 2219      A0010000 
1169:../Backend/gnu-efi-3.0.9/lib/print.c **** 
 2220              		.loc 1 1169 17 is_stmt 1 view .LVU587
 2221 0d0d E96EFEFF 		jmp	.L136
 2221      FF
 2222              	.LVL202:
 2223              	.L162:
1163:../Backend/gnu-efi-3.0.9/lib/print.c ****                     Item.Scratch,
 2224              		.loc 1 1163 17 is_stmt 0 discriminator 1 view .LVU588
 2225 0d12 488B4208 		movq	8(%rdx), %rax
 2226              	.LVL203:
1163:../Backend/gnu-efi-3.0.9/lib/print.c ****                     Item.Scratch,
 2227              		.loc 1 1163 17 discriminator 1 view .LVU589
 2228 0d16 488D4808 		leaq	8(%rax), %rcx
 2229 0d1a 48894A08 		movq	%rcx, 8(%rdx)
 2230 0d1e EBCA     		jmp	.L163
 2231              	.LVL204:
 2232              	.L161:
1166:../Backend/gnu-efi-3.0.9/lib/print.c ****                     );
 2233              		.loc 1 1166 59 view .LVU590
 2234 0d20 488D5318 		leaq	24(%rbx), %rdx
 2235 0d24 837B182F 		cmpl	$47, 24(%rbx)
 2236 0d28 7710     		ja	.L165
 2237 0d2a 8B4318   		movl	24(%rbx), %eax
 2238              	.LVL205:
1166:../Backend/gnu-efi-3.0.9/lib/print.c ****                     );
 2239              		.loc 1 1166 59 view .LVU591
 2240 0d2d 48034210 		addq	16(%rdx), %rax
 2241 0d31 83431808 		addl	$8, 24(%rbx)
 2242              	.L166:
1163:../Backend/gnu-efi-3.0.9/lib/print.c ****                     Item.Scratch,
 2243              		.loc 1 1163 17 discriminator 2 view .LVU592
 2244 0d35 486310   		movslq	(%rax), %rdx
 2245 0d38 EBB3     		jmp	.L164
 2246              	.LVL206:
 2247              	.L165:
1166:../Backend/gnu-efi-3.0.9/lib/print.c ****                     );
 2248              		.loc 1 1166 59 view .LVU593
 2249 0d3a 488B4208 		movq	8(%rdx), %rax
 2250              	.LVL207:
1166:../Backend/gnu-efi-3.0.9/lib/print.c ****                     );
 2251              		.loc 1 1166 59 view .LVU594
 2252 0d3e 488D4808 		leaq	8(%rax), %rcx
 2253 0d42 48894A08 		movq	%rcx, 8(%rdx)
 2254 0d46 EBED     		jmp	.L166
 2255              	.LVL208:
 2256              	.L128:
 2257              	.LBB2:
1173:../Backend/gnu-efi-3.0.9/lib/print.c ****                 CHAR16 *dpstr = DevicePathToStr(dp);
 2258              		.loc 1 1173 17 is_stmt 1 view .LVU595
1173:../Backend/gnu-efi-3.0.9/lib/print.c ****                 CHAR16 *dpstr = DevicePathToStr(dp);
 2259              		.loc 1 1173 39 is_stmt 0 view .LVU596
 2260 0d48 488D5318 		leaq	24(%rbx), %rdx
1173:../Backend/gnu-efi-3.0.9/lib/print.c ****                 CHAR16 *dpstr = DevicePathToStr(dp);
 2261              		.loc 1 1173 34 view .LVU597
 2262 0d4c 837B182F 		cmpl	$47, 24(%rbx)
 2263 0d50 774D     		ja	.L167
 2264 0d52 8B4318   		movl	24(%rbx), %eax
 2265              	.LVL209:
1173:../Backend/gnu-efi-3.0.9/lib/print.c ****                 CHAR16 *dpstr = DevicePathToStr(dp);
 2266              		.loc 1 1173 34 view .LVU598
 2267 0d55 48034210 		addq	16(%rdx), %rax
 2268 0d59 83431808 		addl	$8, 24(%rbx)
 2269              	.L168:
 2270 0d5d 488B38   		movq	(%rax), %rdi
1174:../Backend/gnu-efi-3.0.9/lib/print.c ****                 StrnCpy(Item.Scratch, dpstr, PRINT_ITEM_BUFFER_LEN);
 2271              		.loc 1 1174 17 is_stmt 1 view .LVU599
1174:../Backend/gnu-efi-3.0.9/lib/print.c ****                 StrnCpy(Item.Scratch, dpstr, PRINT_ITEM_BUFFER_LEN);
 2272              		.loc 1 1174 33 is_stmt 0 view .LVU600
 2273 0d60 E8000000 		call	DevicePathToStr
 2273      00
 2274              	.LVL210:
 2275 0d65 4989C4   		movq	%rax, %r12
 2276              	.LVL211:
1175:../Backend/gnu-efi-3.0.9/lib/print.c ****                 Item.Scratch[PRINT_ITEM_BUFFER_LEN-1] = L'\0';
 2277              		.loc 1 1175 17 is_stmt 1 view .LVU601
 2278 0d68 4C8DAC24 		leaq	424(%rsp), %r13
 2278      A8010000 
 2279 0d70 BA640000 		movl	$100, %edx
 2279      00
 2280 0d75 4889C6   		movq	%rax, %rsi
 2281 0d78 4C89EF   		movq	%r13, %rdi
 2282 0d7b E8000000 		call	StrnCpy
 2282      00
 2283              	.LVL212:
1176:../Backend/gnu-efi-3.0.9/lib/print.c ****                 FreePool(dpstr);
 2284              		.loc 1 1176 17 view .LVU602
1176:../Backend/gnu-efi-3.0.9/lib/print.c ****                 FreePool(dpstr);
 2285              		.loc 1 1176 55 is_stmt 0 view .LVU603
 2286 0d80 66C78424 		movw	$0, 622(%rsp)
 2286      6E020000 
 2286      0000
1177:../Backend/gnu-efi-3.0.9/lib/print.c **** 
 2287              		.loc 1 1177 17 is_stmt 1 view .LVU604
 2288 0d8a 4C89E7   		movq	%r12, %rdi
 2289 0d8d E8000000 		call	FreePool
 2289      00
 2290              	.LVL213:
1179:../Backend/gnu-efi-3.0.9/lib/print.c ****                 break;
 2291              		.loc 1 1179 17 view .LVU605
1179:../Backend/gnu-efi-3.0.9/lib/print.c ****                 break;
 2292              		.loc 1 1179 30 is_stmt 0 view .LVU606
 2293 0d92 4C89AC24 		movq	%r13, 416(%rsp)
 2293      A0010000 
1180:../Backend/gnu-efi-3.0.9/lib/print.c ****             }
 2294              		.loc 1 1180 17 is_stmt 1 view .LVU607
 2295 0d9a E9E1FDFF 		jmp	.L136
 2295      FF
 2296              	.LVL214:
 2297              	.L167:
1173:../Backend/gnu-efi-3.0.9/lib/print.c ****                 CHAR16 *dpstr = DevicePathToStr(dp);
 2298              		.loc 1 1173 34 is_stmt 0 view .LVU608
 2299 0d9f 488B4208 		movq	8(%rdx), %rax
 2300              	.LVL215:
1173:../Backend/gnu-efi-3.0.9/lib/print.c ****                 CHAR16 *dpstr = DevicePathToStr(dp);
 2301              		.loc 1 1173 34 view .LVU609
 2302 0da3 488D4808 		leaq	8(%rax), %rcx
 2303 0da7 48894A08 		movq	%rcx, 8(%rdx)
 2304 0dab EBB0     		jmp	.L168
 2305              	.LVL216:
 2306              	.L119:
1173:../Backend/gnu-efi-3.0.9/lib/print.c ****                 CHAR16 *dpstr = DevicePathToStr(dp);
 2307              		.loc 1 1173 34 view .LVU610
 2308              	.LBE2:
1184:../Backend/gnu-efi-3.0.9/lib/print.c ****                     Item.Scratch,
 2309              		.loc 1 1184 17 is_stmt 1 view .LVU611
 2310 0dad 488D4318 		leaq	24(%rbx), %rax
 2311              	.LVL217:
1184:../Backend/gnu-efi-3.0.9/lib/print.c ****                     Item.Scratch,
 2312              		.loc 1 1184 17 is_stmt 0 view .LVU612
 2313 0db1 817B1CAF 		cmpl	$175, 28(%rbx)
 2313      000000
 2314 0db8 7734     		ja	.L169
 2315 0dba 8B5004   		movl	4(%rax), %edx
 2316 0dbd 48035010 		addq	16(%rax), %rdx
 2317 0dc1 83400410 		addl	$16, 4(%rax)
 2318              	.L170:
 2319 0dc5 F20F1002 		movsd	(%rdx), %xmm0
 2320 0dc9 0FB6B424 		movzbl	651(%rsp), %esi
 2320      8B020000 
 2321 0dd1 4C8DA424 		leaq	424(%rsp), %r12
 2321      A8010000 
 2322 0dd9 4C89E7   		movq	%r12, %rdi
 2323 0ddc E8000000 		call	FloatToString
 2323      00
 2324              	.LVL218:
1189:../Backend/gnu-efi-3.0.9/lib/print.c ****                 break;
 2325              		.loc 1 1189 17 is_stmt 1 view .LVU613
1189:../Backend/gnu-efi-3.0.9/lib/print.c ****                 break;
 2326              		.loc 1 1189 30 is_stmt 0 view .LVU614
 2327 0de1 4C89A424 		movq	%r12, 416(%rsp)
 2327      A0010000 
1190:../Backend/gnu-efi-3.0.9/lib/print.c **** 
 2328              		.loc 1 1190 17 is_stmt 1 view .LVU615
 2329 0de9 E992FDFF 		jmp	.L136
 2329      FF
 2330              	.L169:
1184:../Backend/gnu-efi-3.0.9/lib/print.c ****                     Item.Scratch,
 2331              		.loc 1 1184 17 is_stmt 0 view .LVU616
 2332 0dee 488B5008 		movq	8(%rax), %rdx
 2333 0df2 488D4A08 		leaq	8(%rdx), %rcx
 2334 0df6 48894808 		movq	%rcx, 8(%rax)
 2335 0dfa EBC9     		jmp	.L170
 2336              	.LVL219:
 2337              	.L112:
1193:../Backend/gnu-efi-3.0.9/lib/print.c ****                 Item.Item.pw = Item.Scratch;
 2338              		.loc 1 1193 17 is_stmt 1 view .LVU617
 2339 0dfc 488D5318 		leaq	24(%rbx), %rdx
 2340 0e00 837B182F 		cmpl	$47, 24(%rbx)
 2341 0e04 772B     		ja	.L171
 2342 0e06 8B4318   		movl	24(%rbx), %eax
 2343              	.LVL220:
1193:../Backend/gnu-efi-3.0.9/lib/print.c ****                 Item.Item.pw = Item.Scratch;
 2344              		.loc 1 1193 17 is_stmt 0 view .LVU618
 2345 0e09 48034210 		addq	16(%rdx), %rax
 2346 0e0d 83431808 		addl	$8, 24(%rbx)
 2347              	.L172:
1193:../Backend/gnu-efi-3.0.9/lib/print.c ****                 Item.Item.pw = Item.Scratch;
 2348              		.loc 1 1193 17 discriminator 1 view .LVU619
 2349 0e11 488B30   		movq	(%rax), %rsi
 2350 0e14 4C8DA424 		leaq	424(%rsp), %r12
 2350      A8010000 
 2351 0e1c 4C89E7   		movq	%r12, %rdi
 2352 0e1f E8000000 		call	TimeToString
 2352      00
 2353              	.LVL221:
1194:../Backend/gnu-efi-3.0.9/lib/print.c ****                 break;
 2354              		.loc 1 1194 17 is_stmt 1 view .LVU620
1194:../Backend/gnu-efi-3.0.9/lib/print.c ****                 break;
 2355              		.loc 1 1194 30 is_stmt 0 view .LVU621
 2356 0e24 4C89A424 		movq	%r12, 416(%rsp)
 2356      A0010000 
1195:../Backend/gnu-efi-3.0.9/lib/print.c **** 
 2357              		.loc 1 1195 17 is_stmt 1 view .LVU622
 2358 0e2c E94FFDFF 		jmp	.L136
 2358      FF
 2359              	.LVL222:
 2360              	.L171:
1193:../Backend/gnu-efi-3.0.9/lib/print.c ****                 Item.Item.pw = Item.Scratch;
 2361              		.loc 1 1193 17 is_stmt 0 view .LVU623
 2362 0e31 488B4208 		movq	8(%rdx), %rax
 2363              	.LVL223:
1193:../Backend/gnu-efi-3.0.9/lib/print.c ****                 Item.Item.pw = Item.Scratch;
 2364              		.loc 1 1193 17 view .LVU624
 2365 0e35 488D4808 		leaq	8(%rax), %rcx
 2366 0e39 48894A08 		movq	%rcx, 8(%rdx)
 2367 0e3d EBD2     		jmp	.L172
 2368              	.LVL224:
 2369              	.L114:
1198:../Backend/gnu-efi-3.0.9/lib/print.c ****                 Item.Item.pw = Item.Scratch;
 2370              		.loc 1 1198 17 is_stmt 1 view .LVU625
 2371 0e3f 488D5318 		leaq	24(%rbx), %rdx
 2372 0e43 837B182F 		cmpl	$47, 24(%rbx)
 2373 0e47 772B     		ja	.L173
 2374 0e49 8B4318   		movl	24(%rbx), %eax
 2375              	.LVL225:
1198:../Backend/gnu-efi-3.0.9/lib/print.c ****                 Item.Item.pw = Item.Scratch;
 2376              		.loc 1 1198 17 is_stmt 0 view .LVU626
 2377 0e4c 48034210 		addq	16(%rdx), %rax
 2378 0e50 83431808 		addl	$8, 24(%rbx)
 2379              	.L174:
1198:../Backend/gnu-efi-3.0.9/lib/print.c ****                 Item.Item.pw = Item.Scratch;
 2380              		.loc 1 1198 17 discriminator 1 view .LVU627
 2381 0e54 488B30   		movq	(%rax), %rsi
 2382 0e57 4C8DA424 		leaq	424(%rsp), %r12
 2382      A8010000 
 2383 0e5f 4C89E7   		movq	%r12, %rdi
 2384 0e62 E8000000 		call	StatusToString
 2384      00
 2385              	.LVL226:
1199:../Backend/gnu-efi-3.0.9/lib/print.c ****                 break;
 2386              		.loc 1 1199 17 is_stmt 1 view .LVU628
1199:../Backend/gnu-efi-3.0.9/lib/print.c ****                 break;
 2387              		.loc 1 1199 30 is_stmt 0 view .LVU629
 2388 0e67 4C89A424 		movq	%r12, 416(%rsp)
 2388      A0010000 
1200:../Backend/gnu-efi-3.0.9/lib/print.c **** 
 2389              		.loc 1 1200 17 is_stmt 1 view .LVU630
 2390 0e6f E90CFDFF 		jmp	.L136
 2390      FF
 2391              	.LVL227:
 2392              	.L173:
1198:../Backend/gnu-efi-3.0.9/lib/print.c ****                 Item.Item.pw = Item.Scratch;
 2393              		.loc 1 1198 17 is_stmt 0 view .LVU631
 2394 0e74 488B4208 		movq	8(%rdx), %rax
 2395              	.LVL228:
1198:../Backend/gnu-efi-3.0.9/lib/print.c ****                 Item.Item.pw = Item.Scratch;
 2396              		.loc 1 1198 17 view .LVU632
 2397 0e78 488D4808 		leaq	8(%rax), %rcx
 2398 0e7c 48894A08 		movq	%rcx, 8(%rdx)
 2399 0e80 EBD2     		jmp	.L174
 2400              	.LVL229:
 2401              	.L115:
1203:../Backend/gnu-efi-3.0.9/lib/print.c ****                 break;
 2402              		.loc 1 1203 17 is_stmt 1 view .LVU633
 2403 0e82 488B7360 		movq	96(%rbx), %rsi
 2404 0e86 4889DF   		movq	%rbx, %rdi
 2405 0e89 E8000000 		call	PSETATTR
 2405      00
 2406              	.LVL230:
1204:../Backend/gnu-efi-3.0.9/lib/print.c **** 
 2407              		.loc 1 1204 17 view .LVU634
 2408 0e8e E9EDFCFF 		jmp	.L136
 2408      FF
 2409              	.LVL231:
 2410              	.L117:
1207:../Backend/gnu-efi-3.0.9/lib/print.c ****                 break;
 2411              		.loc 1 1207 17 view .LVU635
 2412 0e93 488B7368 		movq	104(%rbx), %rsi
 2413 0e97 4889DF   		movq	%rbx, %rdi
 2414 0e9a E8000000 		call	PSETATTR
 2414      00
 2415              	.LVL232:
1208:../Backend/gnu-efi-3.0.9/lib/print.c **** 
 2416              		.loc 1 1208 17 view .LVU636
 2417 0e9f E9DCFCFF 		jmp	.L136
 2417      FF
 2418              	.LVL233:
 2419              	.L120:
1211:../Backend/gnu-efi-3.0.9/lib/print.c ****                 break;
 2420              		.loc 1 1211 17 view .LVU637
 2421 0ea4 488B7370 		movq	112(%rbx), %rsi
 2422 0ea8 4889DF   		movq	%rbx, %rdi
 2423 0eab E8000000 		call	PSETATTR
 2423      00
 2424              	.LVL234:
1212:../Backend/gnu-efi-3.0.9/lib/print.c **** 
 2425              		.loc 1 1212 17 view .LVU638
 2426 0eb0 E9CBFCFF 		jmp	.L136
 2426      FF
 2427              	.LVL235:
 2428              	.L125:
1215:../Backend/gnu-efi-3.0.9/lib/print.c ****                 break;
 2429              		.loc 1 1215 17 view .LVU639
1215:../Backend/gnu-efi-3.0.9/lib/print.c ****                 break;
 2430              		.loc 1 1215 22 is_stmt 0 view .LVU640
 2431 0eb5 488B6B60 		movq	96(%rbx), %rbp
 2432              	.LVL236:
1216:../Backend/gnu-efi-3.0.9/lib/print.c **** 
 2433              		.loc 1 1216 17 is_stmt 1 view .LVU641
 2434 0eb9 E9C2FCFF 		jmp	.L136
 2434      FF
 2435              	.L126:
1219:../Backend/gnu-efi-3.0.9/lib/print.c ****                 break;
 2436              		.loc 1 1219 17 view .LVU642
1219:../Backend/gnu-efi-3.0.9/lib/print.c ****                 break;
 2437              		.loc 1 1219 22 is_stmt 0 view .LVU643
 2438 0ebe 488B6B68 		movq	104(%rbx), %rbp
 2439              	.LVL237:
1220:../Backend/gnu-efi-3.0.9/lib/print.c **** 
 2440              		.loc 1 1220 17 is_stmt 1 view .LVU644
 2441 0ec2 E9B9FCFF 		jmp	.L136
 2441      FF
 2442              	.L127:
1223:../Backend/gnu-efi-3.0.9/lib/print.c ****                 break;
 2443              		.loc 1 1223 17 view .LVU645
1223:../Backend/gnu-efi-3.0.9/lib/print.c ****                 break;
 2444              		.loc 1 1223 22 is_stmt 0 view .LVU646
 2445 0ec7 488B6B70 		movq	112(%rbx), %rbp
 2446              	.LVL238:
1224:../Backend/gnu-efi-3.0.9/lib/print.c **** 
 2447              		.loc 1 1224 17 is_stmt 1 view .LVU647
 2448 0ecb E9B0FCFF 		jmp	.L136
 2448      FF
 2449              	.L108:
1227:../Backend/gnu-efi-3.0.9/lib/print.c ****                 Item.Scratch[1] = 0;
 2450              		.loc 1 1227 17 view .LVU648
1227:../Backend/gnu-efi-3.0.9/lib/print.c ****                 Item.Scratch[1] = 0;
 2451              		.loc 1 1227 33 is_stmt 0 view .LVU649
 2452 0ed0 66C78424 		movw	$63, 424(%rsp)
 2452      A8010000 
 2452      3F00
1228:../Backend/gnu-efi-3.0.9/lib/print.c ****                 Item.Item.pw = Item.Scratch;
 2453              		.loc 1 1228 17 is_stmt 1 view .LVU650
1228:../Backend/gnu-efi-3.0.9/lib/print.c ****                 Item.Item.pw = Item.Scratch;
 2454              		.loc 1 1228 33 is_stmt 0 view .LVU651
 2455 0eda 66C78424 		movw	$0, 426(%rsp)
 2455      AA010000 
 2455      0000
1229:../Backend/gnu-efi-3.0.9/lib/print.c ****                 break;
 2456              		.loc 1 1229 17 is_stmt 1 view .LVU652
1229:../Backend/gnu-efi-3.0.9/lib/print.c ****                 break;
 2457              		.loc 1 1229 30 is_stmt 0 view .LVU653
 2458 0ee4 488D8424 		leaq	424(%rsp), %rax
 2458      A8010000 
 2459              	.LVL239:
1229:../Backend/gnu-efi-3.0.9/lib/print.c ****                 break;
 2460              		.loc 1 1229 30 view .LVU654
 2461 0eec 48898424 		movq	%rax, 416(%rsp)
 2461      A0010000 
1230:../Backend/gnu-efi-3.0.9/lib/print.c ****             }
 2462              		.loc 1 1230 17 is_stmt 1 view .LVU655
 2463 0ef4 E987FCFF 		jmp	.L136
 2463      FF
 2464              	.LVL240:
 2465              	.L183:
1235:../Backend/gnu-efi-3.0.9/lib/print.c ****                 break;
 2466              		.loc 1 1235 17 view .LVU656
 2467 0ef9 4889DF   		movq	%rbx, %rdi
 2468 0efc E8000000 		call	PITEM
 2468      00
 2469              	.LVL241:
1236:../Backend/gnu-efi-3.0.9/lib/print.c ****             }
 2470              		.loc 1 1236 17 view .LVU657
 2471              	.L176:
1247:../Backend/gnu-efi-3.0.9/lib/print.c ****             PSETATTR(ps, ps->RestoreAttr);
 2472              		.loc 1 1247 9 view .LVU658
1247:../Backend/gnu-efi-3.0.9/lib/print.c ****             PSETATTR(ps, ps->RestoreAttr);
 2473              		.loc 1 1247 15 is_stmt 0 view .LVU659
 2474 0f01 488B7358 		movq	88(%rbx), %rsi
1247:../Backend/gnu-efi-3.0.9/lib/print.c ****             PSETATTR(ps, ps->RestoreAttr);
 2475              		.loc 1 1247 12 view .LVU660
 2476 0f05 4885F6   		testq	%rsi, %rsi
 2477 0f08 0F84AEF9 		je	.L104
 2477      FFFF
1248:../Backend/gnu-efi-3.0.9/lib/print.c ****         }
 2478              		.loc 1 1248 13 is_stmt 1 view .LVU661
 2479 0f0e 4889DF   		movq	%rbx, %rdi
 2480 0f11 E8000000 		call	PSETATTR
 2480      00
 2481              	.LVL242:
 2482 0f16 E9A1F9FF 		jmp	.L104
 2482      FF
 2483              	.L184:
1241:../Backend/gnu-efi-3.0.9/lib/print.c ****                 ps->RestoreAttr = 0;
 2484              		.loc 1 1241 17 view .LVU662
 2485 0f1b 4889EE   		movq	%rbp, %rsi
 2486 0f1e 4889DF   		movq	%rbx, %rdi
 2487 0f21 E8000000 		call	PSETATTR
 2487      00
 2488              	.LVL243:
1242:../Backend/gnu-efi-3.0.9/lib/print.c ****                 break;
 2489              		.loc 1 1242 17 view .LVU663
1242:../Backend/gnu-efi-3.0.9/lib/print.c ****                 break;
 2490              		.loc 1 1242 33 is_stmt 0 view .LVU664
 2491 0f26 48C74358 		movq	$0, 88(%rbx)
 2491      00000000 
1243:../Backend/gnu-efi-3.0.9/lib/print.c ****             }
 2492              		.loc 1 1243 17 is_stmt 1 view .LVU665
 2493 0f2e EBD1     		jmp	.L176
 2494              	.LVL244:
 2495              	.L181:
1253:../Backend/gnu-efi-3.0.9/lib/print.c ****     return ps->Len;
 2496              		.loc 1 1253 5 view .LVU666
 2497 0f30 4889DF   		movq	%rbx, %rdi
 2498 0f33 E8000000 		call	PFLUSH
 2498      00
 2499              	.LVL245:
1254:../Backend/gnu-efi-3.0.9/lib/print.c **** }
 2500              		.loc 1 1254 5 view .LVU667
1254:../Backend/gnu-efi-3.0.9/lib/print.c **** }
 2501              		.loc 1 1254 14 is_stmt 0 view .LVU668
 2502 0f38 488B4348 		movq	72(%rbx), %rax
1255:../Backend/gnu-efi-3.0.9/lib/print.c **** 
 2503              		.loc 1 1255 1 view .LVU669
 2504 0f3c 4881C498 		addq	$664, %rsp
 2504      020000
 2505              		.cfi_def_cfa_offset 40
 2506 0f43 5B       		popq	%rbx
 2507              		.cfi_restore 3
 2508              		.cfi_def_cfa_offset 32
 2509              	.LVL246:
1255:../Backend/gnu-efi-3.0.9/lib/print.c **** 
 2510              		.loc 1 1255 1 view .LVU670
 2511 0f44 5D       		popq	%rbp
 2512              		.cfi_restore 6
 2513              		.cfi_def_cfa_offset 24
 2514 0f45 415C     		popq	%r12
 2515              		.cfi_restore 12
 2516              		.cfi_def_cfa_offset 16
 2517 0f47 415D     		popq	%r13
 2518              		.cfi_restore 13
 2519              		.cfi_def_cfa_offset 8
 2520 0f49 C3       		ret
 2521              		.cfi_endproc
 2522              	.LFE23:
 2524              		.globl	DbgPrint
 2525              		.hidden	DbgPrint
 2527              	DbgPrint:
 2528              	.LVL247:
 2529              	.LFB0:
 207:../Backend/gnu-efi-3.0.9/lib/print.c ****     SIMPLE_TEXT_OUTPUT_INTERFACE    *DbgOut;
 2530              		.loc 1 207 1 is_stmt 1 view -0
 2531              		.cfi_startproc
 207:../Backend/gnu-efi-3.0.9/lib/print.c ****     SIMPLE_TEXT_OUTPUT_INTERFACE    *DbgOut;
 2532              		.loc 1 207 1 is_stmt 0 view .LVU672
 2533 0f4a F30F1EFA 		endbr64
 2534 0f4e 55       		pushq	%rbp
 2535              		.cfi_def_cfa_offset 16
 2536              		.cfi_offset 6, -16
 2537 0f4f 53       		pushq	%rbx
 2538              		.cfi_def_cfa_offset 24
 2539              		.cfi_offset 3, -24
 2540 0f50 4881EC98 		subq	$408, %rsp
 2540      010000
 2541              		.cfi_def_cfa_offset 432
 2542 0f57 4889FB   		movq	%rdi, %rbx
 2543 0f5a 4889F5   		movq	%rsi, %rbp
 2544 0f5d 48899424 		movq	%rdx, 240(%rsp)
 2544      F0000000 
 2545 0f65 48898C24 		movq	%rcx, 248(%rsp)
 2545      F8000000 
 2546 0f6d 4C898424 		movq	%r8, 256(%rsp)
 2546      00010000 
 2547 0f75 4C898C24 		movq	%r9, 264(%rsp)
 2547      08010000 
 2548 0f7d 84C0     		testb	%al, %al
 2549 0f7f 7440     		je	.L193
 2550 0f81 0F298424 		movaps	%xmm0, 272(%rsp)
 2550      10010000 
 2551 0f89 0F298C24 		movaps	%xmm1, 288(%rsp)
 2551      20010000 
 2552 0f91 0F299424 		movaps	%xmm2, 304(%rsp)
 2552      30010000 
 2553 0f99 0F299C24 		movaps	%xmm3, 320(%rsp)
 2553      40010000 
 2554 0fa1 0F29A424 		movaps	%xmm4, 336(%rsp)
 2554      50010000 
 2555 0fa9 0F29AC24 		movaps	%xmm5, 352(%rsp)
 2555      60010000 
 2556 0fb1 0F29B424 		movaps	%xmm6, 368(%rsp)
 2556      70010000 
 2557 0fb9 0F29BC24 		movaps	%xmm7, 384(%rsp)
 2557      80010000 
 2558              	.L193:
 208:../Backend/gnu-efi-3.0.9/lib/print.c ****     PRINT_STATE     ps;
 2559              		.loc 1 208 5 is_stmt 1 view .LVU673
 209:../Backend/gnu-efi-3.0.9/lib/print.c ****     va_list         args;
 2560              		.loc 1 209 5 view .LVU674
 210:../Backend/gnu-efi-3.0.9/lib/print.c ****     UINTN           back;
 2561              		.loc 1 210 5 view .LVU675
 211:../Backend/gnu-efi-3.0.9/lib/print.c ****     UINTN           attr;
 2562              		.loc 1 211 5 view .LVU676
 212:../Backend/gnu-efi-3.0.9/lib/print.c ****     UINTN           SavedAttribute;
 2563              		.loc 1 212 5 view .LVU677
 213:../Backend/gnu-efi-3.0.9/lib/print.c **** 
 2564              		.loc 1 213 5 view .LVU678
 216:../Backend/gnu-efi-3.0.9/lib/print.c ****         return 0;
 2565              		.loc 1 216 5 view .LVU679
 216:../Backend/gnu-efi-3.0.9/lib/print.c ****         return 0;
 2566              		.loc 1 216 20 is_stmt 0 view .LVU680
 2567 0fc1 4889D8   		movq	%rbx, %rax
 2568 0fc4 48230500 		andq	EFIDebug(%rip), %rax
 2568      000000
 216:../Backend/gnu-efi-3.0.9/lib/print.c ****         return 0;
 2569              		.loc 1 216 8 view .LVU681
 2570 0fcb 750F     		jne	.L195
 2571              	.LVL248:
 2572              	.L187:
 277:../Backend/gnu-efi-3.0.9/lib/print.c **** 
 2573              		.loc 1 277 1 view .LVU682
 2574 0fcd B8000000 		movl	$0, %eax
 2574      00
 2575 0fd2 4881C498 		addq	$408, %rsp
 2575      010000
 2576              		.cfi_remember_state
 2577              		.cfi_def_cfa_offset 24
 2578 0fd9 5B       		popq	%rbx
 2579              		.cfi_restore 3
 2580              		.cfi_def_cfa_offset 16
 2581              	.LVL249:
 277:../Backend/gnu-efi-3.0.9/lib/print.c **** 
 2582              		.loc 1 277 1 view .LVU683
 2583 0fda 5D       		popq	%rbp
 2584              		.cfi_restore 6
 2585              		.cfi_def_cfa_offset 8
 2586 0fdb C3       		ret
 2587              	.LVL250:
 2588              	.L195:
 2589              		.cfi_restore_state
 220:../Backend/gnu-efi-3.0.9/lib/print.c ****     ZeroMem (&ps, sizeof(ps));
 2590              		.loc 1 220 5 is_stmt 1 view .LVU684
 2591 0fdc C7442428 		movl	$16, 40(%rsp)
 2591      10000000 
 2592 0fe4 C744242C 		movl	$48, 44(%rsp)
 2592      30000000 
 2593 0fec 488D8424 		leaq	432(%rsp), %rax
 2593      B0010000 
 2594 0ff4 48894424 		movq	%rax, 48(%rsp)
 2594      30
 2595 0ff9 488D8424 		leaq	224(%rsp), %rax
 2595      E0000000 
 2596 1001 48894424 		movq	%rax, 56(%rsp)
 2596      38
 221:../Backend/gnu-efi-3.0.9/lib/print.c **** 
 2597              		.loc 1 221 5 view .LVU685
 2598 1006 488D7C24 		leaq	64(%rsp), %rdi
 2598      40
 2599 100b BE980000 		movl	$152, %esi
 2599      00
 2600              	.LVL251:
 221:../Backend/gnu-efi-3.0.9/lib/print.c **** 
 2601              		.loc 1 221 5 is_stmt 0 view .LVU686
 2602 1010 E8000000 		call	ZeroMem
 2602      00
 2603              	.LVL252:
 223:../Backend/gnu-efi-3.0.9/lib/print.c ****     ps.fmt.Ascii = TRUE;
 2604              		.loc 1 223 5 is_stmt 1 view .LVU687
 223:../Backend/gnu-efi-3.0.9/lib/print.c ****     ps.fmt.Ascii = TRUE;
 2605              		.loc 1 223 15 is_stmt 0 view .LVU688
 2606 1015 488D0500 		leaq	_DbgOut(%rip), %rax
 2606      000000
 2607 101c 48898424 		movq	%rax, 184(%rsp)
 2607      B8000000 
 224:../Backend/gnu-efi-3.0.9/lib/print.c ****     ps.fmt.pc = fmt;
 2608              		.loc 1 224 5 is_stmt 1 view .LVU689
 224:../Backend/gnu-efi-3.0.9/lib/print.c ****     ps.fmt.pc = fmt;
 2609              		.loc 1 224 18 is_stmt 0 view .LVU690
 2610 1024 C6442440 		movb	$1, 64(%rsp)
 2610      01
 225:../Backend/gnu-efi-3.0.9/lib/print.c ****     va_copy(ps.args, args);
 2611              		.loc 1 225 5 is_stmt 1 view .LVU691
 225:../Backend/gnu-efi-3.0.9/lib/print.c ****     va_copy(ps.args, args);
 2612              		.loc 1 225 15 is_stmt 0 view .LVU692
 2613 1029 48896C24 		movq	%rbp, 80(%rsp)
 2613      50
 226:../Backend/gnu-efi-3.0.9/lib/print.c ****     ps.Attr = EFI_TEXT_ATTR(EFI_LIGHTGRAY, EFI_RED);
 2614              		.loc 1 226 5 is_stmt 1 view .LVU693
 2615 102e F30F6F44 		movdqu	40(%rsp), %xmm0
 2615      2428
 2616 1034 0F114424 		movups	%xmm0, 88(%rsp)
 2616      58
 2617 1039 488B4424 		movq	56(%rsp), %rax
 2617      38
 2618 103e 48894424 		movq	%rax, 104(%rsp)
 2618      68
 227:../Backend/gnu-efi-3.0.9/lib/print.c **** 
 2619              		.loc 1 227 5 view .LVU694
 227:../Backend/gnu-efi-3.0.9/lib/print.c **** 
 2620              		.loc 1 227 13 is_stmt 0 view .LVU695
 2621 1043 48C78424 		movq	$71, 144(%rsp)
 2621      90000000 
 2621      47000000 
 229:../Backend/gnu-efi-3.0.9/lib/print.c **** 
 2622              		.loc 1 229 5 is_stmt 1 view .LVU696
 229:../Backend/gnu-efi-3.0.9/lib/print.c **** 
 2623              		.loc 1 229 12 is_stmt 0 view .LVU697
 2624 104f 488B0500 		movq	LibRuntimeDebugOut(%rip), %rax
 2624      000000
 2625              	.LVL253:
 231:../Backend/gnu-efi-3.0.9/lib/print.c ****         DbgOut = ST->StdErr;
 2626              		.loc 1 231 5 is_stmt 1 view .LVU698
 231:../Backend/gnu-efi-3.0.9/lib/print.c ****         DbgOut = ST->StdErr;
 2627              		.loc 1 231 8 is_stmt 0 view .LVU699
 2628 1056 4885C0   		testq	%rax, %rax
 2629 1059 0F84C300 		je	.L196
 2629      0000
 2630              	.L188:
 2631              	.LVL254:
 236:../Backend/gnu-efi-3.0.9/lib/print.c ****         ps.Context = DbgOut;
 2632              		.loc 1 236 9 is_stmt 1 view .LVU700
 236:../Backend/gnu-efi-3.0.9/lib/print.c ****         ps.Context = DbgOut;
 2633              		.loc 1 236 25 is_stmt 0 view .LVU701
 2634 105f 488B5048 		movq	72(%rax), %rdx
 236:../Backend/gnu-efi-3.0.9/lib/print.c ****         ps.Context = DbgOut;
 2635              		.loc 1 236 31 view .LVU702
 2636 1063 48635208 		movslq	8(%rdx), %rdx
 236:../Backend/gnu-efi-3.0.9/lib/print.c ****         ps.Context = DbgOut;
 2637              		.loc 1 236 17 view .LVU703
 2638 1067 48899424 		movq	%rdx, 144(%rsp)
 2638      90000000 
 237:../Backend/gnu-efi-3.0.9/lib/print.c ****         ps.SetAttr = (INTN (EFIAPI *)(VOID *, UINTN))  DbgOut->SetAttribute;
 2639              		.loc 1 237 9 is_stmt 1 view .LVU704
 237:../Backend/gnu-efi-3.0.9/lib/print.c ****         ps.SetAttr = (INTN (EFIAPI *)(VOID *, UINTN))  DbgOut->SetAttribute;
 2640              		.loc 1 237 20 is_stmt 0 view .LVU705
 2641 106f 48898424 		movq	%rax, 200(%rsp)
 2641      C8000000 
 238:../Backend/gnu-efi-3.0.9/lib/print.c ****     }
 2642              		.loc 1 238 9 is_stmt 1 view .LVU706
 238:../Backend/gnu-efi-3.0.9/lib/print.c ****     }
 2643              		.loc 1 238 62 is_stmt 0 view .LVU707
 2644 1077 488B4028 		movq	40(%rax), %rax
 238:../Backend/gnu-efi-3.0.9/lib/print.c ****     }
 2645              		.loc 1 238 20 view .LVU708
 2646 107b 48898424 		movq	%rax, 192(%rsp)
 2646      C0000000 
 2647              	.L189:
 241:../Backend/gnu-efi-3.0.9/lib/print.c **** 
 2648              		.loc 1 241 5 is_stmt 1 view .LVU709
 241:../Backend/gnu-efi-3.0.9/lib/print.c **** 
 2649              		.loc 1 241 20 is_stmt 0 view .LVU710
 2650 1083 488BAC24 		movq	144(%rsp), %rbp
 2650      90000000 
 2651              	.LVL255:
 243:../Backend/gnu-efi-3.0.9/lib/print.c ****     ps.AttrNorm = EFI_TEXT_ATTR(EFI_LIGHTGRAY, back);
 2652              		.loc 1 243 5 is_stmt 1 view .LVU711
 243:../Backend/gnu-efi-3.0.9/lib/print.c ****     ps.AttrNorm = EFI_TEXT_ATTR(EFI_LIGHTGRAY, back);
 2653              		.loc 1 243 21 is_stmt 0 view .LVU712
 2654 108b 4889EA   		movq	%rbp, %rdx
 2655 108e 48C1EA04 		shrq	$4, %rdx
 243:../Backend/gnu-efi-3.0.9/lib/print.c ****     ps.AttrNorm = EFI_TEXT_ATTR(EFI_LIGHTGRAY, back);
 2656              		.loc 1 243 10 view .LVU713
 2657 1092 83E20F   		andl	$15, %edx
 2658              	.LVL256:
 244:../Backend/gnu-efi-3.0.9/lib/print.c ****     ps.AttrHighlight = EFI_TEXT_ATTR(EFI_WHITE, back);
 2659              		.loc 1 244 5 is_stmt 1 view .LVU714
 244:../Backend/gnu-efi-3.0.9/lib/print.c ****     ps.AttrHighlight = EFI_TEXT_ATTR(EFI_WHITE, back);
 2660              		.loc 1 244 19 is_stmt 0 view .LVU715
 2661 1095 48C1E204 		salq	$4, %rdx
 2662              	.LVL257:
 244:../Backend/gnu-efi-3.0.9/lib/print.c ****     ps.AttrHighlight = EFI_TEXT_ATTR(EFI_WHITE, back);
 2663              		.loc 1 244 19 view .LVU716
 2664 1099 4889D1   		movq	%rdx, %rcx
 2665 109c 4883C907 		orq	$7, %rcx
 244:../Backend/gnu-efi-3.0.9/lib/print.c ****     ps.AttrHighlight = EFI_TEXT_ATTR(EFI_WHITE, back);
 2666              		.loc 1 244 17 view .LVU717
 2667 10a0 48898C24 		movq	%rcx, 160(%rsp)
 2667      A0000000 
 245:../Backend/gnu-efi-3.0.9/lib/print.c ****     ps.AttrError = EFI_TEXT_ATTR(EFI_YELLOW, back);
 2668              		.loc 1 245 5 is_stmt 1 view .LVU718
 245:../Backend/gnu-efi-3.0.9/lib/print.c ****     ps.AttrError = EFI_TEXT_ATTR(EFI_YELLOW, back);
 2669              		.loc 1 245 24 is_stmt 0 view .LVU719
 2670 10a8 4889D0   		movq	%rdx, %rax
 2671 10ab 4883C80F 		orq	$15, %rax
 245:../Backend/gnu-efi-3.0.9/lib/print.c ****     ps.AttrError = EFI_TEXT_ATTR(EFI_YELLOW, back);
 2672              		.loc 1 245 22 view .LVU720
 2673 10af 48898424 		movq	%rax, 168(%rsp)
 2673      A8000000 
 246:../Backend/gnu-efi-3.0.9/lib/print.c **** 
 2674              		.loc 1 246 5 is_stmt 1 view .LVU721
 246:../Backend/gnu-efi-3.0.9/lib/print.c **** 
 2675              		.loc 1 246 20 is_stmt 0 view .LVU722
 2676 10b7 4883CA0E 		orq	$14, %rdx
 246:../Backend/gnu-efi-3.0.9/lib/print.c **** 
 2677              		.loc 1 246 18 view .LVU723
 2678 10bb 48899424 		movq	%rdx, 176(%rsp)
 2678      B0000000 
 248:../Backend/gnu-efi-3.0.9/lib/print.c **** 
 2679              		.loc 1 248 5 is_stmt 1 view .LVU724
 2680              	.LVL258:
 250:../Backend/gnu-efi-3.0.9/lib/print.c ****         attr = ps.AttrHighlight;
 2681              		.loc 1 250 5 view .LVU725
 250:../Backend/gnu-efi-3.0.9/lib/print.c ****         attr = ps.AttrHighlight;
 2682              		.loc 1 250 8 is_stmt 0 view .LVU726
 2683 10c3 F6C302   		testb	$2, %bl
 2684 10c6 7503     		jne	.L190
 248:../Backend/gnu-efi-3.0.9/lib/print.c **** 
 2685              		.loc 1 248 10 view .LVU727
 2686 10c8 4889C8   		movq	%rcx, %rax
 2687              	.L190:
 2688              	.LVL259:
 254:../Backend/gnu-efi-3.0.9/lib/print.c ****         attr = ps.AttrError;
 2689              		.loc 1 254 5 is_stmt 1 view .LVU728
 254:../Backend/gnu-efi-3.0.9/lib/print.c ****         attr = ps.AttrError;
 2690              		.loc 1 254 8 is_stmt 0 view .LVU729
 2691 10cb F7C30000 		testl	$2147483648, %ebx
 2691      0080
 2692 10d1 7503     		jne	.L191
 2693 10d3 4889C2   		movq	%rax, %rdx
 2694              	.L191:
 2695              	.LVL260:
 258:../Backend/gnu-efi-3.0.9/lib/print.c ****         ps.Attr = attr;
 2696              		.loc 1 258 5 is_stmt 1 view .LVU730
 258:../Backend/gnu-efi-3.0.9/lib/print.c ****         ps.Attr = attr;
 2697              		.loc 1 258 11 is_stmt 0 view .LVU731
 2698 10d6 488B8424 		movq	192(%rsp), %rax
 2698      C0000000 
 258:../Backend/gnu-efi-3.0.9/lib/print.c ****         ps.Attr = attr;
 2699              		.loc 1 258 8 view .LVU732
 2700 10de 4885C0   		testq	%rax, %rax
 2701 10e1 7412     		je	.L192
 259:../Backend/gnu-efi-3.0.9/lib/print.c ****         uefi_call_wrapper(ps.SetAttr, 2, ps.Context, attr);
 2702              		.loc 1 259 9 is_stmt 1 view .LVU733
 259:../Backend/gnu-efi-3.0.9/lib/print.c ****         uefi_call_wrapper(ps.SetAttr, 2, ps.Context, attr);
 2703              		.loc 1 259 17 is_stmt 0 view .LVU734
 2704 10e3 48899424 		movq	%rdx, 144(%rsp)
 2704      90000000 
 260:../Backend/gnu-efi-3.0.9/lib/print.c ****     }
 2705              		.loc 1 260 9 is_stmt 1 view .LVU735
 2706 10eb 488B8C24 		movq	200(%rsp), %rcx
 2706      C8000000 
 2707 10f3 FFD0     		call	*%rax
 2708              	.LVL261:
 2709              	.L192:
 263:../Backend/gnu-efi-3.0.9/lib/print.c **** 
 2710              		.loc 1 263 5 view .LVU736
 2711 10f5 488D7C24 		leaq	64(%rsp), %rdi
 2711      40
 2712 10fa E8000000 		call	_Print
 2712      00
 2713              	.LVL262:
 265:../Backend/gnu-efi-3.0.9/lib/print.c ****     va_end (args);
 2714              		.loc 1 265 5 view .LVU737
 266:../Backend/gnu-efi-3.0.9/lib/print.c **** 
 2715              		.loc 1 266 5 view .LVU738
 272:../Backend/gnu-efi-3.0.9/lib/print.c ****         uefi_call_wrapper(ps.SetAttr, 2, ps.Context, SavedAttribute);
 2716              		.loc 1 272 5 view .LVU739
 272:../Backend/gnu-efi-3.0.9/lib/print.c ****         uefi_call_wrapper(ps.SetAttr, 2, ps.Context, SavedAttribute);
 2717              		.loc 1 272 11 is_stmt 0 view .LVU740
 2718 10ff 488B8424 		movq	192(%rsp), %rax
 2718      C0000000 
 272:../Backend/gnu-efi-3.0.9/lib/print.c ****         uefi_call_wrapper(ps.SetAttr, 2, ps.Context, SavedAttribute);
 2719              		.loc 1 272 8 view .LVU741
 2720 1107 4885C0   		testq	%rax, %rax
 2721 110a 0F84BDFE 		je	.L187
 2721      FFFF
 273:../Backend/gnu-efi-3.0.9/lib/print.c ****     }
 2722              		.loc 1 273 9 is_stmt 1 view .LVU742
 2723 1110 4889EA   		movq	%rbp, %rdx
 2724 1113 488B8C24 		movq	200(%rsp), %rcx
 2724      C8000000 
 2725 111b FFD0     		call	*%rax
 2726              	.LVL263:
 2727 111d E9ABFEFF 		jmp	.L187
 2727      FF
 2728              	.LVL264:
 2729              	.L196:
 232:../Backend/gnu-efi-3.0.9/lib/print.c ****     }
 2730              		.loc 1 232 9 view .LVU743
 232:../Backend/gnu-efi-3.0.9/lib/print.c ****     }
 2731              		.loc 1 232 20 is_stmt 0 view .LVU744
 2732 1122 488B0500 		movq	ST(%rip), %rax
 2732      000000
 2733              	.LVL265:
 232:../Backend/gnu-efi-3.0.9/lib/print.c ****     }
 2734              		.loc 1 232 16 view .LVU745
 2735 1129 488B4050 		movq	80(%rax), %rax
 2736              	.LVL266:
 235:../Backend/gnu-efi-3.0.9/lib/print.c ****         ps.Attr = DbgOut->Mode->Attribute;
 2737              		.loc 1 235 5 is_stmt 1 view .LVU746
 235:../Backend/gnu-efi-3.0.9/lib/print.c ****         ps.Attr = DbgOut->Mode->Attribute;
 2738              		.loc 1 235 8 is_stmt 0 view .LVU747
 2739 112d 4885C0   		testq	%rax, %rax
 2740 1130 0F8529FF 		jne	.L188
 2740      FFFF
 2741 1136 E948FFFF 		jmp	.L189
 2741      FF
 2742              		.cfi_endproc
 2743              	.LFE0:
 2745              		.globl	_PoolCatPrint
 2746              		.hidden	_PoolCatPrint
 2748              	_PoolCatPrint:
 2749              	.LVL267:
 2750              	.LFB5:
 409:../Backend/gnu-efi-3.0.9/lib/print.c ****     PRINT_STATE         ps;
 2751              		.loc 1 409 1 is_stmt 1 view -0
 2752              		.cfi_startproc
 409:../Backend/gnu-efi-3.0.9/lib/print.c ****     PRINT_STATE         ps;
 2753              		.loc 1 409 1 is_stmt 0 view .LVU749
 2754 113b F30F1EFA 		endbr64
 2755 113f 4156     		pushq	%r14
 2756              		.cfi_def_cfa_offset 16
 2757              		.cfi_offset 14, -16
 2758 1141 4155     		pushq	%r13
 2759              		.cfi_def_cfa_offset 24
 2760              		.cfi_offset 13, -24
 2761 1143 4154     		pushq	%r12
 2762              		.cfi_def_cfa_offset 32
 2763              		.cfi_offset 12, -32
 2764 1145 55       		pushq	%rbp
 2765              		.cfi_def_cfa_offset 40
 2766              		.cfi_offset 6, -40
 2767 1146 53       		pushq	%rbx
 2768              		.cfi_def_cfa_offset 48
 2769              		.cfi_offset 3, -48
 2770 1147 4881ECA0 		subq	$160, %rsp
 2770      000000
 2771              		.cfi_def_cfa_offset 208
 2772 114e 4889FD   		movq	%rdi, %rbp
 2773 1151 4889F3   		movq	%rsi, %rbx
 2774 1154 4989D4   		movq	%rdx, %r12
 2775 1157 4989CD   		movq	%rcx, %r13
 410:../Backend/gnu-efi-3.0.9/lib/print.c **** 
 2776              		.loc 1 410 5 is_stmt 1 view .LVU750
 412:../Backend/gnu-efi-3.0.9/lib/print.c ****     ps.Output  = Output;
 2777              		.loc 1 412 5 view .LVU751
 2778 115a 4989E6   		movq	%rsp, %r14
 2779 115d BE980000 		movl	$152, %esi
 2779      00
 2780              	.LVL268:
 412:../Backend/gnu-efi-3.0.9/lib/print.c ****     ps.Output  = Output;
 2781              		.loc 1 412 5 is_stmt 0 view .LVU752
 2782 1162 4C89F7   		movq	%r14, %rdi
 2783              	.LVL269:
 412:../Backend/gnu-efi-3.0.9/lib/print.c ****     ps.Output  = Output;
 2784              		.loc 1 412 5 view .LVU753
 2785 1165 E8000000 		call	ZeroMem
 2785      00
 2786              	.LVL270:
 413:../Backend/gnu-efi-3.0.9/lib/print.c ****     ps.Context = spc;
 2787              		.loc 1 413 5 is_stmt 1 view .LVU754
 413:../Backend/gnu-efi-3.0.9/lib/print.c ****     ps.Context = spc;
 2788              		.loc 1 413 16 is_stmt 0 view .LVU755
 2789 116a 4C896C24 		movq	%r13, 120(%rsp)
 2789      78
 414:../Backend/gnu-efi-3.0.9/lib/print.c ****     ps.fmt.pw = fmt;
 2790              		.loc 1 414 5 is_stmt 1 view .LVU756
 414:../Backend/gnu-efi-3.0.9/lib/print.c ****     ps.fmt.pw = fmt;
 2791              		.loc 1 414 16 is_stmt 0 view .LVU757
 2792 116f 4C89A424 		movq	%r12, 136(%rsp)
 2792      88000000 
 415:../Backend/gnu-efi-3.0.9/lib/print.c ****     va_copy(ps.args, args);
 2793              		.loc 1 415 5 is_stmt 1 view .LVU758
 415:../Backend/gnu-efi-3.0.9/lib/print.c ****     va_copy(ps.args, args);
 2794              		.loc 1 415 15 is_stmt 0 view .LVU759
 2795 1177 48896C24 		movq	%rbp, 16(%rsp)
 2795      10
 416:../Backend/gnu-efi-3.0.9/lib/print.c ****     _Print (&ps);
 2796              		.loc 1 416 5 is_stmt 1 view .LVU760
 2797 117c F30F6F03 		movdqu	(%rbx), %xmm0
 2798 1180 0F114424 		movups	%xmm0, 24(%rsp)
 2798      18
 2799 1185 488B4310 		movq	16(%rbx), %rax
 2800 1189 48894424 		movq	%rax, 40(%rsp)
 2800      28
 417:../Backend/gnu-efi-3.0.9/lib/print.c ****     va_end(ps.args);
 2801              		.loc 1 417 5 view .LVU761
 2802 118e 4C89F7   		movq	%r14, %rdi
 2803 1191 E8000000 		call	_Print
 2803      00
 2804              	.LVL271:
 418:../Backend/gnu-efi-3.0.9/lib/print.c **** }
 2805              		.loc 1 418 5 view .LVU762
 419:../Backend/gnu-efi-3.0.9/lib/print.c **** 
 2806              		.loc 1 419 1 is_stmt 0 view .LVU763
 2807 1196 4881C4A0 		addq	$160, %rsp
 2807      000000
 2808              		.cfi_def_cfa_offset 48
 2809 119d 5B       		popq	%rbx
 2810              		.cfi_restore 3
 2811              		.cfi_def_cfa_offset 40
 2812              	.LVL272:
 419:../Backend/gnu-efi-3.0.9/lib/print.c **** 
 2813              		.loc 1 419 1 view .LVU764
 2814 119e 5D       		popq	%rbp
 2815              		.cfi_restore 6
 2816              		.cfi_def_cfa_offset 32
 2817              	.LVL273:
 419:../Backend/gnu-efi-3.0.9/lib/print.c **** 
 2818              		.loc 1 419 1 view .LVU765
 2819 119f 415C     		popq	%r12
 2820              		.cfi_restore 12
 2821              		.cfi_def_cfa_offset 24
 2822              	.LVL274:
 419:../Backend/gnu-efi-3.0.9/lib/print.c **** 
 2823              		.loc 1 419 1 view .LVU766
 2824 11a1 415D     		popq	%r13
 2825              		.cfi_restore 13
 2826              		.cfi_def_cfa_offset 16
 2827              	.LVL275:
 419:../Backend/gnu-efi-3.0.9/lib/print.c **** 
 2828              		.loc 1 419 1 view .LVU767
 2829 11a3 415E     		popq	%r14
 2830              		.cfi_restore 14
 2831              		.cfi_def_cfa_offset 8
 2832 11a5 C3       		ret
 2833              		.cfi_endproc
 2834              	.LFE5:
 2836              		.globl	VSPrint
 2837              		.hidden	VSPrint
 2839              	VSPrint:
 2840              	.LVL276:
 2841              	.LFB6:
 453:../Backend/gnu-efi-3.0.9/lib/print.c ****     POOL_PRINT          spc;
 2842              		.loc 1 453 1 is_stmt 1 view -0
 2843              		.cfi_startproc
 453:../Backend/gnu-efi-3.0.9/lib/print.c ****     POOL_PRINT          spc;
 2844              		.loc 1 453 1 is_stmt 0 view .LVU769
 2845 11a6 F30F1EFA 		endbr64
 2846 11aa 4883EC28 		subq	$40, %rsp
 2847              		.cfi_def_cfa_offset 48
 2848 11ae 4989F8   		movq	%rdi, %r8
 2849 11b1 4889D7   		movq	%rdx, %rdi
 2850              	.LVL277:
 453:../Backend/gnu-efi-3.0.9/lib/print.c ****     POOL_PRINT          spc;
 2851              		.loc 1 453 1 view .LVU770
 2852 11b4 4889C8   		movq	%rcx, %rax
 454:../Backend/gnu-efi-3.0.9/lib/print.c **** 
 2853              		.loc 1 454 5 is_stmt 1 view .LVU771
 456:../Backend/gnu-efi-3.0.9/lib/print.c ****     spc.maxlen = (StrSize / sizeof(CHAR16)) - 1; // Why is this subtracting 1? This means we can't 
 2854              		.loc 1 456 5 view .LVU772
 456:../Backend/gnu-efi-3.0.9/lib/print.c ****     spc.maxlen = (StrSize / sizeof(CHAR16)) - 1; // Why is this subtracting 1? This means we can't 
 2855              		.loc 1 456 16 is_stmt 0 view .LVU773
 2856 11b7 4C890424 		movq	%r8, (%rsp)
 457:../Backend/gnu-efi-3.0.9/lib/print.c ****     spc.len    = 0;
 2857              		.loc 1 457 5 is_stmt 1 view .LVU774
 457:../Backend/gnu-efi-3.0.9/lib/print.c ****     spc.len    = 0;
 2858              		.loc 1 457 27 is_stmt 0 view .LVU775
 2859 11bb 48D1EE   		shrq	%rsi
 2860              	.LVL278:
 457:../Backend/gnu-efi-3.0.9/lib/print.c ****     spc.len    = 0;
 2861              		.loc 1 457 45 view .LVU776
 2862 11be 4883EE01 		subq	$1, %rsi
 457:../Backend/gnu-efi-3.0.9/lib/print.c ****     spc.len    = 0;
 2863              		.loc 1 457 16 view .LVU777
 2864 11c2 48897424 		movq	%rsi, 16(%rsp)
 2864      10
 458:../Backend/gnu-efi-3.0.9/lib/print.c **** 
 2865              		.loc 1 458 5 is_stmt 1 view .LVU778
 458:../Backend/gnu-efi-3.0.9/lib/print.c **** 
 2866              		.loc 1 458 16 is_stmt 0 view .LVU779
 2867 11c7 48C74424 		movq	$0, 8(%rsp)
 2867      08000000 
 2867      00
 460:../Backend/gnu-efi-3.0.9/lib/print.c **** 
 2868              		.loc 1 460 5 is_stmt 1 view .LVU780
 2869 11d0 4889E2   		movq	%rsp, %rdx
 2870              	.LVL279:
 460:../Backend/gnu-efi-3.0.9/lib/print.c **** 
 2871              		.loc 1 460 5 is_stmt 0 view .LVU781
 2872 11d3 488D0D00 		leaq	_SPrint(%rip), %rcx
 2872      000000
 2873              	.LVL280:
 460:../Backend/gnu-efi-3.0.9/lib/print.c **** 
 2874              		.loc 1 460 5 view .LVU782
 2875 11da 4889C6   		movq	%rax, %rsi
 2876 11dd E8000000 		call	_PoolCatPrint
 2876      00
 2877              	.LVL281:
 462:../Backend/gnu-efi-3.0.9/lib/print.c **** }
 2878              		.loc 1 462 5 is_stmt 1 view .LVU783
 463:../Backend/gnu-efi-3.0.9/lib/print.c **** 
 2879              		.loc 1 463 1 is_stmt 0 view .LVU784
 2880 11e2 488B4424 		movq	8(%rsp), %rax
 2880      08
 2881 11e7 4883C428 		addq	$40, %rsp
 2882              		.cfi_def_cfa_offset 8
 2883 11eb C3       		ret
 2884              		.cfi_endproc
 2885              	.LFE6:
 2887              		.globl	SPrint
 2888              		.hidden	SPrint
 2890              	SPrint:
 2891              	.LVL282:
 2892              	.LFB7:
 492:../Backend/gnu-efi-3.0.9/lib/print.c ****     va_list          args;
 2893              		.loc 1 492 1 is_stmt 1 view -0
 2894              		.cfi_startproc
 492:../Backend/gnu-efi-3.0.9/lib/print.c ****     va_list          args;
 2895              		.loc 1 492 1 is_stmt 0 view .LVU786
 2896 11ec F30F1EFA 		endbr64
 2897 11f0 4881ECD8 		subq	$216, %rsp
 2897      000000
 2898              		.cfi_def_cfa_offset 224
 2899 11f7 48894C24 		movq	%rcx, 56(%rsp)
 2899      38
 2900 11fc 4C894424 		movq	%r8, 64(%rsp)
 2900      40
 2901 1201 4C894C24 		movq	%r9, 72(%rsp)
 2901      48
 2902 1206 84C0     		testb	%al, %al
 2903 1208 7437     		je	.L203
 2904 120a 0F294424 		movaps	%xmm0, 80(%rsp)
 2904      50
 2905 120f 0F294C24 		movaps	%xmm1, 96(%rsp)
 2905      60
 2906 1214 0F295424 		movaps	%xmm2, 112(%rsp)
 2906      70
 2907 1219 0F299C24 		movaps	%xmm3, 128(%rsp)
 2907      80000000 
 2908 1221 0F29A424 		movaps	%xmm4, 144(%rsp)
 2908      90000000 
 2909 1229 0F29AC24 		movaps	%xmm5, 160(%rsp)
 2909      A0000000 
 2910 1231 0F29B424 		movaps	%xmm6, 176(%rsp)
 2910      B0000000 
 2911 1239 0F29BC24 		movaps	%xmm7, 192(%rsp)
 2911      C0000000 
 2912              	.L203:
 493:../Backend/gnu-efi-3.0.9/lib/print.c ****     UINTN            len;
 2913              		.loc 1 493 5 is_stmt 1 view .LVU787
 494:../Backend/gnu-efi-3.0.9/lib/print.c **** 
 2914              		.loc 1 494 5 view .LVU788
 496:../Backend/gnu-efi-3.0.9/lib/print.c ****     len = VSPrint(Str, StrSize, fmt, args);
 2915              		.loc 1 496 5 view .LVU789
 2916 1241 C7442408 		movl	$24, 8(%rsp)
 2916      18000000 
 2917 1249 C744240C 		movl	$48, 12(%rsp)
 2917      30000000 
 2918 1251 488D8424 		leaq	224(%rsp), %rax
 2918      E0000000 
 2919 1259 48894424 		movq	%rax, 16(%rsp)
 2919      10
 2920 125e 488D4424 		leaq	32(%rsp), %rax
 2920      20
 2921 1263 48894424 		movq	%rax, 24(%rsp)
 2921      18
 497:../Backend/gnu-efi-3.0.9/lib/print.c ****     va_end (args);
 2922              		.loc 1 497 5 view .LVU790
 497:../Backend/gnu-efi-3.0.9/lib/print.c ****     va_end (args);
 2923              		.loc 1 497 11 is_stmt 0 view .LVU791
 2924 1268 488D4C24 		leaq	8(%rsp), %rcx
 2924      08
 2925 126d E8000000 		call	VSPrint
 2925      00
 2926              	.LVL283:
 498:../Backend/gnu-efi-3.0.9/lib/print.c **** 
 2927              		.loc 1 498 5 is_stmt 1 view .LVU792
 500:../Backend/gnu-efi-3.0.9/lib/print.c **** }
 2928              		.loc 1 500 5 view .LVU793
 501:../Backend/gnu-efi-3.0.9/lib/print.c **** 
 2929              		.loc 1 501 1 is_stmt 0 view .LVU794
 2930 1272 4881C4D8 		addq	$216, %rsp
 2930      000000
 2931              		.cfi_def_cfa_offset 8
 2932 1279 C3       		ret
 2933              		.cfi_endproc
 2934              	.LFE7:
 2936              		.globl	VPoolPrint
 2937              		.hidden	VPoolPrint
 2939              	VPoolPrint:
 2940              	.LVL284:
 2941              	.LFB8:
 527:../Backend/gnu-efi-3.0.9/lib/print.c ****     POOL_PRINT          spc;
 2942              		.loc 1 527 1 is_stmt 1 view -0
 2943              		.cfi_startproc
 527:../Backend/gnu-efi-3.0.9/lib/print.c ****     POOL_PRINT          spc;
 2944              		.loc 1 527 1 is_stmt 0 view .LVU796
 2945 127a F30F1EFA 		endbr64
 2946 127e 4154     		pushq	%r12
 2947              		.cfi_def_cfa_offset 16
 2948              		.cfi_offset 12, -16
 2949 1280 55       		pushq	%rbp
 2950              		.cfi_def_cfa_offset 24
 2951              		.cfi_offset 6, -24
 2952 1281 53       		pushq	%rbx
 2953              		.cfi_def_cfa_offset 32
 2954              		.cfi_offset 3, -32
 2955 1282 4883EC20 		subq	$32, %rsp
 2956              		.cfi_def_cfa_offset 64
 2957 1286 4889FB   		movq	%rdi, %rbx
 2958 1289 4889F5   		movq	%rsi, %rbp
 528:../Backend/gnu-efi-3.0.9/lib/print.c ****     ZeroMem (&spc, sizeof(spc));
 2959              		.loc 1 528 5 is_stmt 1 view .LVU797
 529:../Backend/gnu-efi-3.0.9/lib/print.c ****     _PoolCatPrint (fmt, args, &spc, _PoolPrint);
 2960              		.loc 1 529 5 view .LVU798
 2961 128c 4989E4   		movq	%rsp, %r12
 2962 128f BE180000 		movl	$24, %esi
 2962      00
 2963              	.LVL285:
 529:../Backend/gnu-efi-3.0.9/lib/print.c ****     _PoolCatPrint (fmt, args, &spc, _PoolPrint);
 2964              		.loc 1 529 5 is_stmt 0 view .LVU799
 2965 1294 4C89E7   		movq	%r12, %rdi
 2966              	.LVL286:
 529:../Backend/gnu-efi-3.0.9/lib/print.c ****     _PoolCatPrint (fmt, args, &spc, _PoolPrint);
 2967              		.loc 1 529 5 view .LVU800
 2968 1297 E8000000 		call	ZeroMem
 2968      00
 2969              	.LVL287:
 530:../Backend/gnu-efi-3.0.9/lib/print.c ****     return spc.str;
 2970              		.loc 1 530 5 is_stmt 1 view .LVU801
 2971 129c 488D0D00 		leaq	_PoolPrint(%rip), %rcx
 2971      000000
 2972 12a3 4C89E2   		movq	%r12, %rdx
 2973 12a6 4889EE   		movq	%rbp, %rsi
 2974 12a9 4889DF   		movq	%rbx, %rdi
 2975 12ac E8000000 		call	_PoolCatPrint
 2975      00
 2976              	.LVL288:
 531:../Backend/gnu-efi-3.0.9/lib/print.c **** }
 2977              		.loc 1 531 5 view .LVU802
 532:../Backend/gnu-efi-3.0.9/lib/print.c **** 
 2978              		.loc 1 532 1 is_stmt 0 view .LVU803
 2979 12b1 488B0424 		movq	(%rsp), %rax
 2980 12b5 4883C420 		addq	$32, %rsp
 2981              		.cfi_def_cfa_offset 32
 2982 12b9 5B       		popq	%rbx
 2983              		.cfi_restore 3
 2984              		.cfi_def_cfa_offset 24
 2985              	.LVL289:
 532:../Backend/gnu-efi-3.0.9/lib/print.c **** 
 2986              		.loc 1 532 1 view .LVU804
 2987 12ba 5D       		popq	%rbp
 2988              		.cfi_restore 6
 2989              		.cfi_def_cfa_offset 16
 2990              	.LVL290:
 532:../Backend/gnu-efi-3.0.9/lib/print.c **** 
 2991              		.loc 1 532 1 view .LVU805
 2992 12bb 415C     		popq	%r12
 2993              		.cfi_restore 12
 2994              		.cfi_def_cfa_offset 8
 2995 12bd C3       		ret
 2996              		.cfi_endproc
 2997              	.LFE8:
 2999              		.globl	PoolPrint
 3000              		.hidden	PoolPrint
 3002              	PoolPrint:
 3003              	.LVL291:
 3004              	.LFB9:
 557:../Backend/gnu-efi-3.0.9/lib/print.c ****     va_list args;
 3005              		.loc 1 557 1 is_stmt 1 view -0
 3006              		.cfi_startproc
 557:../Backend/gnu-efi-3.0.9/lib/print.c ****     va_list args;
 3007              		.loc 1 557 1 is_stmt 0 view .LVU807
 3008 12be F30F1EFA 		endbr64
 3009 12c2 4881ECD8 		subq	$216, %rsp
 3009      000000
 3010              		.cfi_def_cfa_offset 224
 3011 12c9 48897424 		movq	%rsi, 40(%rsp)
 3011      28
 3012 12ce 48895424 		movq	%rdx, 48(%rsp)
 3012      30
 3013 12d3 48894C24 		movq	%rcx, 56(%rsp)
 3013      38
 3014 12d8 4C894424 		movq	%r8, 64(%rsp)
 3014      40
 3015 12dd 4C894C24 		movq	%r9, 72(%rsp)
 3015      48
 3016 12e2 84C0     		testb	%al, %al
 3017 12e4 7437     		je	.L209
 3018 12e6 0F294424 		movaps	%xmm0, 80(%rsp)
 3018      50
 3019 12eb 0F294C24 		movaps	%xmm1, 96(%rsp)
 3019      60
 3020 12f0 0F295424 		movaps	%xmm2, 112(%rsp)
 3020      70
 3021 12f5 0F299C24 		movaps	%xmm3, 128(%rsp)
 3021      80000000 
 3022 12fd 0F29A424 		movaps	%xmm4, 144(%rsp)
 3022      90000000 
 3023 1305 0F29AC24 		movaps	%xmm5, 160(%rsp)
 3023      A0000000 
 3024 130d 0F29B424 		movaps	%xmm6, 176(%rsp)
 3024      B0000000 
 3025 1315 0F29BC24 		movaps	%xmm7, 192(%rsp)
 3025      C0000000 
 3026              	.L209:
 558:../Backend/gnu-efi-3.0.9/lib/print.c ****     CHAR16 *pool;
 3027              		.loc 1 558 5 is_stmt 1 view .LVU808
 559:../Backend/gnu-efi-3.0.9/lib/print.c ****     va_start (args, fmt);
 3028              		.loc 1 559 5 view .LVU809
 560:../Backend/gnu-efi-3.0.9/lib/print.c ****     pool = VPoolPrint(fmt, args);
 3029              		.loc 1 560 5 view .LVU810
 3030 131d C7442408 		movl	$8, 8(%rsp)
 3030      08000000 
 3031 1325 C744240C 		movl	$48, 12(%rsp)
 3031      30000000 
 3032 132d 488D8424 		leaq	224(%rsp), %rax
 3032      E0000000 
 3033 1335 48894424 		movq	%rax, 16(%rsp)
 3033      10
 3034 133a 488D4424 		leaq	32(%rsp), %rax
 3034      20
 3035 133f 48894424 		movq	%rax, 24(%rsp)
 3035      18
 561:../Backend/gnu-efi-3.0.9/lib/print.c ****     va_end (args);
 3036              		.loc 1 561 5 view .LVU811
 561:../Backend/gnu-efi-3.0.9/lib/print.c ****     va_end (args);
 3037              		.loc 1 561 12 is_stmt 0 view .LVU812
 3038 1344 488D7424 		leaq	8(%rsp), %rsi
 3038      08
 3039 1349 E8000000 		call	VPoolPrint
 3039      00
 3040              	.LVL292:
 562:../Backend/gnu-efi-3.0.9/lib/print.c ****     return pool;
 3041              		.loc 1 562 5 is_stmt 1 view .LVU813
 563:../Backend/gnu-efi-3.0.9/lib/print.c **** }
 3042              		.loc 1 563 5 view .LVU814
 564:../Backend/gnu-efi-3.0.9/lib/print.c **** 
 3043              		.loc 1 564 1 is_stmt 0 view .LVU815
 3044 134e 4881C4D8 		addq	$216, %rsp
 3044      000000
 3045              		.cfi_def_cfa_offset 8
 3046 1355 C3       		ret
 3047              		.cfi_endproc
 3048              	.LFE9:
 3050              		.globl	CatPrint
 3051              		.hidden	CatPrint
 3053              	CatPrint:
 3054              	.LVL293:
 3055              	.LFB10:
 593:../Backend/gnu-efi-3.0.9/lib/print.c ****     va_list             args;
 3056              		.loc 1 593 1 is_stmt 1 view -0
 3057              		.cfi_startproc
 593:../Backend/gnu-efi-3.0.9/lib/print.c ****     va_list             args;
 3058              		.loc 1 593 1 is_stmt 0 view .LVU817
 3059 1356 F30F1EFA 		endbr64
 3060 135a 53       		pushq	%rbx
 3061              		.cfi_def_cfa_offset 16
 3062              		.cfi_offset 3, -16
 3063 135b 4881ECD0 		subq	$208, %rsp
 3063      000000
 3064              		.cfi_def_cfa_offset 224
 3065 1362 4889FB   		movq	%rdi, %rbx
 3066 1365 4889F7   		movq	%rsi, %rdi
 3067              	.LVL294:
 593:../Backend/gnu-efi-3.0.9/lib/print.c ****     va_list             args;
 3068              		.loc 1 593 1 view .LVU818
 3069 1368 48895424 		movq	%rdx, 48(%rsp)
 3069      30
 3070 136d 48894C24 		movq	%rcx, 56(%rsp)
 3070      38
 3071 1372 4C894424 		movq	%r8, 64(%rsp)
 3071      40
 3072 1377 4C894C24 		movq	%r9, 72(%rsp)
 3072      48
 3073 137c 84C0     		testb	%al, %al
 3074 137e 7437     		je	.L213
 3075 1380 0F294424 		movaps	%xmm0, 80(%rsp)
 3075      50
 3076 1385 0F294C24 		movaps	%xmm1, 96(%rsp)
 3076      60
 3077 138a 0F295424 		movaps	%xmm2, 112(%rsp)
 3077      70
 3078 138f 0F299C24 		movaps	%xmm3, 128(%rsp)
 3078      80000000 
 3079 1397 0F29A424 		movaps	%xmm4, 144(%rsp)
 3079      90000000 
 3080 139f 0F29AC24 		movaps	%xmm5, 160(%rsp)
 3080      A0000000 
 3081 13a7 0F29B424 		movaps	%xmm6, 176(%rsp)
 3081      B0000000 
 3082 13af 0F29BC24 		movaps	%xmm7, 192(%rsp)
 3082      C0000000 
 3083              	.L213:
 594:../Backend/gnu-efi-3.0.9/lib/print.c **** 
 3084              		.loc 1 594 5 is_stmt 1 view .LVU819
 596:../Backend/gnu-efi-3.0.9/lib/print.c ****     _PoolCatPrint (fmt, args, Str, _PoolPrint);
 3085              		.loc 1 596 5 view .LVU820
 3086 13b7 C7442408 		movl	$16, 8(%rsp)
 3086      10000000 
 3087 13bf C744240C 		movl	$48, 12(%rsp)
 3087      30000000 
 3088 13c7 488D8424 		leaq	224(%rsp), %rax
 3088      E0000000 
 3089 13cf 48894424 		movq	%rax, 16(%rsp)
 3089      10
 3090 13d4 488D4424 		leaq	32(%rsp), %rax
 3090      20
 3091 13d9 48894424 		movq	%rax, 24(%rsp)
 3091      18
 597:../Backend/gnu-efi-3.0.9/lib/print.c ****     va_end (args);
 3092              		.loc 1 597 5 view .LVU821
 3093 13de 488D7424 		leaq	8(%rsp), %rsi
 3093      08
 3094              	.LVL295:
 597:../Backend/gnu-efi-3.0.9/lib/print.c ****     va_end (args);
 3095              		.loc 1 597 5 is_stmt 0 view .LVU822
 3096 13e3 488D0D00 		leaq	_PoolPrint(%rip), %rcx
 3096      000000
 3097 13ea 4889DA   		movq	%rbx, %rdx
 3098 13ed E8000000 		call	_PoolCatPrint
 3098      00
 3099              	.LVL296:
 598:../Backend/gnu-efi-3.0.9/lib/print.c ****     return Str->str;
 3100              		.loc 1 598 5 is_stmt 1 view .LVU823
 599:../Backend/gnu-efi-3.0.9/lib/print.c **** }
 3101              		.loc 1 599 5 view .LVU824
 599:../Backend/gnu-efi-3.0.9/lib/print.c **** }
 3102              		.loc 1 599 15 is_stmt 0 view .LVU825
 3103 13f2 488B03   		movq	(%rbx), %rax
 600:../Backend/gnu-efi-3.0.9/lib/print.c **** 
 3104              		.loc 1 600 1 view .LVU826
 3105 13f5 4881C4D0 		addq	$208, %rsp
 3105      000000
 3106              		.cfi_def_cfa_offset 16
 3107 13fc 5B       		popq	%rbx
 3108              		.cfi_restore 3
 3109              		.cfi_def_cfa_offset 8
 3110              	.LVL297:
 600:../Backend/gnu-efi-3.0.9/lib/print.c **** 
 3111              		.loc 1 600 1 view .LVU827
 3112 13fd C3       		ret
 3113              		.cfi_endproc
 3114              	.LFE10:
 3116              		.globl	_IPrint
 3117              		.hidden	_IPrint
 3119              	_IPrint:
 3120              	.LVL298:
 3121              	.LFB16:
 778:../Backend/gnu-efi-3.0.9/lib/print.c ****     PRINT_STATE     ps;
 3122              		.loc 1 778 1 is_stmt 1 view -0
 3123              		.cfi_startproc
 778:../Backend/gnu-efi-3.0.9/lib/print.c ****     PRINT_STATE     ps;
 3124              		.loc 1 778 1 is_stmt 0 view .LVU829
 3125 13fe F30F1EFA 		endbr64
 3126 1402 4157     		pushq	%r15
 3127              		.cfi_def_cfa_offset 16
 3128              		.cfi_offset 15, -16
 3129 1404 4156     		pushq	%r14
 3130              		.cfi_def_cfa_offset 24
 3131              		.cfi_offset 14, -24
 3132 1406 4155     		pushq	%r13
 3133              		.cfi_def_cfa_offset 32
 3134              		.cfi_offset 13, -32
 3135 1408 4154     		pushq	%r12
 3136              		.cfi_def_cfa_offset 40
 3137              		.cfi_offset 12, -40
 3138 140a 55       		pushq	%rbp
 3139              		.cfi_def_cfa_offset 48
 3140              		.cfi_offset 6, -48
 3141 140b 53       		pushq	%rbx
 3142              		.cfi_def_cfa_offset 56
 3143              		.cfi_offset 3, -56
 3144 140c 4881ECC8 		subq	$200, %rsp
 3144      000000
 3145              		.cfi_def_cfa_offset 256
 3146 1413 4989FD   		movq	%rdi, %r13
 3147 1416 4989F6   		movq	%rsi, %r14
 3148 1419 4889D3   		movq	%rdx, %rbx
 3149 141c 4989CC   		movq	%rcx, %r12
 3150 141f 4D89C7   		movq	%r8, %r15
 3151 1422 4C89CD   		movq	%r9, %rbp
 779:../Backend/gnu-efi-3.0.9/lib/print.c ****     UINTN            back;
 3152              		.loc 1 779 5 is_stmt 1 view .LVU830
 780:../Backend/gnu-efi-3.0.9/lib/print.c **** 
 3153              		.loc 1 780 5 view .LVU831
 782:../Backend/gnu-efi-3.0.9/lib/print.c ****     ps.Context = Out;
 3154              		.loc 1 782 5 view .LVU832
 3155 1425 488D7C24 		leaq	32(%rsp), %rdi
 3155      20
 3156              	.LVL299:
 782:../Backend/gnu-efi-3.0.9/lib/print.c ****     ps.Context = Out;
 3157              		.loc 1 782 5 is_stmt 0 view .LVU833
 3158 142a BE980000 		movl	$152, %esi
 3158      00
 3159              	.LVL300:
 782:../Backend/gnu-efi-3.0.9/lib/print.c ****     ps.Context = Out;
 3160              		.loc 1 782 5 view .LVU834
 3161 142f E8000000 		call	ZeroMem
 3161      00
 3162              	.LVL301:
 783:../Backend/gnu-efi-3.0.9/lib/print.c ****     ps.Output  = (INTN (EFIAPI *)(VOID *, CHAR16 *)) Out->OutputString;
 3163              		.loc 1 783 5 is_stmt 1 view .LVU835
 783:../Backend/gnu-efi-3.0.9/lib/print.c ****     ps.Output  = (INTN (EFIAPI *)(VOID *, CHAR16 *)) Out->OutputString;
 3164              		.loc 1 783 16 is_stmt 0 view .LVU836
 3165 1434 48899C24 		movq	%rbx, 168(%rsp)
 3165      A8000000 
 784:../Backend/gnu-efi-3.0.9/lib/print.c ****     ps.SetAttr = (INTN (EFIAPI *)(VOID *, UINTN))  Out->SetAttribute;
 3166              		.loc 1 784 5 is_stmt 1 view .LVU837
 784:../Backend/gnu-efi-3.0.9/lib/print.c ****     ps.SetAttr = (INTN (EFIAPI *)(VOID *, UINTN))  Out->SetAttribute;
 3167              		.loc 1 784 57 is_stmt 0 view .LVU838
 3168 143c 488B4308 		movq	8(%rbx), %rax
 784:../Backend/gnu-efi-3.0.9/lib/print.c ****     ps.SetAttr = (INTN (EFIAPI *)(VOID *, UINTN))  Out->SetAttribute;
 3169              		.loc 1 784 16 view .LVU839
 3170 1440 48898424 		movq	%rax, 152(%rsp)
 3170      98000000 
 785:../Backend/gnu-efi-3.0.9/lib/print.c ****     ps.Attr = Out->Mode->Attribute;
 3171              		.loc 1 785 5 is_stmt 1 view .LVU840
 785:../Backend/gnu-efi-3.0.9/lib/print.c ****     ps.Attr = Out->Mode->Attribute;
 3172              		.loc 1 785 55 is_stmt 0 view .LVU841
 3173 1448 488B4328 		movq	40(%rbx), %rax
 785:../Backend/gnu-efi-3.0.9/lib/print.c ****     ps.Attr = Out->Mode->Attribute;
 3174              		.loc 1 785 16 view .LVU842
 3175 144c 48898424 		movq	%rax, 160(%rsp)
 3175      A0000000 
 786:../Backend/gnu-efi-3.0.9/lib/print.c **** 
 3176              		.loc 1 786 5 is_stmt 1 view .LVU843
 786:../Backend/gnu-efi-3.0.9/lib/print.c **** 
 3177              		.loc 1 786 18 is_stmt 0 view .LVU844
 3178 1454 488B4348 		movq	72(%rbx), %rax
 786:../Backend/gnu-efi-3.0.9/lib/print.c **** 
 3179              		.loc 1 786 24 view .LVU845
 3180 1458 48634008 		movslq	8(%rax), %rax
 786:../Backend/gnu-efi-3.0.9/lib/print.c **** 
 3181              		.loc 1 786 13 view .LVU846
 3182 145c 48894424 		movq	%rax, 112(%rsp)
 3182      70
 788:../Backend/gnu-efi-3.0.9/lib/print.c ****     ps.AttrNorm = EFI_TEXT_ATTR(EFI_LIGHTGRAY, back);
 3183              		.loc 1 788 5 is_stmt 1 view .LVU847
 788:../Backend/gnu-efi-3.0.9/lib/print.c ****     ps.AttrNorm = EFI_TEXT_ATTR(EFI_LIGHTGRAY, back);
 3184              		.loc 1 788 21 is_stmt 0 view .LVU848
 3185 1461 48C1E804 		shrq	$4, %rax
 788:../Backend/gnu-efi-3.0.9/lib/print.c ****     ps.AttrNorm = EFI_TEXT_ATTR(EFI_LIGHTGRAY, back);
 3186              		.loc 1 788 10 view .LVU849
 3187 1465 83E00F   		andl	$15, %eax
 3188              	.LVL302:
 789:../Backend/gnu-efi-3.0.9/lib/print.c ****     ps.AttrHighlight = EFI_TEXT_ATTR(EFI_WHITE, back);
 3189              		.loc 1 789 5 is_stmt 1 view .LVU850
 789:../Backend/gnu-efi-3.0.9/lib/print.c ****     ps.AttrHighlight = EFI_TEXT_ATTR(EFI_WHITE, back);
 3190              		.loc 1 789 19 is_stmt 0 view .LVU851
 3191 1468 48C1E004 		salq	$4, %rax
 3192              	.LVL303:
 789:../Backend/gnu-efi-3.0.9/lib/print.c ****     ps.AttrHighlight = EFI_TEXT_ATTR(EFI_WHITE, back);
 3193              		.loc 1 789 19 view .LVU852
 3194 146c 4889C2   		movq	%rax, %rdx
 3195 146f 4883CA07 		orq	$7, %rdx
 789:../Backend/gnu-efi-3.0.9/lib/print.c ****     ps.AttrHighlight = EFI_TEXT_ATTR(EFI_WHITE, back);
 3196              		.loc 1 789 17 view .LVU853
 3197 1473 48899424 		movq	%rdx, 128(%rsp)
 3197      80000000 
 790:../Backend/gnu-efi-3.0.9/lib/print.c ****     ps.AttrError = EFI_TEXT_ATTR(EFI_YELLOW, back);
 3198              		.loc 1 790 5 is_stmt 1 view .LVU854
 790:../Backend/gnu-efi-3.0.9/lib/print.c ****     ps.AttrError = EFI_TEXT_ATTR(EFI_YELLOW, back);
 3199              		.loc 1 790 24 is_stmt 0 view .LVU855
 3200 147b 4889C2   		movq	%rax, %rdx
 3201 147e 4883CA0F 		orq	$15, %rdx
 790:../Backend/gnu-efi-3.0.9/lib/print.c ****     ps.AttrError = EFI_TEXT_ATTR(EFI_YELLOW, back);
 3202              		.loc 1 790 22 view .LVU856
 3203 1482 48899424 		movq	%rdx, 136(%rsp)
 3203      88000000 
 791:../Backend/gnu-efi-3.0.9/lib/print.c **** 
 3204              		.loc 1 791 5 is_stmt 1 view .LVU857
 791:../Backend/gnu-efi-3.0.9/lib/print.c **** 
 3205              		.loc 1 791 20 is_stmt 0 view .LVU858
 3206 148a 4883C80E 		orq	$14, %rax
 791:../Backend/gnu-efi-3.0.9/lib/print.c **** 
 3207              		.loc 1 791 18 view .LVU859
 3208 148e 48898424 		movq	%rax, 144(%rsp)
 3208      90000000 
 793:../Backend/gnu-efi-3.0.9/lib/print.c ****         ps.fmt.pw = fmt;
 3209              		.loc 1 793 5 is_stmt 1 view .LVU860
 793:../Backend/gnu-efi-3.0.9/lib/print.c ****         ps.fmt.pw = fmt;
 3210              		.loc 1 793 8 is_stmt 0 view .LVU861
 3211 1496 4D85E4   		testq	%r12, %r12
 3212 1499 7446     		je	.L216
 794:../Backend/gnu-efi-3.0.9/lib/print.c ****     } else {
 3213              		.loc 1 794 9 is_stmt 1 view .LVU862
 794:../Backend/gnu-efi-3.0.9/lib/print.c ****     } else {
 3214              		.loc 1 794 19 is_stmt 0 view .LVU863
 3215 149b 4C896424 		movq	%r12, 48(%rsp)
 3215      30
 3216              	.L217:
 800:../Backend/gnu-efi-3.0.9/lib/print.c **** 
 3217              		.loc 1 800 5 is_stmt 1 view .LVU864
 3218 14a0 F30F6F45 		movdqu	0(%rbp), %xmm0
 3218      00
 3219 14a5 0F114424 		movups	%xmm0, 56(%rsp)
 3219      38
 3220 14aa 488B4510 		movq	16(%rbp), %rax
 3221 14ae 48894424 		movq	%rax, 72(%rsp)
 3221      48
 802:../Backend/gnu-efi-3.0.9/lib/print.c ****         uefi_call_wrapper(Out->SetCursorPosition, 3, Out, Column, Row);
 3222              		.loc 1 802 5 view .LVU865
 802:../Backend/gnu-efi-3.0.9/lib/print.c ****         uefi_call_wrapper(Out->SetCursorPosition, 3, Out, Column, Row);
 3223              		.loc 1 802 8 is_stmt 0 view .LVU866
 3224 14b3 4983FDFF 		cmpq	$-1, %r13
 3225 14b7 740C     		je	.L218
 803:../Backend/gnu-efi-3.0.9/lib/print.c ****     }
 3226              		.loc 1 803 9 is_stmt 1 view .LVU867
 3227 14b9 4D89F0   		movq	%r14, %r8
 3228 14bc 4C89EA   		movq	%r13, %rdx
 3229 14bf 4889D9   		movq	%rbx, %rcx
 3230 14c2 FF5338   		call	*56(%rbx)
 3231              	.LVL304:
 3232              	.L218:
 806:../Backend/gnu-efi-3.0.9/lib/print.c ****     va_end(ps.args);
 3233              		.loc 1 806 5 view .LVU868
 806:../Backend/gnu-efi-3.0.9/lib/print.c ****     va_end(ps.args);
 3234              		.loc 1 806 12 is_stmt 0 view .LVU869
 3235 14c5 488D7C24 		leaq	32(%rsp), %rdi
 3235      20
 3236 14ca E8000000 		call	_Print
 3236      00
 3237              	.LVL305:
 807:../Backend/gnu-efi-3.0.9/lib/print.c ****     return back;
 3238              		.loc 1 807 5 is_stmt 1 view .LVU870
 808:../Backend/gnu-efi-3.0.9/lib/print.c **** }
 3239              		.loc 1 808 5 view .LVU871
 809:../Backend/gnu-efi-3.0.9/lib/print.c **** 
 3240              		.loc 1 809 1 is_stmt 0 view .LVU872
 3241 14cf 4881C4C8 		addq	$200, %rsp
 3241      000000
 3242              		.cfi_remember_state
 3243              		.cfi_def_cfa_offset 56
 3244 14d6 5B       		popq	%rbx
 3245              		.cfi_restore 3
 3246              		.cfi_def_cfa_offset 48
 3247              	.LVL306:
 809:../Backend/gnu-efi-3.0.9/lib/print.c **** 
 3248              		.loc 1 809 1 view .LVU873
 3249 14d7 5D       		popq	%rbp
 3250              		.cfi_restore 6
 3251              		.cfi_def_cfa_offset 40
 3252              	.LVL307:
 809:../Backend/gnu-efi-3.0.9/lib/print.c **** 
 3253              		.loc 1 809 1 view .LVU874
 3254 14d8 415C     		popq	%r12
 3255              		.cfi_restore 12
 3256              		.cfi_def_cfa_offset 32
 3257              	.LVL308:
 809:../Backend/gnu-efi-3.0.9/lib/print.c **** 
 3258              		.loc 1 809 1 view .LVU875
 3259 14da 415D     		popq	%r13
 3260              		.cfi_restore 13
 3261              		.cfi_def_cfa_offset 24
 3262              	.LVL309:
 809:../Backend/gnu-efi-3.0.9/lib/print.c **** 
 3263              		.loc 1 809 1 view .LVU876
 3264 14dc 415E     		popq	%r14
 3265              		.cfi_restore 14
 3266              		.cfi_def_cfa_offset 16
 3267              	.LVL310:
 809:../Backend/gnu-efi-3.0.9/lib/print.c **** 
 3268              		.loc 1 809 1 view .LVU877
 3269 14de 415F     		popq	%r15
 3270              		.cfi_restore 15
 3271              		.cfi_def_cfa_offset 8
 3272              	.LVL311:
 809:../Backend/gnu-efi-3.0.9/lib/print.c **** 
 3273              		.loc 1 809 1 view .LVU878
 3274 14e0 C3       		ret
 3275              	.LVL312:
 3276              	.L216:
 3277              		.cfi_restore_state
 796:../Backend/gnu-efi-3.0.9/lib/print.c ****         ps.fmt.pc = fmta;
 3278              		.loc 1 796 9 is_stmt 1 view .LVU879
 796:../Backend/gnu-efi-3.0.9/lib/print.c ****         ps.fmt.pc = fmta;
 3279              		.loc 1 796 22 is_stmt 0 view .LVU880
 3280 14e1 C6442420 		movb	$1, 32(%rsp)
 3280      01
 797:../Backend/gnu-efi-3.0.9/lib/print.c ****     }
 3281              		.loc 1 797 9 is_stmt 1 view .LVU881
 797:../Backend/gnu-efi-3.0.9/lib/print.c ****     }
 3282              		.loc 1 797 19 is_stmt 0 view .LVU882
 3283 14e6 4C897C24 		movq	%r15, 48(%rsp)
 3283      30
 3284 14eb EBB3     		jmp	.L217
 3285              		.cfi_endproc
 3286              	.LFE16:
 3288              		.globl	Print
 3289              		.hidden	Print
 3291              	Print:
 3292              	.LVL313:
 3293              	.LFB11:
 624:../Backend/gnu-efi-3.0.9/lib/print.c ****     va_list     args;
 3294              		.loc 1 624 1 is_stmt 1 view -0
 3295              		.cfi_startproc
 624:../Backend/gnu-efi-3.0.9/lib/print.c ****     va_list     args;
 3296              		.loc 1 624 1 is_stmt 0 view .LVU884
 3297 14ed F30F1EFA 		endbr64
 3298 14f1 4881ECD8 		subq	$216, %rsp
 3298      000000
 3299              		.cfi_def_cfa_offset 224
 3300 14f8 48897424 		movq	%rsi, 40(%rsp)
 3300      28
 3301 14fd 48895424 		movq	%rdx, 48(%rsp)
 3301      30
 3302 1502 48894C24 		movq	%rcx, 56(%rsp)
 3302      38
 3303 1507 4C894424 		movq	%r8, 64(%rsp)
 3303      40
 3304 150c 4C894C24 		movq	%r9, 72(%rsp)
 3304      48
 3305 1511 84C0     		testb	%al, %al
 3306 1513 7437     		je	.L222
 3307 1515 0F294424 		movaps	%xmm0, 80(%rsp)
 3307      50
 3308 151a 0F294C24 		movaps	%xmm1, 96(%rsp)
 3308      60
 3309 151f 0F295424 		movaps	%xmm2, 112(%rsp)
 3309      70
 3310 1524 0F299C24 		movaps	%xmm3, 128(%rsp)
 3310      80000000 
 3311 152c 0F29A424 		movaps	%xmm4, 144(%rsp)
 3311      90000000 
 3312 1534 0F29AC24 		movaps	%xmm5, 160(%rsp)
 3312      A0000000 
 3313 153c 0F29B424 		movaps	%xmm6, 176(%rsp)
 3313      B0000000 
 3314 1544 0F29BC24 		movaps	%xmm7, 192(%rsp)
 3314      C0000000 
 3315              	.L222:
 625:../Backend/gnu-efi-3.0.9/lib/print.c ****     UINTN       back;
 3316              		.loc 1 625 5 is_stmt 1 view .LVU885
 626:../Backend/gnu-efi-3.0.9/lib/print.c **** 
 3317              		.loc 1 626 5 view .LVU886
 628:../Backend/gnu-efi-3.0.9/lib/print.c ****     back = _IPrint ((UINTN) -1, (UINTN) -1, ST->ConOut, fmt, NULL, args);
 3318              		.loc 1 628 5 view .LVU887
 3319 154c C7442408 		movl	$8, 8(%rsp)
 3319      08000000 
 3320 1554 C744240C 		movl	$48, 12(%rsp)
 3320      30000000 
 3321 155c 488D8424 		leaq	224(%rsp), %rax
 3321      E0000000 
 3322 1564 48894424 		movq	%rax, 16(%rsp)
 3322      10
 3323 1569 488D4424 		leaq	32(%rsp), %rax
 3323      20
 3324 156e 48894424 		movq	%rax, 24(%rsp)
 3324      18
 629:../Backend/gnu-efi-3.0.9/lib/print.c ****     va_end (args);
 3325              		.loc 1 629 5 view .LVU888
 629:../Backend/gnu-efi-3.0.9/lib/print.c ****     va_end (args);
 3326              		.loc 1 629 12 is_stmt 0 view .LVU889
 3327 1573 488B0500 		movq	ST(%rip), %rax
 3327      000000
 3328 157a 488B5040 		movq	64(%rax), %rdx
 3329 157e 4C8D4C24 		leaq	8(%rsp), %r9
 3329      08
 3330 1583 41B80000 		movl	$0, %r8d
 3330      0000
 3331 1589 4889F9   		movq	%rdi, %rcx
 3332 158c 48C7C6FF 		movq	$-1, %rsi
 3332      FFFFFF
 3333 1593 48C7C7FF 		movq	$-1, %rdi
 3333      FFFFFF
 3334              	.LVL314:
 629:../Backend/gnu-efi-3.0.9/lib/print.c ****     va_end (args);
 3335              		.loc 1 629 12 view .LVU890
 3336 159a E8000000 		call	_IPrint
 3336      00
 3337              	.LVL315:
 630:../Backend/gnu-efi-3.0.9/lib/print.c ****     return back;
 3338              		.loc 1 630 5 is_stmt 1 view .LVU891
 631:../Backend/gnu-efi-3.0.9/lib/print.c **** }
 3339              		.loc 1 631 5 view .LVU892
 632:../Backend/gnu-efi-3.0.9/lib/print.c **** 
 3340              		.loc 1 632 1 is_stmt 0 view .LVU893
 3341 159f 4881C4D8 		addq	$216, %rsp
 3341      000000
 3342              		.cfi_def_cfa_offset 8
 3343 15a6 C3       		ret
 3344              		.cfi_endproc
 3345              	.LFE11:
 3347              		.globl	VPrint
 3348              		.hidden	VPrint
 3350              	VPrint:
 3351              	.LVL316:
 3352              	.LFB12:
 654:../Backend/gnu-efi-3.0.9/lib/print.c ****     return _IPrint ((UINTN) -1, (UINTN) -1, ST->ConOut, fmt, NULL, args);
 3353              		.loc 1 654 1 is_stmt 1 view -0
 3354              		.cfi_startproc
 654:../Backend/gnu-efi-3.0.9/lib/print.c ****     return _IPrint ((UINTN) -1, (UINTN) -1, ST->ConOut, fmt, NULL, args);
 3355              		.loc 1 654 1 is_stmt 0 view .LVU895
 3356 15a7 F30F1EFA 		endbr64
 3357 15ab 4883EC08 		subq	$8, %rsp
 3358              		.cfi_def_cfa_offset 16
 3359 15af 4889F9   		movq	%rdi, %rcx
 3360 15b2 4989F1   		movq	%rsi, %r9
 655:../Backend/gnu-efi-3.0.9/lib/print.c **** }
 3361              		.loc 1 655 5 is_stmt 1 view .LVU896
 655:../Backend/gnu-efi-3.0.9/lib/print.c **** }
 3362              		.loc 1 655 47 is_stmt 0 view .LVU897
 3363 15b5 488B0500 		movq	ST(%rip), %rax
 3363      000000
 655:../Backend/gnu-efi-3.0.9/lib/print.c **** }
 3364              		.loc 1 655 12 view .LVU898
 3365 15bc 488B5040 		movq	64(%rax), %rdx
 3366 15c0 41B80000 		movl	$0, %r8d
 3366      0000
 3367 15c6 48C7C6FF 		movq	$-1, %rsi
 3367      FFFFFF
 3368              	.LVL317:
 655:../Backend/gnu-efi-3.0.9/lib/print.c **** }
 3369              		.loc 1 655 12 view .LVU899
 3370 15cd 48C7C7FF 		movq	$-1, %rdi
 3370      FFFFFF
 3371              	.LVL318:
 655:../Backend/gnu-efi-3.0.9/lib/print.c **** }
 3372              		.loc 1 655 12 view .LVU900
 3373 15d4 E8000000 		call	_IPrint
 3373      00
 3374              	.LVL319:
 656:../Backend/gnu-efi-3.0.9/lib/print.c **** 
 3375              		.loc 1 656 1 view .LVU901
 3376 15d9 4883C408 		addq	$8, %rsp
 3377              		.cfi_def_cfa_offset 8
 3378 15dd C3       		ret
 3379              		.cfi_endproc
 3380              	.LFE12:
 3382              		.globl	PrintAt
 3383              		.hidden	PrintAt
 3385              	PrintAt:
 3386              	.LVL320:
 3387              	.LFB13:
 684:../Backend/gnu-efi-3.0.9/lib/print.c ****     va_list     args;
 3388              		.loc 1 684 1 is_stmt 1 view -0
 3389              		.cfi_startproc
 684:../Backend/gnu-efi-3.0.9/lib/print.c ****     va_list     args;
 3390              		.loc 1 684 1 is_stmt 0 view .LVU903
 3391 15de F30F1EFA 		endbr64
 3392 15e2 4881ECD8 		subq	$216, %rsp
 3392      000000
 3393              		.cfi_def_cfa_offset 224
 3394 15e9 48894C24 		movq	%rcx, 56(%rsp)
 3394      38
 3395 15ee 4C894424 		movq	%r8, 64(%rsp)
 3395      40
 3396 15f3 4C894C24 		movq	%r9, 72(%rsp)
 3396      48
 3397 15f8 84C0     		testb	%al, %al
 3398 15fa 7437     		je	.L228
 3399 15fc 0F294424 		movaps	%xmm0, 80(%rsp)
 3399      50
 3400 1601 0F294C24 		movaps	%xmm1, 96(%rsp)
 3400      60
 3401 1606 0F295424 		movaps	%xmm2, 112(%rsp)
 3401      70
 3402 160b 0F299C24 		movaps	%xmm3, 128(%rsp)
 3402      80000000 
 3403 1613 0F29A424 		movaps	%xmm4, 144(%rsp)
 3403      90000000 
 3404 161b 0F29AC24 		movaps	%xmm5, 160(%rsp)
 3404      A0000000 
 3405 1623 0F29B424 		movaps	%xmm6, 176(%rsp)
 3405      B0000000 
 3406 162b 0F29BC24 		movaps	%xmm7, 192(%rsp)
 3406      C0000000 
 3407              	.L228:
 685:../Backend/gnu-efi-3.0.9/lib/print.c ****     UINTN       back;
 3408              		.loc 1 685 5 is_stmt 1 view .LVU904
 686:../Backend/gnu-efi-3.0.9/lib/print.c **** 
 3409              		.loc 1 686 5 view .LVU905
 688:../Backend/gnu-efi-3.0.9/lib/print.c ****     back = _IPrint (Column, Row, ST->ConOut, fmt, NULL, args);
 3410              		.loc 1 688 5 view .LVU906
 3411 1633 C7442408 		movl	$24, 8(%rsp)
 3411      18000000 
 3412 163b C744240C 		movl	$48, 12(%rsp)
 3412      30000000 
 3413 1643 488D8424 		leaq	224(%rsp), %rax
 3413      E0000000 
 3414 164b 48894424 		movq	%rax, 16(%rsp)
 3414      10
 3415 1650 488D4424 		leaq	32(%rsp), %rax
 3415      20
 3416 1655 48894424 		movq	%rax, 24(%rsp)
 3416      18
 689:../Backend/gnu-efi-3.0.9/lib/print.c ****     va_end (args);
 3417              		.loc 1 689 5 view .LVU907
 689:../Backend/gnu-efi-3.0.9/lib/print.c ****     va_end (args);
 3418              		.loc 1 689 12 is_stmt 0 view .LVU908
 3419 165a 488B0500 		movq	ST(%rip), %rax
 3419      000000
 3420 1661 488B4040 		movq	64(%rax), %rax
 3421 1665 4C8D4C24 		leaq	8(%rsp), %r9
 3421      08
 3422 166a 41B80000 		movl	$0, %r8d
 3422      0000
 3423 1670 4889D1   		movq	%rdx, %rcx
 3424 1673 4889C2   		movq	%rax, %rdx
 3425              	.LVL321:
 689:../Backend/gnu-efi-3.0.9/lib/print.c ****     va_end (args);
 3426              		.loc 1 689 12 view .LVU909
 3427 1676 E8000000 		call	_IPrint
 3427      00
 3428              	.LVL322:
 690:../Backend/gnu-efi-3.0.9/lib/print.c ****     return back;
 3429              		.loc 1 690 5 is_stmt 1 view .LVU910
 691:../Backend/gnu-efi-3.0.9/lib/print.c **** }
 3430              		.loc 1 691 5 view .LVU911
 692:../Backend/gnu-efi-3.0.9/lib/print.c **** 
 3431              		.loc 1 692 1 is_stmt 0 view .LVU912
 3432 167b 4881C4D8 		addq	$216, %rsp
 3432      000000
 3433              		.cfi_def_cfa_offset 8
 3434 1682 C3       		ret
 3435              		.cfi_endproc
 3436              	.LFE13:
 3438              		.globl	IPrint
 3439              		.hidden	IPrint
 3441              	IPrint:
 3442              	.LVL323:
 3443              	.LFB14:
 718:../Backend/gnu-efi-3.0.9/lib/print.c ****     va_list     args;
 3444              		.loc 1 718 1 is_stmt 1 view -0
 3445              		.cfi_startproc
 718:../Backend/gnu-efi-3.0.9/lib/print.c ****     va_list     args;
 3446              		.loc 1 718 1 is_stmt 0 view .LVU914
 3447 1683 F30F1EFA 		endbr64
 3448 1687 4881ECD8 		subq	$216, %rsp
 3448      000000
 3449              		.cfi_def_cfa_offset 224
 3450 168e 48895424 		movq	%rdx, 48(%rsp)
 3450      30
 3451 1693 48894C24 		movq	%rcx, 56(%rsp)
 3451      38
 3452 1698 4C894424 		movq	%r8, 64(%rsp)
 3452      40
 3453 169d 4C894C24 		movq	%r9, 72(%rsp)
 3453      48
 3454 16a2 84C0     		testb	%al, %al
 3455 16a4 7437     		je	.L232
 3456 16a6 0F294424 		movaps	%xmm0, 80(%rsp)
 3456      50
 3457 16ab 0F294C24 		movaps	%xmm1, 96(%rsp)
 3457      60
 3458 16b0 0F295424 		movaps	%xmm2, 112(%rsp)
 3458      70
 3459 16b5 0F299C24 		movaps	%xmm3, 128(%rsp)
 3459      80000000 
 3460 16bd 0F29A424 		movaps	%xmm4, 144(%rsp)
 3460      90000000 
 3461 16c5 0F29AC24 		movaps	%xmm5, 160(%rsp)
 3461      A0000000 
 3462 16cd 0F29B424 		movaps	%xmm6, 176(%rsp)
 3462      B0000000 
 3463 16d5 0F29BC24 		movaps	%xmm7, 192(%rsp)
 3463      C0000000 
 3464              	.L232:
 719:../Backend/gnu-efi-3.0.9/lib/print.c ****     UINTN       back;
 3465              		.loc 1 719 5 is_stmt 1 view .LVU915
 720:../Backend/gnu-efi-3.0.9/lib/print.c **** 
 3466              		.loc 1 720 5 view .LVU916
 722:../Backend/gnu-efi-3.0.9/lib/print.c ****     back = _IPrint ((UINTN) -1, (UINTN) -1, Out, fmt, NULL, args);
 3467              		.loc 1 722 5 view .LVU917
 3468 16dd C7442408 		movl	$16, 8(%rsp)
 3468      10000000 
 3469 16e5 C744240C 		movl	$48, 12(%rsp)
 3469      30000000 
 3470 16ed 488D8424 		leaq	224(%rsp), %rax
 3470      E0000000 
 3471 16f5 48894424 		movq	%rax, 16(%rsp)
 3471      10
 3472 16fa 488D4424 		leaq	32(%rsp), %rax
 3472      20
 3473 16ff 48894424 		movq	%rax, 24(%rsp)
 3473      18
 723:../Backend/gnu-efi-3.0.9/lib/print.c ****     va_end (args);
 3474              		.loc 1 723 5 view .LVU918
 723:../Backend/gnu-efi-3.0.9/lib/print.c ****     va_end (args);
 3475              		.loc 1 723 12 is_stmt 0 view .LVU919
 3476 1704 4C8D4C24 		leaq	8(%rsp), %r9
 3476      08
 3477 1709 41B80000 		movl	$0, %r8d
 3477      0000
 3478 170f 4889F1   		movq	%rsi, %rcx
 3479 1712 4889FA   		movq	%rdi, %rdx
 3480 1715 48C7C6FF 		movq	$-1, %rsi
 3480      FFFFFF
 3481              	.LVL324:
 723:../Backend/gnu-efi-3.0.9/lib/print.c ****     va_end (args);
 3482              		.loc 1 723 12 view .LVU920
 3483 171c 48C7C7FF 		movq	$-1, %rdi
 3483      FFFFFF
 3484              	.LVL325:
 723:../Backend/gnu-efi-3.0.9/lib/print.c ****     va_end (args);
 3485              		.loc 1 723 12 view .LVU921
 3486 1723 E8000000 		call	_IPrint
 3486      00
 3487              	.LVL326:
 724:../Backend/gnu-efi-3.0.9/lib/print.c ****     return back;
 3488              		.loc 1 724 5 is_stmt 1 view .LVU922
 725:../Backend/gnu-efi-3.0.9/lib/print.c **** }
 3489              		.loc 1 725 5 view .LVU923
 726:../Backend/gnu-efi-3.0.9/lib/print.c **** 
 3490              		.loc 1 726 1 is_stmt 0 view .LVU924
 3491 1728 4881C4D8 		addq	$216, %rsp
 3491      000000
 3492              		.cfi_def_cfa_offset 8
 3493 172f C3       		ret
 3494              		.cfi_endproc
 3495              	.LFE14:
 3497              		.globl	IPrintAt
 3498              		.hidden	IPrintAt
 3500              	IPrintAt:
 3501              	.LVL327:
 3502              	.LFB15:
 757:../Backend/gnu-efi-3.0.9/lib/print.c ****     va_list     args;
 3503              		.loc 1 757 1 is_stmt 1 view -0
 3504              		.cfi_startproc
 757:../Backend/gnu-efi-3.0.9/lib/print.c ****     va_list     args;
 3505              		.loc 1 757 1 is_stmt 0 view .LVU926
 3506 1730 F30F1EFA 		endbr64
 3507 1734 4881ECD8 		subq	$216, %rsp
 3507      000000
 3508              		.cfi_def_cfa_offset 224
 3509 173b 4989FA   		movq	%rdi, %r10
 3510 173e 4889F7   		movq	%rsi, %rdi
 3511              	.LVL328:
 757:../Backend/gnu-efi-3.0.9/lib/print.c ****     va_list     args;
 3512              		.loc 1 757 1 view .LVU927
 3513 1741 4889D6   		movq	%rdx, %rsi
 3514              	.LVL329:
 757:../Backend/gnu-efi-3.0.9/lib/print.c ****     va_list     args;
 3515              		.loc 1 757 1 view .LVU928
 3516 1744 4C894424 		movq	%r8, 64(%rsp)
 3516      40
 3517 1749 4C894C24 		movq	%r9, 72(%rsp)
 3517      48
 3518 174e 84C0     		testb	%al, %al
 3519 1750 7437     		je	.L236
 3520 1752 0F294424 		movaps	%xmm0, 80(%rsp)
 3520      50
 3521 1757 0F294C24 		movaps	%xmm1, 96(%rsp)
 3521      60
 3522 175c 0F295424 		movaps	%xmm2, 112(%rsp)
 3522      70
 3523 1761 0F299C24 		movaps	%xmm3, 128(%rsp)
 3523      80000000 
 3524 1769 0F29A424 		movaps	%xmm4, 144(%rsp)
 3524      90000000 
 3525 1771 0F29AC24 		movaps	%xmm5, 160(%rsp)
 3525      A0000000 
 3526 1779 0F29B424 		movaps	%xmm6, 176(%rsp)
 3526      B0000000 
 3527 1781 0F29BC24 		movaps	%xmm7, 192(%rsp)
 3527      C0000000 
 3528              	.L236:
 758:../Backend/gnu-efi-3.0.9/lib/print.c ****     UINTN       back;
 3529              		.loc 1 758 5 is_stmt 1 view .LVU929
 759:../Backend/gnu-efi-3.0.9/lib/print.c **** 
 3530              		.loc 1 759 5 view .LVU930
 761:../Backend/gnu-efi-3.0.9/lib/print.c ****     back = _IPrint (Column, Row, Out, fmt, NULL, args);
 3531              		.loc 1 761 5 view .LVU931
 3532 1789 C7442408 		movl	$32, 8(%rsp)
 3532      20000000 
 3533 1791 C744240C 		movl	$48, 12(%rsp)
 3533      30000000 
 3534 1799 488D8424 		leaq	224(%rsp), %rax
 3534      E0000000 
 3535 17a1 48894424 		movq	%rax, 16(%rsp)
 3535      10
 3536 17a6 488D4424 		leaq	32(%rsp), %rax
 3536      20
 3537 17ab 48894424 		movq	%rax, 24(%rsp)
 3537      18
 762:../Backend/gnu-efi-3.0.9/lib/print.c ****     va_end (args);
 3538              		.loc 1 762 5 view .LVU932
 762:../Backend/gnu-efi-3.0.9/lib/print.c ****     va_end (args);
 3539              		.loc 1 762 12 is_stmt 0 view .LVU933
 3540 17b0 4C8D4C24 		leaq	8(%rsp), %r9
 3540      08
 3541 17b5 41B80000 		movl	$0, %r8d
 3541      0000
 3542 17bb 4C89D2   		movq	%r10, %rdx
 3543              	.LVL330:
 762:../Backend/gnu-efi-3.0.9/lib/print.c ****     va_end (args);
 3544              		.loc 1 762 12 view .LVU934
 3545 17be E8000000 		call	_IPrint
 3545      00
 3546              	.LVL331:
 763:../Backend/gnu-efi-3.0.9/lib/print.c ****     return back;
 3547              		.loc 1 763 5 is_stmt 1 view .LVU935
 764:../Backend/gnu-efi-3.0.9/lib/print.c **** }
 3548              		.loc 1 764 5 view .LVU936
 765:../Backend/gnu-efi-3.0.9/lib/print.c **** 
 3549              		.loc 1 765 1 is_stmt 0 view .LVU937
 3550 17c3 4881C4D8 		addq	$216, %rsp
 3550      000000
 3551              		.cfi_def_cfa_offset 8
 3552 17ca C3       		ret
 3553              		.cfi_endproc
 3554              	.LFE15:
 3556              		.globl	APrint
 3557              		.hidden	APrint
 3559              	APrint:
 3560              	.LVL332:
 3561              	.LFB17:
 834:../Backend/gnu-efi-3.0.9/lib/print.c ****     va_list     args;
 3562              		.loc 1 834 1 is_stmt 1 view -0
 3563              		.cfi_startproc
 834:../Backend/gnu-efi-3.0.9/lib/print.c ****     va_list     args;
 3564              		.loc 1 834 1 is_stmt 0 view .LVU939
 3565 17cb F30F1EFA 		endbr64
 3566 17cf 4881ECD8 		subq	$216, %rsp
 3566      000000
 3567              		.cfi_def_cfa_offset 224
 3568 17d6 48897424 		movq	%rsi, 40(%rsp)
 3568      28
 3569 17db 48895424 		movq	%rdx, 48(%rsp)
 3569      30
 3570 17e0 48894C24 		movq	%rcx, 56(%rsp)
 3570      38
 3571 17e5 4C894424 		movq	%r8, 64(%rsp)
 3571      40
 3572 17ea 4C894C24 		movq	%r9, 72(%rsp)
 3572      48
 3573 17ef 84C0     		testb	%al, %al
 3574 17f1 7437     		je	.L240
 3575 17f3 0F294424 		movaps	%xmm0, 80(%rsp)
 3575      50
 3576 17f8 0F294C24 		movaps	%xmm1, 96(%rsp)
 3576      60
 3577 17fd 0F295424 		movaps	%xmm2, 112(%rsp)
 3577      70
 3578 1802 0F299C24 		movaps	%xmm3, 128(%rsp)
 3578      80000000 
 3579 180a 0F29A424 		movaps	%xmm4, 144(%rsp)
 3579      90000000 
 3580 1812 0F29AC24 		movaps	%xmm5, 160(%rsp)
 3580      A0000000 
 3581 181a 0F29B424 		movaps	%xmm6, 176(%rsp)
 3581      B0000000 
 3582 1822 0F29BC24 		movaps	%xmm7, 192(%rsp)
 3582      C0000000 
 3583              	.L240:
 835:../Backend/gnu-efi-3.0.9/lib/print.c ****     UINTN       back;
 3584              		.loc 1 835 5 is_stmt 1 view .LVU940
 836:../Backend/gnu-efi-3.0.9/lib/print.c **** 
 3585              		.loc 1 836 5 view .LVU941
 838:../Backend/gnu-efi-3.0.9/lib/print.c ****     back = _IPrint ((UINTN) -1, (UINTN) -1, ST->ConOut, NULL, fmt, args);
 3586              		.loc 1 838 5 view .LVU942
 3587 182a C7442408 		movl	$8, 8(%rsp)
 3587      08000000 
 3588 1832 C744240C 		movl	$48, 12(%rsp)
 3588      30000000 
 3589 183a 488D8424 		leaq	224(%rsp), %rax
 3589      E0000000 
 3590 1842 48894424 		movq	%rax, 16(%rsp)
 3590      10
 3591 1847 488D4424 		leaq	32(%rsp), %rax
 3591      20
 3592 184c 48894424 		movq	%rax, 24(%rsp)
 3592      18
 839:../Backend/gnu-efi-3.0.9/lib/print.c ****     va_end (args);
 3593              		.loc 1 839 5 view .LVU943
 839:../Backend/gnu-efi-3.0.9/lib/print.c ****     va_end (args);
 3594              		.loc 1 839 12 is_stmt 0 view .LVU944
 3595 1851 488B0500 		movq	ST(%rip), %rax
 3595      000000
 3596 1858 488B5040 		movq	64(%rax), %rdx
 3597 185c 4C8D4C24 		leaq	8(%rsp), %r9
 3597      08
 3598 1861 4989F8   		movq	%rdi, %r8
 3599 1864 B9000000 		movl	$0, %ecx
 3599      00
 3600 1869 48C7C6FF 		movq	$-1, %rsi
 3600      FFFFFF
 3601 1870 48C7C7FF 		movq	$-1, %rdi
 3601      FFFFFF
 3602              	.LVL333:
 839:../Backend/gnu-efi-3.0.9/lib/print.c ****     va_end (args);
 3603              		.loc 1 839 12 view .LVU945
 3604 1877 E8000000 		call	_IPrint
 3604      00
 3605              	.LVL334:
 840:../Backend/gnu-efi-3.0.9/lib/print.c ****     return back;
 3606              		.loc 1 840 5 is_stmt 1 view .LVU946
 841:../Backend/gnu-efi-3.0.9/lib/print.c **** }
 3607              		.loc 1 841 5 view .LVU947
 842:../Backend/gnu-efi-3.0.9/lib/print.c **** 
 3608              		.loc 1 842 1 is_stmt 0 view .LVU948
 3609 187c 4881C4D8 		addq	$216, %rsp
 3609      000000
 3610              		.cfi_def_cfa_offset 8
 3611 1883 C3       		ret
 3612              		.cfi_endproc
 3613              	.LFE17:
 3615              		.section	.rodata
 3616              	.LC6:
 3617 01a0 00       		.string	""
 3618 01a1 00000000 		.align 8
 3618      000000
 3619              	.LC7:
 3620 01a8 2500     		.string	"%"
 3621 01aa 2A00     		.string	"*"
 3622 01ac 6100     		.string	"a"
 3623 01ae 2500     		.string	"%"
 3624 01b0 5800     		.string	"X"
 3625 01b2 3A00     		.string	":"
 3626 01b4 2000     		.string	" "
 3627 01b6 2500     		.string	"%"
 3628 01b8 2D00     		.string	"-"
 3629 01ba 2E00     		.string	"."
 3630 01bc 3400     		.string	"4"
 3631 01be 3800     		.string	"8"
 3632 01c0 6100     		.string	"a"
 3633 01c2 2000     		.string	" "
 3634 01c4 2A00     		.string	"*"
 3635 01c6 2500     		.string	"%"
 3636 01c8 6100     		.string	"a"
 3637 01ca 2A00     		.string	"*"
 3638 01cc 0A00     		.string	"\n"
 3639 01ce 00       		.string	""
 3640 01cf 00       		.string	""
 3641              		.align 8
 3642              	.LC8:
 3643 01d0 5000     		.string	"P"
 3644 01d2 7200     		.string	"r"
 3645 01d4 6500     		.string	"e"
 3646 01d6 7300     		.string	"s"
 3647 01d8 7300     		.string	"s"
 3648 01da 2000     		.string	" "
 3649 01dc 4500     		.string	"E"
 3650 01de 6E00     		.string	"n"
 3651 01e0 7400     		.string	"t"
 3652 01e2 6500     		.string	"e"
 3653 01e4 7200     		.string	"r"
 3654 01e6 2000     		.string	" "
 3655 01e8 7400     		.string	"t"
 3656 01ea 6F00     		.string	"o"
 3657 01ec 2000     		.string	" "
 3658 01ee 6300     		.string	"c"
 3659 01f0 6F00     		.string	"o"
 3660 01f2 6E00     		.string	"n"
 3661 01f4 7400     		.string	"t"
 3662 01f6 6900     		.string	"i"
 3663 01f8 6E00     		.string	"n"
 3664 01fa 7500     		.string	"u"
 3665 01fc 6500     		.string	"e"
 3666 01fe 2000     		.string	" "
 3667 0200 3A00     		.string	":"
 3668 0202 00       		.string	""
 3669 0203 00       		.string	""
 3670              		.align 2
 3671              	.LC9:
 3672 0204 00       		.string	""
 3673 0205 00       		.string	""
 3674              		.align 2
 3675              	.LC10:
 3676 0206 0A00     		.string	"\n"
 3677 0208 00       		.string	""
 3678 0209 00       		.string	""
 3679              		.text
 3680              		.globl	DumpHex
 3681              		.hidden	DumpHex
 3683              	DumpHex:
 3684              	.LVL335:
 3685              	.LFB28:
1424:../Backend/gnu-efi-3.0.9/lib/print.c **** 
1425:../Backend/gnu-efi-3.0.9/lib/print.c **** 
1426:../Backend/gnu-efi-3.0.9/lib/print.c **** 
1427:../Backend/gnu-efi-3.0.9/lib/print.c **** 
1428:../Backend/gnu-efi-3.0.9/lib/print.c **** VOID
1429:../Backend/gnu-efi-3.0.9/lib/print.c **** DumpHex (
1430:../Backend/gnu-efi-3.0.9/lib/print.c ****     IN UINTN        Indent,
1431:../Backend/gnu-efi-3.0.9/lib/print.c ****     IN UINTN        Offset,
1432:../Backend/gnu-efi-3.0.9/lib/print.c ****     IN UINTN        DataSize,
1433:../Backend/gnu-efi-3.0.9/lib/print.c ****     IN VOID         *UserData
1434:../Backend/gnu-efi-3.0.9/lib/print.c ****     )
1435:../Backend/gnu-efi-3.0.9/lib/print.c **** {
 3686              		.loc 1 1435 1 is_stmt 1 view -0
 3687              		.cfi_startproc
 3688              		.loc 1 1435 1 is_stmt 0 view .LVU950
 3689 1884 F30F1EFA 		endbr64
 3690 1888 4157     		pushq	%r15
 3691              		.cfi_def_cfa_offset 16
 3692              		.cfi_offset 15, -16
 3693 188a 4156     		pushq	%r14
 3694              		.cfi_def_cfa_offset 24
 3695              		.cfi_offset 14, -24
 3696 188c 4155     		pushq	%r13
 3697              		.cfi_def_cfa_offset 32
 3698              		.cfi_offset 13, -32
 3699 188e 4154     		pushq	%r12
 3700              		.cfi_def_cfa_offset 40
 3701              		.cfi_offset 12, -40
 3702 1890 55       		pushq	%rbp
 3703              		.cfi_def_cfa_offset 48
 3704              		.cfi_offset 6, -48
 3705 1891 53       		pushq	%rbx
 3706              		.cfi_def_cfa_offset 56
 3707              		.cfi_offset 3, -56
 3708 1892 4881ECA8 		subq	$168, %rsp
 3708      000000
 3709              		.cfi_def_cfa_offset 224
 3710 1899 4989FF   		movq	%rdi, %r15
 3711 189c 4989F5   		movq	%rsi, %r13
 3712 189f 4989D4   		movq	%rdx, %r12
 3713 18a2 4889CD   		movq	%rcx, %rbp
1436:../Backend/gnu-efi-3.0.9/lib/print.c ****     CHAR8           *Data, Val[50], Str[20], c;
 3714              		.loc 1 1436 5 is_stmt 1 view .LVU951
1437:../Backend/gnu-efi-3.0.9/lib/print.c ****     UINTN           Size, Index;
 3715              		.loc 1 1437 5 view .LVU952
1438:../Backend/gnu-efi-3.0.9/lib/print.c **** 
1439:../Backend/gnu-efi-3.0.9/lib/print.c ****     UINTN           ScreenCount;
 3716              		.loc 1 1439 5 view .LVU953
1440:../Backend/gnu-efi-3.0.9/lib/print.c ****     UINTN           TempColumn;
 3717              		.loc 1 1440 5 view .LVU954
1441:../Backend/gnu-efi-3.0.9/lib/print.c ****     UINTN           ScreenSize;
 3718              		.loc 1 1441 5 view .LVU955
1442:../Backend/gnu-efi-3.0.9/lib/print.c ****     CHAR16          ReturnStr[1];
 3719              		.loc 1 1442 5 view .LVU956
1443:../Backend/gnu-efi-3.0.9/lib/print.c **** 
1444:../Backend/gnu-efi-3.0.9/lib/print.c **** 
1445:../Backend/gnu-efi-3.0.9/lib/print.c ****     uefi_call_wrapper(ST->ConOut->QueryMode, 4, ST->ConOut, ST->ConOut->Mode->Mode, &TempColumn, &S
 3720              		.loc 1 1445 5 view .LVU957
 3721 18a5 488B0500 		movq	ST(%rip), %rax
 3721      000000
 3722 18ac 488B4040 		movq	64(%rax), %rax
 3723 18b0 488B5048 		movq	72(%rax), %rdx
 3724              	.LVL336:
 3725              		.loc 1 1445 5 is_stmt 0 view .LVU958
 3726 18b4 48635204 		movslq	4(%rdx), %rdx
 3727 18b8 4C8D4C24 		leaq	48(%rsp), %r9
 3727      30
 3728 18bd 4C8D4424 		leaq	56(%rsp), %r8
 3728      38
 3729 18c2 4889C1   		movq	%rax, %rcx
 3730              	.LVL337:
 3731              		.loc 1 1445 5 view .LVU959
 3732 18c5 FF5018   		call	*24(%rax)
 3733              	.LVL338:
1446:../Backend/gnu-efi-3.0.9/lib/print.c ****     ScreenCount = 0;
 3734              		.loc 1 1446 5 is_stmt 1 view .LVU960
1447:../Backend/gnu-efi-3.0.9/lib/print.c ****     ScreenSize -= 2;
 3735              		.loc 1 1447 5 view .LVU961
 3736              		.loc 1 1447 16 is_stmt 0 view .LVU962
 3737 18c8 48836C24 		subq	$2, 48(%rsp)
 3737      3002
1448:../Backend/gnu-efi-3.0.9/lib/print.c **** 
1449:../Backend/gnu-efi-3.0.9/lib/print.c ****     Data = UserData;
 3738              		.loc 1 1449 5 is_stmt 1 view .LVU963
 3739              	.LVL339:
1450:../Backend/gnu-efi-3.0.9/lib/print.c ****     while (DataSize) {
 3740              		.loc 1 1450 5 view .LVU964
1446:../Backend/gnu-efi-3.0.9/lib/print.c ****     ScreenSize -= 2;
 3741              		.loc 1 1446 17 is_stmt 0 view .LVU965
 3742 18ce 41BE0000 		movl	$0, %r14d
 3742      0000
 3743              		.loc 1 1450 11 view .LVU966
 3744 18d4 E9BE0000 		jmp	.L243
 3744      00
 3745              	.LVL340:
 3746              	.L251:
1451:../Backend/gnu-efi-3.0.9/lib/print.c ****         Size = 16;
1452:../Backend/gnu-efi-3.0.9/lib/print.c ****         if (Size > DataSize) {
1453:../Backend/gnu-efi-3.0.9/lib/print.c ****             Size = DataSize;
 3747              		.loc 1 1453 18 view .LVU967
 3748 18d9 4C89E3   		movq	%r12, %rbx
 3749 18dc E9CA0000 		jmp	.L244
 3749      00
 3750              	.LVL341:
 3751              	.L256:
1454:../Backend/gnu-efi-3.0.9/lib/print.c ****         }
1455:../Backend/gnu-efi-3.0.9/lib/print.c **** 
1456:../Backend/gnu-efi-3.0.9/lib/print.c ****         for (Index=0; Index < Size; Index += 1) {
1457:../Backend/gnu-efi-3.0.9/lib/print.c ****             c = Data[Index];
1458:../Backend/gnu-efi-3.0.9/lib/print.c ****             Val[Index*3+0] = Hex[c>>4];
1459:../Backend/gnu-efi-3.0.9/lib/print.c ****             Val[Index*3+1] = Hex[c&0xF];
1460:../Backend/gnu-efi-3.0.9/lib/print.c ****             Val[Index*3+2] = (Index == 7)?'-':' ';
 3752              		.loc 1 1460 28 discriminator 1 view .LVU968
 3753 18e1 BE2D0000 		movl	$45, %esi
 3753      00
 3754 18e6 EB49     		jmp	.L246
 3755              	.LVL342:
 3756              	.L247:
1461:../Backend/gnu-efi-3.0.9/lib/print.c ****             Str[Index] = (c < ' ' || c > 'z') ? '.' : c;
 3757              		.loc 1 1461 24 discriminator 4 view .LVU969
 3758 18e8 88540440 		movb	%dl, 64(%rsp,%rax)
1456:../Backend/gnu-efi-3.0.9/lib/print.c ****             c = Data[Index];
 3759              		.loc 1 1456 43 is_stmt 1 discriminator 2 view .LVU970
 3760 18ec 4883C001 		addq	$1, %rax
 3761              	.LVL343:
 3762              	.L245:
1456:../Backend/gnu-efi-3.0.9/lib/print.c ****             c = Data[Index];
 3763              		.loc 1 1456 29 discriminator 1 view .LVU971
 3764 18f0 4839D8   		cmpq	%rbx, %rax
 3765 18f3 7350     		jnb	.L255
1457:../Backend/gnu-efi-3.0.9/lib/print.c ****             Val[Index*3+0] = Hex[c>>4];
 3766              		.loc 1 1457 13 view .LVU972
1457:../Backend/gnu-efi-3.0.9/lib/print.c ****             Val[Index*3+0] = Hex[c>>4];
 3767              		.loc 1 1457 15 is_stmt 0 view .LVU973
 3768 18f5 0FB65405 		movzbl	0(%rbp,%rax), %edx
 3768      00
 3769              	.LVL344:
1458:../Backend/gnu-efi-3.0.9/lib/print.c ****             Val[Index*3+1] = Hex[c&0xF];
 3770              		.loc 1 1458 13 is_stmt 1 view .LVU974
1458:../Backend/gnu-efi-3.0.9/lib/print.c ****             Val[Index*3+1] = Hex[c&0xF];
 3771              		.loc 1 1458 35 is_stmt 0 view .LVU975
 3772 18fa 89D6     		movl	%edx, %esi
 3773 18fc 40C0EE04 		shrb	$4, %sil
1458:../Backend/gnu-efi-3.0.9/lib/print.c ****             Val[Index*3+1] = Hex[c&0xF];
 3774              		.loc 1 1458 24 view .LVU976
 3775 1900 488D0C40 		leaq	(%rax,%rax,2), %rcx
1458:../Backend/gnu-efi-3.0.9/lib/print.c ****             Val[Index*3+1] = Hex[c&0xF];
 3776              		.loc 1 1458 33 view .LVU977
 3777 1904 488D3D00 		leaq	Hex(%rip), %rdi
 3777      000000
 3778 190b 83E60F   		andl	$15, %esi
 3779 190e 0FB63437 		movzbl	(%rdi,%rsi), %esi
1458:../Backend/gnu-efi-3.0.9/lib/print.c ****             Val[Index*3+1] = Hex[c&0xF];
 3780              		.loc 1 1458 28 view .LVU978
 3781 1912 4088740C 		movb	%sil, 96(%rsp,%rcx)
 3781      60
1459:../Backend/gnu-efi-3.0.9/lib/print.c ****             Val[Index*3+2] = (Index == 7)?'-':' ';
 3782              		.loc 1 1459 13 is_stmt 1 view .LVU979
1459:../Backend/gnu-efi-3.0.9/lib/print.c ****             Val[Index*3+2] = (Index == 7)?'-':' ';
 3783              		.loc 1 1459 33 is_stmt 0 view .LVU980
 3784 1917 4889D6   		movq	%rdx, %rsi
 3785 191a 83E60F   		andl	$15, %esi
 3786 191d 0FB63437 		movzbl	(%rdi,%rsi), %esi
1459:../Backend/gnu-efi-3.0.9/lib/print.c ****             Val[Index*3+2] = (Index == 7)?'-':' ';
 3787              		.loc 1 1459 28 view .LVU981
 3788 1921 4088740C 		movb	%sil, 97(%rsp,%rcx)
 3788      61
1460:../Backend/gnu-efi-3.0.9/lib/print.c ****             Str[Index] = (c < ' ' || c > 'z') ? '.' : c;
 3789              		.loc 1 1460 13 is_stmt 1 view .LVU982
1460:../Backend/gnu-efi-3.0.9/lib/print.c ****             Str[Index] = (c < ' ' || c > 'z') ? '.' : c;
 3790              		.loc 1 1460 28 is_stmt 0 view .LVU983
 3791 1926 4883F807 		cmpq	$7, %rax
 3792 192a 74B5     		je	.L256
1460:../Backend/gnu-efi-3.0.9/lib/print.c ****             Str[Index] = (c < ' ' || c > 'z') ? '.' : c;
 3793              		.loc 1 1460 28 discriminator 2 view .LVU984
 3794 192c BE200000 		movl	$32, %esi
 3794      00
 3795              	.L246:
1460:../Backend/gnu-efi-3.0.9/lib/print.c ****             Str[Index] = (c < ' ' || c > 'z') ? '.' : c;
 3796              		.loc 1 1460 28 discriminator 4 view .LVU985
 3797 1931 4088740C 		movb	%sil, 98(%rsp,%rcx)
 3797      62
 3798              		.loc 1 1461 13 is_stmt 1 view .LVU986
 3799              		.loc 1 1461 35 is_stmt 0 view .LVU987
 3800 1936 8D4AE0   		leal	-32(%rdx), %ecx
 3801              		.loc 1 1461 24 view .LVU988
 3802 1939 80F95A   		cmpb	$90, %cl
 3803 193c 76AA     		jbe	.L247
 3804              		.loc 1 1461 24 discriminator 2 view .LVU989
 3805 193e BA2E0000 		movl	$46, %edx
 3805      00
 3806              	.LVL345:
 3807              		.loc 1 1461 24 discriminator 2 view .LVU990
 3808 1943 EBA3     		jmp	.L247
 3809              	.LVL346:
 3810              	.L255:
1462:../Backend/gnu-efi-3.0.9/lib/print.c ****         }
1463:../Backend/gnu-efi-3.0.9/lib/print.c **** 
1464:../Backend/gnu-efi-3.0.9/lib/print.c ****         Val[Index*3] = 0;
 3811              		.loc 1 1464 9 is_stmt 1 view .LVU991
 3812              		.loc 1 1464 18 is_stmt 0 view .LVU992
 3813 1945 488D1440 		leaq	(%rax,%rax,2), %rdx
 3814              		.loc 1 1464 22 view .LVU993
 3815 1949 C6441460 		movb	$0, 96(%rsp,%rdx)
 3815      00
1465:../Backend/gnu-efi-3.0.9/lib/print.c ****         Str[Index] = 0;
 3816              		.loc 1 1465 9 is_stmt 1 view .LVU994
 3817              		.loc 1 1465 20 is_stmt 0 view .LVU995
 3818 194e C6440440 		movb	$0, 64(%rsp,%rax)
 3818      00
1466:../Backend/gnu-efi-3.0.9/lib/print.c ****         Print (L"%*a%X: %-.48a *%a*\n", Indent, "", Offset, Val, Str);
 3819              		.loc 1 1466 9 is_stmt 1 view .LVU996
 3820 1953 4C8D4C24 		leaq	64(%rsp), %r9
 3820      40
 3821 1958 4C8D4424 		leaq	96(%rsp), %r8
 3821      60
 3822 195d 4C89E9   		movq	%r13, %rcx
 3823 1960 488D1500 		leaq	.LC6(%rip), %rdx
 3823      000000
 3824 1967 4C89FE   		movq	%r15, %rsi
 3825 196a 488D3D00 		leaq	.LC7(%rip), %rdi
 3825      000000
 3826 1971 B8000000 		movl	$0, %eax
 3826      00
 3827              	.LVL347:
 3828              		.loc 1 1466 9 is_stmt 0 view .LVU997
 3829 1976 E8000000 		call	Print
 3829      00
 3830              	.LVL348:
1467:../Backend/gnu-efi-3.0.9/lib/print.c **** 
1468:../Backend/gnu-efi-3.0.9/lib/print.c ****         Data += Size;
 3831              		.loc 1 1468 9 is_stmt 1 view .LVU998
 3832              		.loc 1 1468 14 is_stmt 0 view .LVU999
 3833 197b 4801DD   		addq	%rbx, %rbp
 3834              	.LVL349:
1469:../Backend/gnu-efi-3.0.9/lib/print.c ****         Offset += Size;
 3835              		.loc 1 1469 9 is_stmt 1 view .LVU1000
 3836              		.loc 1 1469 16 is_stmt 0 view .LVU1001
 3837 197e 4901DD   		addq	%rbx, %r13
 3838              	.LVL350:
1470:../Backend/gnu-efi-3.0.9/lib/print.c ****         DataSize -= Size;
 3839              		.loc 1 1470 9 is_stmt 1 view .LVU1002
 3840              		.loc 1 1470 18 is_stmt 0 view .LVU1003
 3841 1981 4929DC   		subq	%rbx, %r12
 3842              	.LVL351:
1471:../Backend/gnu-efi-3.0.9/lib/print.c **** 
1472:../Backend/gnu-efi-3.0.9/lib/print.c ****         ScreenCount++;
 3843              		.loc 1 1472 9 is_stmt 1 view .LVU1004
 3844              		.loc 1 1472 20 is_stmt 0 view .LVU1005
 3845 1984 4983C601 		addq	$1, %r14
 3846              	.LVL352:
1473:../Backend/gnu-efi-3.0.9/lib/print.c ****         if (ScreenCount >= ScreenSize && ScreenSize != 0) {
 3847              		.loc 1 1473 9 is_stmt 1 view .LVU1006
 3848              		.loc 1 1473 25 is_stmt 0 view .LVU1007
 3849 1988 488B4424 		movq	48(%rsp), %rax
 3849      30
 3850              		.loc 1 1473 12 view .LVU1008
 3851 198d 4939C6   		cmpq	%rax, %r14
 3852 1990 7205     		jb	.L243
 3853              		.loc 1 1473 39 discriminator 1 view .LVU1009
 3854 1992 4885C0   		testq	%rax, %rax
 3855 1995 751E     		jne	.L257
 3856              	.LVL353:
 3857              	.L243:
1450:../Backend/gnu-efi-3.0.9/lib/print.c ****         Size = 16;
 3858              		.loc 1 1450 12 is_stmt 1 view .LVU1010
 3859 1997 4D85E4   		testq	%r12, %r12
 3860 199a 7459     		je	.L258
1451:../Backend/gnu-efi-3.0.9/lib/print.c ****         if (Size > DataSize) {
 3861              		.loc 1 1451 9 view .LVU1011
 3862              	.LVL354:
1452:../Backend/gnu-efi-3.0.9/lib/print.c ****             Size = DataSize;
 3863              		.loc 1 1452 9 view .LVU1012
1452:../Backend/gnu-efi-3.0.9/lib/print.c ****             Size = DataSize;
 3864              		.loc 1 1452 12 is_stmt 0 view .LVU1013
 3865 199c 4983FC0F 		cmpq	$15, %r12
 3866 19a0 0F8633FF 		jbe	.L251
 3866      FFFF
1451:../Backend/gnu-efi-3.0.9/lib/print.c ****         if (Size > DataSize) {
 3867              		.loc 1 1451 14 view .LVU1014
 3868 19a6 BB100000 		movl	$16, %ebx
 3868      00
 3869              	.L244:
 3870              	.LVL355:
1456:../Backend/gnu-efi-3.0.9/lib/print.c ****             c = Data[Index];
 3871              		.loc 1 1456 9 is_stmt 1 view .LVU1015
1456:../Backend/gnu-efi-3.0.9/lib/print.c ****             c = Data[Index];
 3872              		.loc 1 1456 19 is_stmt 0 view .LVU1016
 3873 19ab B8000000 		movl	$0, %eax
 3873      00
1456:../Backend/gnu-efi-3.0.9/lib/print.c ****             c = Data[Index];
 3874              		.loc 1 1456 9 view .LVU1017
 3875 19b0 E93BFFFF 		jmp	.L245
 3875      FF
 3876              	.LVL356:
 3877              	.L257:
1474:../Backend/gnu-efi-3.0.9/lib/print.c ****             //
1475:../Backend/gnu-efi-3.0.9/lib/print.c ****             // If ScreenSize == 0 we have the console redirected so don't
1476:../Backend/gnu-efi-3.0.9/lib/print.c ****             //  block updates
1477:../Backend/gnu-efi-3.0.9/lib/print.c ****             //
1478:../Backend/gnu-efi-3.0.9/lib/print.c ****             ScreenCount = 0;
 3878              		.loc 1 1478 13 is_stmt 1 view .LVU1018
1479:../Backend/gnu-efi-3.0.9/lib/print.c ****             Print (L"Press Enter to continue :");
 3879              		.loc 1 1479 13 view .LVU1019
 3880 19b5 488D3D00 		leaq	.LC8(%rip), %rdi
 3880      000000
 3881 19bc B8000000 		movl	$0, %eax
 3881      00
 3882 19c1 E8000000 		call	Print
 3882      00
 3883              	.LVL357:
1480:../Backend/gnu-efi-3.0.9/lib/print.c ****             Input (L"", ReturnStr, sizeof(ReturnStr)/sizeof(CHAR16));
 3884              		.loc 1 1480 13 view .LVU1020
 3885 19c6 488D7424 		leaq	46(%rsp), %rsi
 3885      2E
 3886 19cb BA010000 		movl	$1, %edx
 3886      00
 3887 19d0 488D3D00 		leaq	.LC9(%rip), %rdi
 3887      000000
 3888 19d7 E8000000 		call	Input
 3888      00
 3889              	.LVL358:
1481:../Backend/gnu-efi-3.0.9/lib/print.c ****             Print (L"\n");
 3890              		.loc 1 1481 13 view .LVU1021
 3891 19dc 488D3D00 		leaq	.LC10(%rip), %rdi
 3891      000000
 3892 19e3 B8000000 		movl	$0, %eax
 3892      00
 3893 19e8 E8000000 		call	Print
 3893      00
 3894              	.LVL359:
1478:../Backend/gnu-efi-3.0.9/lib/print.c ****             Print (L"Press Enter to continue :");
 3895              		.loc 1 1478 25 is_stmt 0 view .LVU1022
 3896 19ed 41BE0000 		movl	$0, %r14d
 3896      0000
 3897 19f3 EBA2     		jmp	.L243
 3898              	.LVL360:
 3899              	.L258:
1482:../Backend/gnu-efi-3.0.9/lib/print.c ****         }
1483:../Backend/gnu-efi-3.0.9/lib/print.c **** 
1484:../Backend/gnu-efi-3.0.9/lib/print.c ****     }
1485:../Backend/gnu-efi-3.0.9/lib/print.c **** }
 3900              		.loc 1 1485 1 view .LVU1023
 3901 19f5 4881C4A8 		addq	$168, %rsp
 3901      000000
 3902              		.cfi_def_cfa_offset 56
 3903 19fc 5B       		popq	%rbx
 3904              		.cfi_restore 3
 3905              		.cfi_def_cfa_offset 48
 3906 19fd 5D       		popq	%rbp
 3907              		.cfi_restore 6
 3908              		.cfi_def_cfa_offset 40
 3909              	.LVL361:
 3910              		.loc 1 1485 1 view .LVU1024
 3911 19fe 415C     		popq	%r12
 3912              		.cfi_restore 12
 3913              		.cfi_def_cfa_offset 32
 3914              	.LVL362:
 3915              		.loc 1 1485 1 view .LVU1025
 3916 1a00 415D     		popq	%r13
 3917              		.cfi_restore 13
 3918              		.cfi_def_cfa_offset 24
 3919              	.LVL363:
 3920              		.loc 1 1485 1 view .LVU1026
 3921 1a02 415E     		popq	%r14
 3922              		.cfi_restore 14
 3923              		.cfi_def_cfa_offset 16
 3924              	.LVL364:
 3925              		.loc 1 1485 1 view .LVU1027
 3926 1a04 415F     		popq	%r15
 3927              		.cfi_restore 15
 3928              		.cfi_def_cfa_offset 8
 3929              	.LVL365:
 3930              		.loc 1 1485 1 view .LVU1028
 3931 1a06 C3       		ret
 3932              		.cfi_endproc
 3933              	.LFE28:
 3935              		.hidden	Hex
 3936              		.globl	Hex
 3937              		.data
 3938              		.align 16
 3941              	Hex:
 3942 0000 30313233 		.ascii	"0123456789ABCDEF"
 3942      34353637 
 3942      38394142 
 3942      43444546 
 3943              		.section	.rodata
 3944 020a 00000000 		.align 16
 3944      0000
 3945              	.LC1:
 3946 0210 00000000 		.long	0
 3947 0214 00000080 		.long	-2147483648
 3948 0218 00000000 		.long	0
 3949 021c 00000000 		.long	0
 3950              		.align 8
 3951              	.LC2:
 3952 0220 00000000 		.long	0
 3953 0224 00002440 		.long	1076101120
 3954              		.text
 3955              	.Letext0:
 3956              		.file 2 "/usr/lib/gcc/x86_64-linux-gnu/13/include/stdint-gcc.h"
 3957              		.file 3 "../Backend/gnu-efi-3.0.9/inc/x86_64/efibind.h"
 3958              		.file 4 "../Backend/gnu-efi-3.0.9/inc/efidef.h"
 3959              		.file 5 "../Backend/gnu-efi-3.0.9/inc/efidevp.h"
 3960              		.file 6 "../Backend/gnu-efi-3.0.9/inc/efiprot.h"
 3961              		.file 7 "../Backend/gnu-efi-3.0.9/inc/efiapi.h"
 3962              		.file 8 "../Backend/gnu-efi-3.0.9/inc/eficon.h"
 3963              		.file 9 "../Backend/gnu-efi-3.0.9/inc/efistdarg.h"
 3964              		.file 10 "<built-in>"
 3965              		.file 11 "../Backend/gnu-efi-3.0.9/inc/efilib.h"
 3966              		.file 12 "../Backend/gnu-efi-3.0.9/inc/efidebug.h"
 3967              		.file 13 "../Backend/gnu-efi-3.0.9/lib/lib.h"
 22701              		.section	.note.gnu.property,"a"
 22702              		.align 8
 22703 0000 04000000 		.long	1f - 0f
 22704 0004 10000000 		.long	4f - 1f
 22705 0008 05000000 		.long	5
 22706              	0:
 22707 000c 474E5500 		.string	"GNU"
 22708              	1:
 22709              		.align 8
 22710 0010 020000C0 		.long	0xc0000002
 22711 0014 04000000 		.long	3f - 2f
 22712              	2:
 22713 0018 03000000 		.long	0x3
 22714              	3:
 22715 001c 00000000 		.align 8
 22716              	4:
