   1              		.file	"str.c"
   2              		.text
   3              	.Ltext0:
   4              		.cfi_sections	.debug_frame
   5              		.file 0 "/home/kokipc/Downloads/Bootloader-Operativos-514eab6e99233e465cadca9e7789fbac7f66fa4f/Sim
   6              		.globl	StrCmp
   7              		.hidden	StrCmp
   9              	StrCmp:
  10              	.LVL0:
  11              	.LFB0:
  12              		.file 1 "../Backend/gnu-efi-3.0.9/lib/str.c"
   1:../Backend/gnu-efi-3.0.9/lib/str.c **** /*++
   2:../Backend/gnu-efi-3.0.9/lib/str.c **** 
   3:../Backend/gnu-efi-3.0.9/lib/str.c **** Copyright (c) 1998  Intel Corporation
   4:../Backend/gnu-efi-3.0.9/lib/str.c **** 
   5:../Backend/gnu-efi-3.0.9/lib/str.c **** Module Name:
   6:../Backend/gnu-efi-3.0.9/lib/str.c **** 
   7:../Backend/gnu-efi-3.0.9/lib/str.c ****     str.c
   8:../Backend/gnu-efi-3.0.9/lib/str.c **** 
   9:../Backend/gnu-efi-3.0.9/lib/str.c **** Abstract:
  10:../Backend/gnu-efi-3.0.9/lib/str.c **** 
  11:../Backend/gnu-efi-3.0.9/lib/str.c **** 
  12:../Backend/gnu-efi-3.0.9/lib/str.c **** 
  13:../Backend/gnu-efi-3.0.9/lib/str.c **** 
  14:../Backend/gnu-efi-3.0.9/lib/str.c **** Revision History
  15:../Backend/gnu-efi-3.0.9/lib/str.c **** 
  16:../Backend/gnu-efi-3.0.9/lib/str.c **** --*/
  17:../Backend/gnu-efi-3.0.9/lib/str.c **** 
  18:../Backend/gnu-efi-3.0.9/lib/str.c **** #include "lib.h"
  19:../Backend/gnu-efi-3.0.9/lib/str.c **** 
  20:../Backend/gnu-efi-3.0.9/lib/str.c **** 
  21:../Backend/gnu-efi-3.0.9/lib/str.c **** INTN
  22:../Backend/gnu-efi-3.0.9/lib/str.c **** StrCmp (
  23:../Backend/gnu-efi-3.0.9/lib/str.c ****     IN CONST CHAR16   *s1,
  24:../Backend/gnu-efi-3.0.9/lib/str.c ****     IN CONST CHAR16   *s2
  25:../Backend/gnu-efi-3.0.9/lib/str.c ****     )
  26:../Backend/gnu-efi-3.0.9/lib/str.c **** // compare strings
  27:../Backend/gnu-efi-3.0.9/lib/str.c **** {
  13              		.loc 1 27 1 view -0
  14              		.cfi_startproc
  15              		.loc 1 27 1 is_stmt 0 view .LVU1
  16 0000 F30F1EFA 		endbr64
  17 0004 4883EC08 		subq	$8, %rsp
  18              		.cfi_def_cfa_offset 16
  28:../Backend/gnu-efi-3.0.9/lib/str.c ****     return RtStrCmp(s1, s2);
  19              		.loc 1 28 5 is_stmt 1 view .LVU2
  20              		.loc 1 28 12 is_stmt 0 view .LVU3
  21 0008 E8000000 		call	RtStrCmp
  21      00
  22              	.LVL1:
  29:../Backend/gnu-efi-3.0.9/lib/str.c **** }
  23              		.loc 1 29 1 view .LVU4
  24 000d 4883C408 		addq	$8, %rsp
  25              		.cfi_def_cfa_offset 8
  26 0011 C3       		ret
  27              		.cfi_endproc
  28              	.LFE0:
  30              		.globl	StrnCmp
  31              		.hidden	StrnCmp
  33              	StrnCmp:
  34              	.LVL2:
  35              	.LFB1:
  30:../Backend/gnu-efi-3.0.9/lib/str.c **** 
  31:../Backend/gnu-efi-3.0.9/lib/str.c **** INTN
  32:../Backend/gnu-efi-3.0.9/lib/str.c **** StrnCmp (
  33:../Backend/gnu-efi-3.0.9/lib/str.c ****     IN CONST CHAR16   *s1,
  34:../Backend/gnu-efi-3.0.9/lib/str.c ****     IN CONST CHAR16   *s2,
  35:../Backend/gnu-efi-3.0.9/lib/str.c ****     IN UINTN    len
  36:../Backend/gnu-efi-3.0.9/lib/str.c ****     )
  37:../Backend/gnu-efi-3.0.9/lib/str.c **** // compare strings
  38:../Backend/gnu-efi-3.0.9/lib/str.c **** {
  36              		.loc 1 38 1 is_stmt 1 view -0
  37              		.cfi_startproc
  38              		.loc 1 38 1 is_stmt 0 view .LVU6
  39 0012 F30F1EFA 		endbr64
  39:../Backend/gnu-efi-3.0.9/lib/str.c ****     while (*s1  &&  len) {
  40              		.loc 1 39 5 is_stmt 1 view .LVU7
  41              		.loc 1 39 11 is_stmt 0 view .LVU8
  42 0016 EB0C     		jmp	.L4
  43              	.L9:
  40:../Backend/gnu-efi-3.0.9/lib/str.c ****         if (*s1 != *s2) {
  41:../Backend/gnu-efi-3.0.9/lib/str.c ****             break;
  42:../Backend/gnu-efi-3.0.9/lib/str.c ****         }
  43:../Backend/gnu-efi-3.0.9/lib/str.c **** 
  44:../Backend/gnu-efi-3.0.9/lib/str.c ****         s1  += 1;
  44              		.loc 1 44 9 is_stmt 1 view .LVU9
  45              		.loc 1 44 13 is_stmt 0 view .LVU10
  46 0018 4883C702 		addq	$2, %rdi
  47              	.LVL3:
  45:../Backend/gnu-efi-3.0.9/lib/str.c ****         s2  += 1;
  48              		.loc 1 45 9 is_stmt 1 view .LVU11
  49              		.loc 1 45 13 is_stmt 0 view .LVU12
  50 001c 4883C602 		addq	$2, %rsi
  51              	.LVL4:
  46:../Backend/gnu-efi-3.0.9/lib/str.c ****         len -= 1;
  52              		.loc 1 46 9 is_stmt 1 view .LVU13
  53              		.loc 1 46 13 is_stmt 0 view .LVU14
  54 0020 4883EA01 		subq	$1, %rdx
  55              	.LVL5:
  56              	.L4:
  39:../Backend/gnu-efi-3.0.9/lib/str.c ****         if (*s1 != *s2) {
  57              		.loc 1 39 17 is_stmt 1 view .LVU15
  39:../Backend/gnu-efi-3.0.9/lib/str.c ****         if (*s1 != *s2) {
  58              		.loc 1 39 12 is_stmt 0 view .LVU16
  59 0024 0FB707   		movzwl	(%rdi), %eax
  39:../Backend/gnu-efi-3.0.9/lib/str.c ****         if (*s1 != *s2) {
  60              		.loc 1 39 17 view .LVU17
  61 0027 6685C0   		testw	%ax, %ax
  62 002a 740A     		je	.L5
  39:../Backend/gnu-efi-3.0.9/lib/str.c ****         if (*s1 != *s2) {
  63              		.loc 1 39 17 discriminator 1 view .LVU18
  64 002c 4885D2   		testq	%rdx, %rdx
  65 002f 7405     		je	.L5
  40:../Backend/gnu-efi-3.0.9/lib/str.c ****             break;
  66              		.loc 1 40 9 is_stmt 1 view .LVU19
  40:../Backend/gnu-efi-3.0.9/lib/str.c ****             break;
  67              		.loc 1 40 12 is_stmt 0 view .LVU20
  68 0031 663906   		cmpw	%ax, (%rsi)
  69 0034 74E2     		je	.L9
  70              	.L5:
  47:../Backend/gnu-efi-3.0.9/lib/str.c ****     }
  48:../Backend/gnu-efi-3.0.9/lib/str.c **** 
  49:../Backend/gnu-efi-3.0.9/lib/str.c ****     return len ? *s1 - *s2 : 0;
  71              		.loc 1 49 5 is_stmt 1 view .LVU21
  72              		.loc 1 49 28 is_stmt 0 view .LVU22
  73 0036 4885D2   		testq	%rdx, %rdx
  74 0039 740B     		je	.L8
  75              		.loc 1 49 18 discriminator 1 view .LVU23
  76 003b 0FB7C0   		movzwl	%ax, %eax
  77              		.loc 1 49 24 discriminator 1 view .LVU24
  78 003e 0FB716   		movzwl	(%rsi), %edx
  79              	.LVL6:
  80              		.loc 1 49 22 discriminator 1 view .LVU25
  81 0041 29D0     		subl	%edx, %eax
  82              		.loc 1 49 28 discriminator 1 view .LVU26
  83 0043 4898     		cltq
  84 0045 C3       		ret
  85              	.LVL7:
  86              	.L8:
  87              		.loc 1 49 28 discriminator 2 view .LVU27
  88 0046 B8000000 		movl	$0, %eax
  88      00
  50:../Backend/gnu-efi-3.0.9/lib/str.c **** }
  89              		.loc 1 50 1 view .LVU28
  90 004b C3       		ret
  91              		.cfi_endproc
  92              	.LFE1:
  94              		.globl	LibStubStriCmp
  95              		.hidden	LibStubStriCmp
  97              	LibStubStriCmp:
  98              	.LVL8:
  99              	.LFB2:
  51:../Backend/gnu-efi-3.0.9/lib/str.c **** 
  52:../Backend/gnu-efi-3.0.9/lib/str.c **** 
  53:../Backend/gnu-efi-3.0.9/lib/str.c **** INTN EFIAPI
  54:../Backend/gnu-efi-3.0.9/lib/str.c **** LibStubStriCmp (
  55:../Backend/gnu-efi-3.0.9/lib/str.c ****     IN EFI_UNICODE_COLLATION_INTERFACE  *This EFI_UNUSED,
  56:../Backend/gnu-efi-3.0.9/lib/str.c ****     IN CHAR16                           *s1,
  57:../Backend/gnu-efi-3.0.9/lib/str.c ****     IN CHAR16                           *s2
  58:../Backend/gnu-efi-3.0.9/lib/str.c ****     )
  59:../Backend/gnu-efi-3.0.9/lib/str.c **** {
 100              		.loc 1 59 1 is_stmt 1 view -0
 101              		.cfi_startproc
 102              		.loc 1 59 1 is_stmt 0 view .LVU30
 103 004c F30F1EFA 		endbr64
 104 0050 57       		pushq	%rdi
 105              		.cfi_def_cfa_offset 16
 106              		.cfi_offset 5, -16
 107 0051 56       		pushq	%rsi
 108              		.cfi_def_cfa_offset 24
 109              		.cfi_offset 4, -24
 110 0052 4881ECA8 		subq	$168, %rsp
 110      000000
 111              		.cfi_def_cfa_offset 192
 112 0059 0F293424 		movaps	%xmm6, (%rsp)
 113 005d 0F297C24 		movaps	%xmm7, 16(%rsp)
 113      10
 114 0062 440F2944 		movaps	%xmm8, 32(%rsp)
 114      2420
 115 0068 440F294C 		movaps	%xmm9, 48(%rsp)
 115      2430
 116 006e 440F2954 		movaps	%xmm10, 64(%rsp)
 116      2440
 117 0074 440F295C 		movaps	%xmm11, 80(%rsp)
 117      2450
 118 007a 440F2964 		movaps	%xmm12, 96(%rsp)
 118      2460
 119 0080 440F296C 		movaps	%xmm13, 112(%rsp)
 119      2470
 120 0086 440F29B4 		movaps	%xmm14, 128(%rsp)
 120      24800000 
 120      00
 121 008f 440F29BC 		movaps	%xmm15, 144(%rsp)
 121      24900000 
 121      00
 122              		.cfi_offset 23, -192
 123              		.cfi_offset 24, -176
 124              		.cfi_offset 25, -160
 125              		.cfi_offset 26, -144
 126              		.cfi_offset 27, -128
 127              		.cfi_offset 28, -112
 128              		.cfi_offset 29, -96
 129              		.cfi_offset 30, -80
 130              		.cfi_offset 31, -64
 131              		.cfi_offset 32, -48
 132 0098 4889D7   		movq	%rdx, %rdi
 133 009b 4C89C6   		movq	%r8, %rsi
  60:../Backend/gnu-efi-3.0.9/lib/str.c ****     return StrCmp (s1, s2);
 134              		.loc 1 60 5 is_stmt 1 view .LVU31
 135              		.loc 1 60 12 is_stmt 0 view .LVU32
 136 009e E8000000 		call	StrCmp
 136      00
 137              	.LVL9:
  61:../Backend/gnu-efi-3.0.9/lib/str.c **** }
 138              		.loc 1 61 1 view .LVU33
 139 00a3 0F283424 		movaps	(%rsp), %xmm6
 140 00a7 0F287C24 		movaps	16(%rsp), %xmm7
 140      10
 141 00ac 440F2844 		movaps	32(%rsp), %xmm8
 141      2420
 142 00b2 440F284C 		movaps	48(%rsp), %xmm9
 142      2430
 143 00b8 440F2854 		movaps	64(%rsp), %xmm10
 143      2440
 144 00be 440F285C 		movaps	80(%rsp), %xmm11
 144      2450
 145 00c4 440F2864 		movaps	96(%rsp), %xmm12
 145      2460
 146 00ca 440F286C 		movaps	112(%rsp), %xmm13
 146      2470
 147 00d0 440F28B4 		movaps	128(%rsp), %xmm14
 147      24800000 
 147      00
 148 00d9 440F28BC 		movaps	144(%rsp), %xmm15
 148      24900000 
 148      00
 149 00e2 4881C4A8 		addq	$168, %rsp
 149      000000
 150              		.cfi_restore 32
 151              		.cfi_restore 31
 152              		.cfi_restore 30
 153              		.cfi_restore 29
 154              		.cfi_restore 28
 155              		.cfi_restore 27
 156              		.cfi_restore 26
 157              		.cfi_restore 25
 158              		.cfi_restore 24
 159              		.cfi_restore 23
 160              		.cfi_def_cfa_offset 24
 161 00e9 5E       		popq	%rsi
 162              		.cfi_restore 4
 163              		.cfi_def_cfa_offset 16
 164 00ea 5F       		popq	%rdi
 165              		.cfi_restore 5
 166              		.cfi_def_cfa_offset 8
 167 00eb C3       		ret
 168              		.cfi_endproc
 169              	.LFE2:
 171              		.globl	LibStubStrLwrUpr
 172              		.hidden	LibStubStrLwrUpr
 174              	LibStubStrLwrUpr:
 175              	.LVL10:
 176              	.LFB3:
  62:../Backend/gnu-efi-3.0.9/lib/str.c **** 
  63:../Backend/gnu-efi-3.0.9/lib/str.c **** VOID EFIAPI
  64:../Backend/gnu-efi-3.0.9/lib/str.c **** LibStubStrLwrUpr (
  65:../Backend/gnu-efi-3.0.9/lib/str.c ****     IN EFI_UNICODE_COLLATION_INTERFACE  *This EFI_UNUSED,
  66:../Backend/gnu-efi-3.0.9/lib/str.c ****     IN CHAR16                           *Str EFI_UNUSED
  67:../Backend/gnu-efi-3.0.9/lib/str.c ****     )
  68:../Backend/gnu-efi-3.0.9/lib/str.c **** {
 177              		.loc 1 68 1 is_stmt 1 view -0
 178              		.cfi_startproc
 179              		.loc 1 68 1 is_stmt 0 view .LVU35
 180 00ec F30F1EFA 		endbr64
  69:../Backend/gnu-efi-3.0.9/lib/str.c **** }
 181              		.loc 1 69 1 is_stmt 1 view .LVU36
 182 00f0 C3       		ret
 183              		.cfi_endproc
 184              	.LFE3:
 186              		.globl	StriCmp
 187              		.hidden	StriCmp
 189              	StriCmp:
 190              	.LVL11:
 191              	.LFB4:
  70:../Backend/gnu-efi-3.0.9/lib/str.c **** 
  71:../Backend/gnu-efi-3.0.9/lib/str.c **** INTN
  72:../Backend/gnu-efi-3.0.9/lib/str.c **** StriCmp (
  73:../Backend/gnu-efi-3.0.9/lib/str.c ****     IN CONST CHAR16   *s1,
  74:../Backend/gnu-efi-3.0.9/lib/str.c ****     IN CONST CHAR16   *s2
  75:../Backend/gnu-efi-3.0.9/lib/str.c ****     )
  76:../Backend/gnu-efi-3.0.9/lib/str.c **** // compare strings
  77:../Backend/gnu-efi-3.0.9/lib/str.c **** {
 192              		.loc 1 77 1 view -0
 193              		.cfi_startproc
 194              		.loc 1 77 1 is_stmt 0 view .LVU38
 195 00f1 F30F1EFA 		endbr64
 196 00f5 4883EC28 		subq	$40, %rsp
 197              		.cfi_def_cfa_offset 48
 198 00f9 4889FA   		movq	%rdi, %rdx
 199 00fc 4989F0   		movq	%rsi, %r8
  78:../Backend/gnu-efi-3.0.9/lib/str.c ****     if (UnicodeInterface == &LibStubUnicodeInterface)
 200              		.loc 1 78 5 is_stmt 1 view .LVU39
 201              		.loc 1 78 26 is_stmt 0 view .LVU40
 202 00ff 488B0500 		movq	UnicodeInterface(%rip), %rax
 202      000000
 203              		.loc 1 78 8 view .LVU41
 204 0106 488D0D00 		leaq	LibStubUnicodeInterface(%rip), %rcx
 204      000000
 205 010d 4839C8   		cmpq	%rcx, %rax
 206 0110 740A     		je	.L17
  79:../Backend/gnu-efi-3.0.9/lib/str.c ****     	return UnicodeInterface->StriColl(UnicodeInterface, (CHAR16 *)s1, (CHAR16 *)s2);
  80:../Backend/gnu-efi-3.0.9/lib/str.c ****     else
  81:../Backend/gnu-efi-3.0.9/lib/str.c **** 	return uefi_call_wrapper(UnicodeInterface->StriColl, 3, UnicodeInterface, (CHAR16 *)s1, (CHAR16 *)
 207              		.loc 1 81 2 is_stmt 1 view .LVU42
 208              		.loc 1 81 9 is_stmt 0 view .LVU43
 209 0112 4889C1   		movq	%rax, %rcx
 210 0115 FF10     		call	*(%rax)
 211              	.LVL12:
 212              	.L13:
  82:../Backend/gnu-efi-3.0.9/lib/str.c **** }
 213              		.loc 1 82 1 view .LVU44
 214 0117 4883C428 		addq	$40, %rsp
 215              		.cfi_remember_state
 216              		.cfi_def_cfa_offset 8
 217 011b C3       		ret
 218              	.LVL13:
 219              	.L17:
 220              		.cfi_restore_state
  79:../Backend/gnu-efi-3.0.9/lib/str.c ****     	return UnicodeInterface->StriColl(UnicodeInterface, (CHAR16 *)s1, (CHAR16 *)s2);
 221              		.loc 1 79 6 is_stmt 1 view .LVU45
  79:../Backend/gnu-efi-3.0.9/lib/str.c ****     	return UnicodeInterface->StriColl(UnicodeInterface, (CHAR16 *)s1, (CHAR16 *)s2);
 222              		.loc 1 79 13 is_stmt 0 view .LVU46
 223 011c 4889C1   		movq	%rax, %rcx
 224 011f FF10     		call	*(%rax)
 225              	.LVL14:
  79:../Backend/gnu-efi-3.0.9/lib/str.c ****     	return UnicodeInterface->StriColl(UnicodeInterface, (CHAR16 *)s1, (CHAR16 *)s2);
 226              		.loc 1 79 13 view .LVU47
 227 0121 EBF4     		jmp	.L13
 228              		.cfi_endproc
 229              	.LFE4:
 231              		.globl	StrLwr
 232              		.hidden	StrLwr
 234              	StrLwr:
 235              	.LVL15:
 236              	.LFB5:
  83:../Backend/gnu-efi-3.0.9/lib/str.c **** 
  84:../Backend/gnu-efi-3.0.9/lib/str.c **** VOID
  85:../Backend/gnu-efi-3.0.9/lib/str.c **** StrLwr (
  86:../Backend/gnu-efi-3.0.9/lib/str.c ****     IN CHAR16   *Str
  87:../Backend/gnu-efi-3.0.9/lib/str.c ****     )
  88:../Backend/gnu-efi-3.0.9/lib/str.c **** // lwoer case string
  89:../Backend/gnu-efi-3.0.9/lib/str.c **** {
 237              		.loc 1 89 1 is_stmt 1 view -0
 238              		.cfi_startproc
 239              		.loc 1 89 1 is_stmt 0 view .LVU49
 240 0123 F30F1EFA 		endbr64
 241 0127 4883EC28 		subq	$40, %rsp
 242              		.cfi_def_cfa_offset 48
 243 012b 4889FA   		movq	%rdi, %rdx
  90:../Backend/gnu-efi-3.0.9/lib/str.c ****     if (UnicodeInterface == &LibStubUnicodeInterface)
 244              		.loc 1 90 5 is_stmt 1 view .LVU50
 245              		.loc 1 90 26 is_stmt 0 view .LVU51
 246 012e 488B0500 		movq	UnicodeInterface(%rip), %rax
 246      000000
 247              		.loc 1 90 8 view .LVU52
 248 0135 488D0D00 		leaq	LibStubUnicodeInterface(%rip), %rcx
 248      000000
 249 013c 4839C8   		cmpq	%rcx, %rax
 250 013f 740B     		je	.L22
  91:../Backend/gnu-efi-3.0.9/lib/str.c ****     	UnicodeInterface->StrLwr(UnicodeInterface, Str);
  92:../Backend/gnu-efi-3.0.9/lib/str.c ****     else uefi_call_wrapper(UnicodeInterface->StrLwr, 2, UnicodeInterface, Str);
 251              		.loc 1 92 10 is_stmt 1 view .LVU53
 252 0141 4889C1   		movq	%rax, %rcx
 253 0144 FF5010   		call	*16(%rax)
 254              	.LVL16:
 255              	.L18:
  93:../Backend/gnu-efi-3.0.9/lib/str.c **** }
 256              		.loc 1 93 1 is_stmt 0 view .LVU54
 257 0147 4883C428 		addq	$40, %rsp
 258              		.cfi_remember_state
 259              		.cfi_def_cfa_offset 8
 260 014b C3       		ret
 261              	.LVL17:
 262              	.L22:
 263              		.cfi_restore_state
  91:../Backend/gnu-efi-3.0.9/lib/str.c ****     	UnicodeInterface->StrLwr(UnicodeInterface, Str);
 264              		.loc 1 91 6 is_stmt 1 view .LVU55
 265 014c 4889C1   		movq	%rax, %rcx
 266 014f FF5010   		call	*16(%rax)
 267              	.LVL18:
  91:../Backend/gnu-efi-3.0.9/lib/str.c ****     	UnicodeInterface->StrLwr(UnicodeInterface, Str);
 268              		.loc 1 91 6 is_stmt 0 view .LVU56
 269 0152 EBF3     		jmp	.L18
 270              		.cfi_endproc
 271              	.LFE5:
 273              		.globl	StrUpr
 274              		.hidden	StrUpr
 276              	StrUpr:
 277              	.LVL19:
 278              	.LFB6:
  94:../Backend/gnu-efi-3.0.9/lib/str.c **** 
  95:../Backend/gnu-efi-3.0.9/lib/str.c **** VOID
  96:../Backend/gnu-efi-3.0.9/lib/str.c **** StrUpr (
  97:../Backend/gnu-efi-3.0.9/lib/str.c ****     IN CHAR16   *Str
  98:../Backend/gnu-efi-3.0.9/lib/str.c ****     )
  99:../Backend/gnu-efi-3.0.9/lib/str.c **** // upper case string
 100:../Backend/gnu-efi-3.0.9/lib/str.c **** {
 279              		.loc 1 100 1 is_stmt 1 view -0
 280              		.cfi_startproc
 281              		.loc 1 100 1 is_stmt 0 view .LVU58
 282 0154 F30F1EFA 		endbr64
 283 0158 4883EC28 		subq	$40, %rsp
 284              		.cfi_def_cfa_offset 48
 285 015c 4889FA   		movq	%rdi, %rdx
 101:../Backend/gnu-efi-3.0.9/lib/str.c ****     if (UnicodeInterface == &LibStubUnicodeInterface)
 286              		.loc 1 101 5 is_stmt 1 view .LVU59
 287              		.loc 1 101 26 is_stmt 0 view .LVU60
 288 015f 488B0500 		movq	UnicodeInterface(%rip), %rax
 288      000000
 289              		.loc 1 101 8 view .LVU61
 290 0166 488D0D00 		leaq	LibStubUnicodeInterface(%rip), %rcx
 290      000000
 291 016d 4839C8   		cmpq	%rcx, %rax
 292 0170 740B     		je	.L27
 102:../Backend/gnu-efi-3.0.9/lib/str.c ****         UnicodeInterface->StrUpr(UnicodeInterface, Str);
 103:../Backend/gnu-efi-3.0.9/lib/str.c ****     else uefi_call_wrapper(UnicodeInterface->StrUpr, 2, UnicodeInterface, Str);
 293              		.loc 1 103 10 is_stmt 1 view .LVU62
 294 0172 4889C1   		movq	%rax, %rcx
 295 0175 FF5018   		call	*24(%rax)
 296              	.LVL20:
 297              	.L23:
 104:../Backend/gnu-efi-3.0.9/lib/str.c **** }
 298              		.loc 1 104 1 is_stmt 0 view .LVU63
 299 0178 4883C428 		addq	$40, %rsp
 300              		.cfi_remember_state
 301              		.cfi_def_cfa_offset 8
 302 017c C3       		ret
 303              	.LVL21:
 304              	.L27:
 305              		.cfi_restore_state
 102:../Backend/gnu-efi-3.0.9/lib/str.c ****         UnicodeInterface->StrUpr(UnicodeInterface, Str);
 306              		.loc 1 102 9 is_stmt 1 view .LVU64
 307 017d 4889C1   		movq	%rax, %rcx
 308 0180 FF5018   		call	*24(%rax)
 309              	.LVL22:
 102:../Backend/gnu-efi-3.0.9/lib/str.c ****         UnicodeInterface->StrUpr(UnicodeInterface, Str);
 310              		.loc 1 102 9 is_stmt 0 view .LVU65
 311 0183 EBF3     		jmp	.L23
 312              		.cfi_endproc
 313              	.LFE6:
 315              		.globl	StrCpy
 316              		.hidden	StrCpy
 318              	StrCpy:
 319              	.LVL23:
 320              	.LFB7:
 105:../Backend/gnu-efi-3.0.9/lib/str.c **** 
 106:../Backend/gnu-efi-3.0.9/lib/str.c **** VOID
 107:../Backend/gnu-efi-3.0.9/lib/str.c **** StrCpy (
 108:../Backend/gnu-efi-3.0.9/lib/str.c ****     IN CHAR16   *Dest,
 109:../Backend/gnu-efi-3.0.9/lib/str.c ****     IN CONST CHAR16   *Src
 110:../Backend/gnu-efi-3.0.9/lib/str.c ****     )
 111:../Backend/gnu-efi-3.0.9/lib/str.c **** // copy strings
 112:../Backend/gnu-efi-3.0.9/lib/str.c **** {
 321              		.loc 1 112 1 is_stmt 1 view -0
 322              		.cfi_startproc
 323              		.loc 1 112 1 is_stmt 0 view .LVU67
 324 0185 F30F1EFA 		endbr64
 325 0189 4883EC08 		subq	$8, %rsp
 326              		.cfi_def_cfa_offset 16
 113:../Backend/gnu-efi-3.0.9/lib/str.c ****     RtStrCpy (Dest, Src);
 327              		.loc 1 113 5 is_stmt 1 view .LVU68
 328 018d E8000000 		call	RtStrCpy
 328      00
 329              	.LVL24:
 114:../Backend/gnu-efi-3.0.9/lib/str.c **** }
 330              		.loc 1 114 1 is_stmt 0 view .LVU69
 331 0192 4883C408 		addq	$8, %rsp
 332              		.cfi_def_cfa_offset 8
 333 0196 C3       		ret
 334              		.cfi_endproc
 335              	.LFE7:
 337              		.globl	StrnCpy
 338              		.hidden	StrnCpy
 340              	StrnCpy:
 341              	.LVL25:
 342              	.LFB8:
 115:../Backend/gnu-efi-3.0.9/lib/str.c **** 
 116:../Backend/gnu-efi-3.0.9/lib/str.c **** VOID
 117:../Backend/gnu-efi-3.0.9/lib/str.c **** StrnCpy (
 118:../Backend/gnu-efi-3.0.9/lib/str.c ****     IN CHAR16   *Dest,
 119:../Backend/gnu-efi-3.0.9/lib/str.c ****     IN CONST CHAR16   *Src,
 120:../Backend/gnu-efi-3.0.9/lib/str.c ****     IN UINTN     Len
 121:../Backend/gnu-efi-3.0.9/lib/str.c ****     )
 122:../Backend/gnu-efi-3.0.9/lib/str.c **** // copy strings
 123:../Backend/gnu-efi-3.0.9/lib/str.c **** {
 343              		.loc 1 123 1 is_stmt 1 view -0
 344              		.cfi_startproc
 345              		.loc 1 123 1 is_stmt 0 view .LVU71
 346 0197 F30F1EFA 		endbr64
 347 019b 4883EC08 		subq	$8, %rsp
 348              		.cfi_def_cfa_offset 16
 124:../Backend/gnu-efi-3.0.9/lib/str.c ****     RtStrnCpy (Dest, Src, Len);
 349              		.loc 1 124 5 is_stmt 1 view .LVU72
 350 019f E8000000 		call	RtStrnCpy
 350      00
 351              	.LVL26:
 125:../Backend/gnu-efi-3.0.9/lib/str.c **** }
 352              		.loc 1 125 1 is_stmt 0 view .LVU73
 353 01a4 4883C408 		addq	$8, %rsp
 354              		.cfi_def_cfa_offset 8
 355 01a8 C3       		ret
 356              		.cfi_endproc
 357              	.LFE8:
 359              		.globl	StpCpy
 360              		.hidden	StpCpy
 362              	StpCpy:
 363              	.LVL27:
 364              	.LFB9:
 126:../Backend/gnu-efi-3.0.9/lib/str.c **** 
 127:../Backend/gnu-efi-3.0.9/lib/str.c **** CHAR16 *
 128:../Backend/gnu-efi-3.0.9/lib/str.c **** StpCpy (
 129:../Backend/gnu-efi-3.0.9/lib/str.c ****     IN CHAR16   *Dest,
 130:../Backend/gnu-efi-3.0.9/lib/str.c ****     IN CONST CHAR16   *Src
 131:../Backend/gnu-efi-3.0.9/lib/str.c ****     )
 132:../Backend/gnu-efi-3.0.9/lib/str.c **** // copy strings
 133:../Backend/gnu-efi-3.0.9/lib/str.c **** {
 365              		.loc 1 133 1 is_stmt 1 view -0
 366              		.cfi_startproc
 367              		.loc 1 133 1 is_stmt 0 view .LVU75
 368 01a9 F30F1EFA 		endbr64
 369 01ad 4883EC08 		subq	$8, %rsp
 370              		.cfi_def_cfa_offset 16
 134:../Backend/gnu-efi-3.0.9/lib/str.c ****     return RtStpCpy (Dest, Src);
 371              		.loc 1 134 5 is_stmt 1 view .LVU76
 372              		.loc 1 134 12 is_stmt 0 view .LVU77
 373 01b1 E8000000 		call	RtStpCpy
 373      00
 374              	.LVL28:
 135:../Backend/gnu-efi-3.0.9/lib/str.c **** }
 375              		.loc 1 135 1 view .LVU78
 376 01b6 4883C408 		addq	$8, %rsp
 377              		.cfi_def_cfa_offset 8
 378 01ba C3       		ret
 379              		.cfi_endproc
 380              	.LFE9:
 382              		.globl	StpnCpy
 383              		.hidden	StpnCpy
 385              	StpnCpy:
 386              	.LVL29:
 387              	.LFB10:
 136:../Backend/gnu-efi-3.0.9/lib/str.c **** 
 137:../Backend/gnu-efi-3.0.9/lib/str.c **** CHAR16 *
 138:../Backend/gnu-efi-3.0.9/lib/str.c **** StpnCpy (
 139:../Backend/gnu-efi-3.0.9/lib/str.c ****     IN CHAR16   *Dest,
 140:../Backend/gnu-efi-3.0.9/lib/str.c ****     IN CONST CHAR16   *Src,
 141:../Backend/gnu-efi-3.0.9/lib/str.c ****     IN UINTN     Len
 142:../Backend/gnu-efi-3.0.9/lib/str.c ****     )
 143:../Backend/gnu-efi-3.0.9/lib/str.c **** // copy strings
 144:../Backend/gnu-efi-3.0.9/lib/str.c **** {
 388              		.loc 1 144 1 is_stmt 1 view -0
 389              		.cfi_startproc
 390              		.loc 1 144 1 is_stmt 0 view .LVU80
 391 01bb F30F1EFA 		endbr64
 392 01bf 4883EC08 		subq	$8, %rsp
 393              		.cfi_def_cfa_offset 16
 145:../Backend/gnu-efi-3.0.9/lib/str.c ****     return RtStpnCpy (Dest, Src, Len);
 394              		.loc 1 145 5 is_stmt 1 view .LVU81
 395              		.loc 1 145 12 is_stmt 0 view .LVU82
 396 01c3 E8000000 		call	RtStpnCpy
 396      00
 397              	.LVL30:
 146:../Backend/gnu-efi-3.0.9/lib/str.c **** }
 398              		.loc 1 146 1 view .LVU83
 399 01c8 4883C408 		addq	$8, %rsp
 400              		.cfi_def_cfa_offset 8
 401 01cc C3       		ret
 402              		.cfi_endproc
 403              	.LFE10:
 405              		.globl	StrCat
 406              		.hidden	StrCat
 408              	StrCat:
 409              	.LVL31:
 410              	.LFB11:
 147:../Backend/gnu-efi-3.0.9/lib/str.c **** 
 148:../Backend/gnu-efi-3.0.9/lib/str.c **** VOID
 149:../Backend/gnu-efi-3.0.9/lib/str.c **** StrCat (
 150:../Backend/gnu-efi-3.0.9/lib/str.c ****     IN CHAR16   *Dest,
 151:../Backend/gnu-efi-3.0.9/lib/str.c ****     IN CONST CHAR16   *Src
 152:../Backend/gnu-efi-3.0.9/lib/str.c ****     )
 153:../Backend/gnu-efi-3.0.9/lib/str.c **** {
 411              		.loc 1 153 1 is_stmt 1 view -0
 412              		.cfi_startproc
 413              		.loc 1 153 1 is_stmt 0 view .LVU85
 414 01cd F30F1EFA 		endbr64
 415 01d1 4883EC08 		subq	$8, %rsp
 416              		.cfi_def_cfa_offset 16
 154:../Backend/gnu-efi-3.0.9/lib/str.c ****     RtStrCat(Dest, Src);
 417              		.loc 1 154 5 is_stmt 1 view .LVU86
 418 01d5 E8000000 		call	RtStrCat
 418      00
 419              	.LVL32:
 155:../Backend/gnu-efi-3.0.9/lib/str.c **** }
 420              		.loc 1 155 1 is_stmt 0 view .LVU87
 421 01da 4883C408 		addq	$8, %rsp
 422              		.cfi_def_cfa_offset 8
 423 01de C3       		ret
 424              		.cfi_endproc
 425              	.LFE11:
 427              		.globl	StrnCat
 428              		.hidden	StrnCat
 430              	StrnCat:
 431              	.LVL33:
 432              	.LFB12:
 156:../Backend/gnu-efi-3.0.9/lib/str.c **** 
 157:../Backend/gnu-efi-3.0.9/lib/str.c **** VOID
 158:../Backend/gnu-efi-3.0.9/lib/str.c **** StrnCat (
 159:../Backend/gnu-efi-3.0.9/lib/str.c ****     IN CHAR16   *Dest,
 160:../Backend/gnu-efi-3.0.9/lib/str.c ****     IN CONST CHAR16   *Src,
 161:../Backend/gnu-efi-3.0.9/lib/str.c ****     IN UINTN     Len
 162:../Backend/gnu-efi-3.0.9/lib/str.c ****     )
 163:../Backend/gnu-efi-3.0.9/lib/str.c **** {
 433              		.loc 1 163 1 is_stmt 1 view -0
 434              		.cfi_startproc
 435              		.loc 1 163 1 is_stmt 0 view .LVU89
 436 01df F30F1EFA 		endbr64
 437 01e3 4883EC08 		subq	$8, %rsp
 438              		.cfi_def_cfa_offset 16
 164:../Backend/gnu-efi-3.0.9/lib/str.c ****     RtStrnCat(Dest, Src, Len);
 439              		.loc 1 164 5 is_stmt 1 view .LVU90
 440 01e7 E8000000 		call	RtStrnCat
 440      00
 441              	.LVL34:
 165:../Backend/gnu-efi-3.0.9/lib/str.c **** }
 442              		.loc 1 165 1 is_stmt 0 view .LVU91
 443 01ec 4883C408 		addq	$8, %rsp
 444              		.cfi_def_cfa_offset 8
 445 01f0 C3       		ret
 446              		.cfi_endproc
 447              	.LFE12:
 449              		.globl	StrnLen
 450              		.hidden	StrnLen
 452              	StrnLen:
 453              	.LVL35:
 454              	.LFB13:
 166:../Backend/gnu-efi-3.0.9/lib/str.c **** 
 167:../Backend/gnu-efi-3.0.9/lib/str.c **** 
 168:../Backend/gnu-efi-3.0.9/lib/str.c **** UINTN
 169:../Backend/gnu-efi-3.0.9/lib/str.c **** StrnLen (
 170:../Backend/gnu-efi-3.0.9/lib/str.c ****     IN CONST CHAR16   *s1,
 171:../Backend/gnu-efi-3.0.9/lib/str.c ****     IN UINTN           Len
 172:../Backend/gnu-efi-3.0.9/lib/str.c ****     )
 173:../Backend/gnu-efi-3.0.9/lib/str.c **** // string length
 174:../Backend/gnu-efi-3.0.9/lib/str.c **** {
 455              		.loc 1 174 1 is_stmt 1 view -0
 456              		.cfi_startproc
 457              		.loc 1 174 1 is_stmt 0 view .LVU93
 458 01f1 F30F1EFA 		endbr64
 459 01f5 4883EC08 		subq	$8, %rsp
 460              		.cfi_def_cfa_offset 16
 175:../Backend/gnu-efi-3.0.9/lib/str.c ****     return RtStrnLen(s1, Len);
 461              		.loc 1 175 5 is_stmt 1 view .LVU94
 462              		.loc 1 175 12 is_stmt 0 view .LVU95
 463 01f9 E8000000 		call	RtStrnLen
 463      00
 464              	.LVL36:
 176:../Backend/gnu-efi-3.0.9/lib/str.c **** }
 465              		.loc 1 176 1 view .LVU96
 466 01fe 4883C408 		addq	$8, %rsp
 467              		.cfi_def_cfa_offset 8
 468 0202 C3       		ret
 469              		.cfi_endproc
 470              	.LFE13:
 472              		.globl	StrLen
 473              		.hidden	StrLen
 475              	StrLen:
 476              	.LVL37:
 477              	.LFB14:
 177:../Backend/gnu-efi-3.0.9/lib/str.c **** 
 178:../Backend/gnu-efi-3.0.9/lib/str.c **** UINTN
 179:../Backend/gnu-efi-3.0.9/lib/str.c **** StrLen (
 180:../Backend/gnu-efi-3.0.9/lib/str.c ****     IN CONST CHAR16   *s1
 181:../Backend/gnu-efi-3.0.9/lib/str.c ****     )
 182:../Backend/gnu-efi-3.0.9/lib/str.c **** // string length
 183:../Backend/gnu-efi-3.0.9/lib/str.c **** {
 478              		.loc 1 183 1 is_stmt 1 view -0
 479              		.cfi_startproc
 480              		.loc 1 183 1 is_stmt 0 view .LVU98
 481 0203 F30F1EFA 		endbr64
 482 0207 4883EC08 		subq	$8, %rsp
 483              		.cfi_def_cfa_offset 16
 184:../Backend/gnu-efi-3.0.9/lib/str.c ****     return RtStrLen(s1);
 484              		.loc 1 184 5 is_stmt 1 view .LVU99
 485              		.loc 1 184 12 is_stmt 0 view .LVU100
 486 020b E8000000 		call	RtStrLen
 486      00
 487              	.LVL38:
 185:../Backend/gnu-efi-3.0.9/lib/str.c **** }
 488              		.loc 1 185 1 view .LVU101
 489 0210 4883C408 		addq	$8, %rsp
 490              		.cfi_def_cfa_offset 8
 491 0214 C3       		ret
 492              		.cfi_endproc
 493              	.LFE14:
 495              		.globl	StrSize
 496              		.hidden	StrSize
 498              	StrSize:
 499              	.LVL39:
 500              	.LFB15:
 186:../Backend/gnu-efi-3.0.9/lib/str.c **** 
 187:../Backend/gnu-efi-3.0.9/lib/str.c **** UINTN
 188:../Backend/gnu-efi-3.0.9/lib/str.c **** StrSize (
 189:../Backend/gnu-efi-3.0.9/lib/str.c ****     IN CONST CHAR16   *s1
 190:../Backend/gnu-efi-3.0.9/lib/str.c ****     )
 191:../Backend/gnu-efi-3.0.9/lib/str.c **** // string size
 192:../Backend/gnu-efi-3.0.9/lib/str.c **** {
 501              		.loc 1 192 1 is_stmt 1 view -0
 502              		.cfi_startproc
 503              		.loc 1 192 1 is_stmt 0 view .LVU103
 504 0215 F30F1EFA 		endbr64
 505 0219 4883EC08 		subq	$8, %rsp
 506              		.cfi_def_cfa_offset 16
 193:../Backend/gnu-efi-3.0.9/lib/str.c ****     return RtStrSize(s1);
 507              		.loc 1 193 5 is_stmt 1 view .LVU104
 508              		.loc 1 193 12 is_stmt 0 view .LVU105
 509 021d E8000000 		call	RtStrSize
 509      00
 510              	.LVL40:
 194:../Backend/gnu-efi-3.0.9/lib/str.c **** }
 511              		.loc 1 194 1 view .LVU106
 512 0222 4883C408 		addq	$8, %rsp
 513              		.cfi_def_cfa_offset 8
 514 0226 C3       		ret
 515              		.cfi_endproc
 516              	.LFE15:
 518              		.globl	StrDuplicate
 519              		.hidden	StrDuplicate
 521              	StrDuplicate:
 522              	.LVL41:
 523              	.LFB16:
 195:../Backend/gnu-efi-3.0.9/lib/str.c **** 
 196:../Backend/gnu-efi-3.0.9/lib/str.c **** CHAR16 *
 197:../Backend/gnu-efi-3.0.9/lib/str.c **** StrDuplicate (
 198:../Backend/gnu-efi-3.0.9/lib/str.c ****     IN CONST CHAR16   *Src
 199:../Backend/gnu-efi-3.0.9/lib/str.c ****     )
 200:../Backend/gnu-efi-3.0.9/lib/str.c **** // duplicate a string
 201:../Backend/gnu-efi-3.0.9/lib/str.c **** {
 524              		.loc 1 201 1 is_stmt 1 view -0
 525              		.cfi_startproc
 526              		.loc 1 201 1 is_stmt 0 view .LVU108
 527 0227 F30F1EFA 		endbr64
 528 022b 4154     		pushq	%r12
 529              		.cfi_def_cfa_offset 16
 530              		.cfi_offset 12, -16
 531 022d 55       		pushq	%rbp
 532              		.cfi_def_cfa_offset 24
 533              		.cfi_offset 6, -24
 534 022e 53       		pushq	%rbx
 535              		.cfi_def_cfa_offset 32
 536              		.cfi_offset 3, -32
 537 022f 4889FD   		movq	%rdi, %rbp
 202:../Backend/gnu-efi-3.0.9/lib/str.c ****     CHAR16      *Dest;
 538              		.loc 1 202 5 is_stmt 1 view .LVU109
 203:../Backend/gnu-efi-3.0.9/lib/str.c ****     UINTN       Size;
 539              		.loc 1 203 5 view .LVU110
 204:../Backend/gnu-efi-3.0.9/lib/str.c **** 
 205:../Backend/gnu-efi-3.0.9/lib/str.c ****     Size = StrSize(Src);
 540              		.loc 1 205 5 view .LVU111
 541              		.loc 1 205 12 is_stmt 0 view .LVU112
 542 0232 E8000000 		call	StrSize
 542      00
 543              	.LVL42:
 544              		.loc 1 205 12 view .LVU113
 545 0237 4989C4   		movq	%rax, %r12
 546              	.LVL43:
 206:../Backend/gnu-efi-3.0.9/lib/str.c ****     Dest = AllocatePool (Size);
 547              		.loc 1 206 5 is_stmt 1 view .LVU114
 548              		.loc 1 206 12 is_stmt 0 view .LVU115
 549 023a 4889C7   		movq	%rax, %rdi
 550 023d E8000000 		call	AllocatePool
 550      00
 551              	.LVL44:
 552              		.loc 1 206 12 view .LVU116
 553 0242 4889C3   		movq	%rax, %rbx
 554              	.LVL45:
 207:../Backend/gnu-efi-3.0.9/lib/str.c ****     if (Dest) {
 555              		.loc 1 207 5 is_stmt 1 view .LVU117
 556              		.loc 1 207 8 is_stmt 0 view .LVU118
 557 0245 4885C0   		testq	%rax, %rax
 558 0248 740E     		je	.L46
 208:../Backend/gnu-efi-3.0.9/lib/str.c ****         CopyMem (Dest, Src, Size);
 559              		.loc 1 208 9 is_stmt 1 view .LVU119
 560 024a 4C89E2   		movq	%r12, %rdx
 561 024d 4889EE   		movq	%rbp, %rsi
 562 0250 4889C7   		movq	%rax, %rdi
 563 0253 E8000000 		call	CopyMem
 563      00
 564              	.LVL46:
 209:../Backend/gnu-efi-3.0.9/lib/str.c ****     }
 210:../Backend/gnu-efi-3.0.9/lib/str.c ****     return Dest;
 565              		.loc 1 210 5 view .LVU120
 566              	.L46:
 211:../Backend/gnu-efi-3.0.9/lib/str.c **** }
 567              		.loc 1 211 1 is_stmt 0 view .LVU121
 568 0258 4889D8   		movq	%rbx, %rax
 569 025b 5B       		popq	%rbx
 570              		.cfi_restore 3
 571              		.cfi_def_cfa_offset 24
 572              	.LVL47:
 573              		.loc 1 211 1 view .LVU122
 574 025c 5D       		popq	%rbp
 575              		.cfi_restore 6
 576              		.cfi_def_cfa_offset 16
 577              	.LVL48:
 578              		.loc 1 211 1 view .LVU123
 579 025d 415C     		popq	%r12
 580              		.cfi_restore 12
 581              		.cfi_def_cfa_offset 8
 582              	.LVL49:
 583              		.loc 1 211 1 view .LVU124
 584 025f C3       		ret
 585              		.cfi_endproc
 586              	.LFE16:
 588              		.globl	strlena
 589              		.hidden	strlena
 591              	strlena:
 592              	.LVL50:
 593              	.LFB17:
 212:../Backend/gnu-efi-3.0.9/lib/str.c **** 
 213:../Backend/gnu-efi-3.0.9/lib/str.c **** UINTN
 214:../Backend/gnu-efi-3.0.9/lib/str.c **** strlena (
 215:../Backend/gnu-efi-3.0.9/lib/str.c ****     IN CONST CHAR8    *s1
 216:../Backend/gnu-efi-3.0.9/lib/str.c ****     )
 217:../Backend/gnu-efi-3.0.9/lib/str.c **** // string length
 218:../Backend/gnu-efi-3.0.9/lib/str.c **** {
 594              		.loc 1 218 1 is_stmt 1 view -0
 595              		.cfi_startproc
 596              		.loc 1 218 1 is_stmt 0 view .LVU126
 597 0260 F30F1EFA 		endbr64
 219:../Backend/gnu-efi-3.0.9/lib/str.c ****     UINTN        len;
 598              		.loc 1 219 5 is_stmt 1 view .LVU127
 220:../Backend/gnu-efi-3.0.9/lib/str.c **** 
 221:../Backend/gnu-efi-3.0.9/lib/str.c ****     for (len=0; *s1; s1+=1, len+=1) ;
 599              		.loc 1 221 5 view .LVU128
 600              	.LVL51:
 601              		.loc 1 221 13 is_stmt 0 view .LVU129
 602 0264 B8000000 		movl	$0, %eax
 602      00
 603              		.loc 1 221 5 view .LVU130
 604 0269 EB08     		jmp	.L50
 605              	.LVL52:
 606              	.L51:
 607              		.loc 1 221 27 is_stmt 1 discriminator 3 view .LVU131
 608              		.loc 1 221 24 is_stmt 0 discriminator 3 view .LVU132
 609 026b 4883C701 		addq	$1, %rdi
 610              	.LVL53:
 611              		.loc 1 221 32 discriminator 3 view .LVU133
 612 026f 4883C001 		addq	$1, %rax
 613              	.LVL54:
 614              	.L50:
 615              		.loc 1 221 17 is_stmt 1 discriminator 1 view .LVU134
 616 0273 803F00   		cmpb	$0, (%rdi)
 617 0276 75F3     		jne	.L51
 222:../Backend/gnu-efi-3.0.9/lib/str.c ****     return len;
 618              		.loc 1 222 5 view .LVU135
 223:../Backend/gnu-efi-3.0.9/lib/str.c **** }
 619              		.loc 1 223 1 is_stmt 0 view .LVU136
 620 0278 C3       		ret
 621              		.cfi_endproc
 622              	.LFE17:
 624              		.globl	strcmpa
 625              		.hidden	strcmpa
 627              	strcmpa:
 628              	.LVL55:
 629              	.LFB18:
 224:../Backend/gnu-efi-3.0.9/lib/str.c **** 
 225:../Backend/gnu-efi-3.0.9/lib/str.c **** UINTN
 226:../Backend/gnu-efi-3.0.9/lib/str.c **** strcmpa (
 227:../Backend/gnu-efi-3.0.9/lib/str.c ****     IN CONST CHAR8    *s1,
 228:../Backend/gnu-efi-3.0.9/lib/str.c ****     IN CONST CHAR8    *s2
 229:../Backend/gnu-efi-3.0.9/lib/str.c ****     )
 230:../Backend/gnu-efi-3.0.9/lib/str.c **** // compare strings
 231:../Backend/gnu-efi-3.0.9/lib/str.c **** {
 630              		.loc 1 231 1 is_stmt 1 view -0
 631              		.cfi_startproc
 632              		.loc 1 231 1 is_stmt 0 view .LVU138
 633 0279 F30F1EFA 		endbr64
 232:../Backend/gnu-efi-3.0.9/lib/str.c ****     while (*s1) {
 634              		.loc 1 232 5 is_stmt 1 view .LVU139
 635              		.loc 1 232 11 is_stmt 0 view .LVU140
 636 027d EB08     		jmp	.L53
 637              	.L56:
 233:../Backend/gnu-efi-3.0.9/lib/str.c ****         if (*s1 != *s2) {
 234:../Backend/gnu-efi-3.0.9/lib/str.c ****             break;
 235:../Backend/gnu-efi-3.0.9/lib/str.c ****         }
 236:../Backend/gnu-efi-3.0.9/lib/str.c **** 
 237:../Backend/gnu-efi-3.0.9/lib/str.c ****         s1 += 1;
 638              		.loc 1 237 9 is_stmt 1 view .LVU141
 639              		.loc 1 237 12 is_stmt 0 view .LVU142
 640 027f 4883C701 		addq	$1, %rdi
 641              	.LVL56:
 238:../Backend/gnu-efi-3.0.9/lib/str.c ****         s2 += 1;
 642              		.loc 1 238 9 is_stmt 1 view .LVU143
 643              		.loc 1 238 12 is_stmt 0 view .LVU144
 644 0283 4883C601 		addq	$1, %rsi
 645              	.LVL57:
 646              	.L53:
 232:../Backend/gnu-efi-3.0.9/lib/str.c ****     while (*s1) {
 647              		.loc 1 232 12 is_stmt 1 view .LVU145
 648 0287 0FB607   		movzbl	(%rdi), %eax
 649 028a 84C0     		testb	%al, %al
 650 028c 7404     		je	.L54
 233:../Backend/gnu-efi-3.0.9/lib/str.c ****         if (*s1 != *s2) {
 651              		.loc 1 233 9 view .LVU146
 233:../Backend/gnu-efi-3.0.9/lib/str.c ****         if (*s1 != *s2) {
 652              		.loc 1 233 12 is_stmt 0 view .LVU147
 653 028e 3806     		cmpb	%al, (%rsi)
 654 0290 74ED     		je	.L56
 655              	.L54:
 239:../Backend/gnu-efi-3.0.9/lib/str.c ****     }
 240:../Backend/gnu-efi-3.0.9/lib/str.c **** 
 241:../Backend/gnu-efi-3.0.9/lib/str.c ****     return *s1 - *s2;
 656              		.loc 1 241 5 is_stmt 1 view .LVU148
 657              		.loc 1 241 12 is_stmt 0 view .LVU149
 658 0292 0FB6C0   		movzbl	%al, %eax
 659              		.loc 1 241 18 view .LVU150
 660 0295 0FB616   		movzbl	(%rsi), %edx
 661              		.loc 1 241 16 view .LVU151
 662 0298 29D0     		subl	%edx, %eax
 663 029a 4898     		cltq
 242:../Backend/gnu-efi-3.0.9/lib/str.c **** }
 664              		.loc 1 242 1 view .LVU152
 665 029c C3       		ret
 666              		.cfi_endproc
 667              	.LFE18:
 669              		.globl	strncmpa
 670              		.hidden	strncmpa
 672              	strncmpa:
 673              	.LVL58:
 674              	.LFB19:
 243:../Backend/gnu-efi-3.0.9/lib/str.c **** 
 244:../Backend/gnu-efi-3.0.9/lib/str.c **** UINTN
 245:../Backend/gnu-efi-3.0.9/lib/str.c **** strncmpa (
 246:../Backend/gnu-efi-3.0.9/lib/str.c ****     IN CONST CHAR8    *s1,
 247:../Backend/gnu-efi-3.0.9/lib/str.c ****     IN CONST CHAR8    *s2,
 248:../Backend/gnu-efi-3.0.9/lib/str.c ****     IN UINTN    len
 249:../Backend/gnu-efi-3.0.9/lib/str.c ****     )
 250:../Backend/gnu-efi-3.0.9/lib/str.c **** // compare strings
 251:../Backend/gnu-efi-3.0.9/lib/str.c **** {
 675              		.loc 1 251 1 is_stmt 1 view -0
 676              		.cfi_startproc
 677              		.loc 1 251 1 is_stmt 0 view .LVU154
 678 029d F30F1EFA 		endbr64
 679 02a1 4889D0   		movq	%rdx, %rax
 252:../Backend/gnu-efi-3.0.9/lib/str.c ****     while (*s1  &&  len) {
 680              		.loc 1 252 5 is_stmt 1 view .LVU155
 681              		.loc 1 252 11 is_stmt 0 view .LVU156
 682 02a4 EB0C     		jmp	.L58
 683              	.LVL59:
 684              	.L62:
 253:../Backend/gnu-efi-3.0.9/lib/str.c ****         if (*s1 != *s2) {
 254:../Backend/gnu-efi-3.0.9/lib/str.c ****             break;
 255:../Backend/gnu-efi-3.0.9/lib/str.c ****         }
 256:../Backend/gnu-efi-3.0.9/lib/str.c **** 
 257:../Backend/gnu-efi-3.0.9/lib/str.c ****         s1  += 1;
 685              		.loc 1 257 9 is_stmt 1 view .LVU157
 686              		.loc 1 257 13 is_stmt 0 view .LVU158
 687 02a6 4883C701 		addq	$1, %rdi
 688              	.LVL60:
 258:../Backend/gnu-efi-3.0.9/lib/str.c ****         s2  += 1;
 689              		.loc 1 258 9 is_stmt 1 view .LVU159
 690              		.loc 1 258 13 is_stmt 0 view .LVU160
 691 02aa 4883C601 		addq	$1, %rsi
 692              	.LVL61:
 259:../Backend/gnu-efi-3.0.9/lib/str.c ****         len -= 1;
 693              		.loc 1 259 9 is_stmt 1 view .LVU161
 694              		.loc 1 259 13 is_stmt 0 view .LVU162
 695 02ae 4883E801 		subq	$1, %rax
 696              	.LVL62:
 697              	.L58:
 252:../Backend/gnu-efi-3.0.9/lib/str.c ****         if (*s1 != *s2) {
 698              		.loc 1 252 17 is_stmt 1 view .LVU163
 252:../Backend/gnu-efi-3.0.9/lib/str.c ****         if (*s1 != *s2) {
 699              		.loc 1 252 12 is_stmt 0 view .LVU164
 700 02b2 0FB617   		movzbl	(%rdi), %edx
 252:../Backend/gnu-efi-3.0.9/lib/str.c ****         if (*s1 != *s2) {
 701              		.loc 1 252 17 view .LVU165
 702 02b5 84D2     		testb	%dl, %dl
 703 02b7 7409     		je	.L59
 252:../Backend/gnu-efi-3.0.9/lib/str.c ****         if (*s1 != *s2) {
 704              		.loc 1 252 17 discriminator 1 view .LVU166
 705 02b9 4885C0   		testq	%rax, %rax
 706 02bc 7404     		je	.L59
 253:../Backend/gnu-efi-3.0.9/lib/str.c ****             break;
 707              		.loc 1 253 9 is_stmt 1 view .LVU167
 253:../Backend/gnu-efi-3.0.9/lib/str.c ****             break;
 708              		.loc 1 253 12 is_stmt 0 view .LVU168
 709 02be 3816     		cmpb	%dl, (%rsi)
 710 02c0 74E4     		je	.L62
 711              	.L59:
 260:../Backend/gnu-efi-3.0.9/lib/str.c ****     }
 261:../Backend/gnu-efi-3.0.9/lib/str.c **** 
 262:../Backend/gnu-efi-3.0.9/lib/str.c ****     return len ? *s1 - *s2 : 0;
 712              		.loc 1 262 5 is_stmt 1 view .LVU169
 713              		.loc 1 262 28 is_stmt 0 view .LVU170
 714 02c2 4885C0   		testq	%rax, %rax
 715 02c5 740B     		je	.L61
 716              		.loc 1 262 18 discriminator 1 view .LVU171
 717 02c7 0FB6D2   		movzbl	%dl, %edx
 718              		.loc 1 262 24 discriminator 1 view .LVU172
 719 02ca 0FB606   		movzbl	(%rsi), %eax
 720              	.LVL63:
 721              		.loc 1 262 22 discriminator 1 view .LVU173
 722 02cd 29C2     		subl	%eax, %edx
 723              		.loc 1 262 28 discriminator 1 view .LVU174
 724 02cf 4863C2   		movslq	%edx, %rax
 725              	.L61:
 263:../Backend/gnu-efi-3.0.9/lib/str.c **** }
 726              		.loc 1 263 1 view .LVU175
 727 02d2 C3       		ret
 728              		.cfi_endproc
 729              	.LFE19:
 731              		.globl	xtoi
 732              		.hidden	xtoi
 734              	xtoi:
 735              	.LVL64:
 736              	.LFB20:
 264:../Backend/gnu-efi-3.0.9/lib/str.c **** 
 265:../Backend/gnu-efi-3.0.9/lib/str.c **** 
 266:../Backend/gnu-efi-3.0.9/lib/str.c **** 
 267:../Backend/gnu-efi-3.0.9/lib/str.c **** UINTN
 268:../Backend/gnu-efi-3.0.9/lib/str.c **** xtoi (
 269:../Backend/gnu-efi-3.0.9/lib/str.c ****     CONST CHAR16  *str
 270:../Backend/gnu-efi-3.0.9/lib/str.c ****     )
 271:../Backend/gnu-efi-3.0.9/lib/str.c **** // convert hex string to uint
 272:../Backend/gnu-efi-3.0.9/lib/str.c **** {
 737              		.loc 1 272 1 is_stmt 1 view -0
 738              		.cfi_startproc
 739              		.loc 1 272 1 is_stmt 0 view .LVU177
 740 02d3 F30F1EFA 		endbr64
 273:../Backend/gnu-efi-3.0.9/lib/str.c ****     UINTN       u;
 741              		.loc 1 273 5 is_stmt 1 view .LVU178
 274:../Backend/gnu-efi-3.0.9/lib/str.c ****     CHAR16      c;
 742              		.loc 1 274 5 view .LVU179
 275:../Backend/gnu-efi-3.0.9/lib/str.c **** 
 276:../Backend/gnu-efi-3.0.9/lib/str.c ****     // skip preceeding white space
 277:../Backend/gnu-efi-3.0.9/lib/str.c ****     while (*str && *str == ' ') {
 743              		.loc 1 277 5 view .LVU180
 744              		.loc 1 277 11 is_stmt 0 view .LVU181
 745 02d7 EB04     		jmp	.L64
 746              	.L65:
 278:../Backend/gnu-efi-3.0.9/lib/str.c ****         str += 1;
 747              		.loc 1 278 9 is_stmt 1 view .LVU182
 748              		.loc 1 278 13 is_stmt 0 view .LVU183
 749 02d9 4883C702 		addq	$2, %rdi
 750              	.LVL65:
 751              	.L64:
 277:../Backend/gnu-efi-3.0.9/lib/str.c ****         str += 1;
 752              		.loc 1 277 17 is_stmt 1 view .LVU184
 753 02dd 66833F20 		cmpw	$32, (%rdi)
 754 02e1 74F6     		je	.L65
 279:../Backend/gnu-efi-3.0.9/lib/str.c ****     }
 280:../Backend/gnu-efi-3.0.9/lib/str.c **** 
 281:../Backend/gnu-efi-3.0.9/lib/str.c ****     // convert hex digits
 282:../Backend/gnu-efi-3.0.9/lib/str.c ****     u = 0;
 755              		.loc 1 282 7 is_stmt 0 view .LVU185
 756 02e3 B8000000 		movl	$0, %eax
 756      00
 757 02e8 EB10     		jmp	.L66
 758              	.LVL66:
 759              	.L71:
 283:../Backend/gnu-efi-3.0.9/lib/str.c ****     while ((c = *(str++))) {
 284:../Backend/gnu-efi-3.0.9/lib/str.c ****         if (c >= 'a'  &&  c <= 'f') {
 285:../Backend/gnu-efi-3.0.9/lib/str.c ****             c -= 'a' - 'A';
 286:../Backend/gnu-efi-3.0.9/lib/str.c ****         }
 287:../Backend/gnu-efi-3.0.9/lib/str.c **** 
 288:../Backend/gnu-efi-3.0.9/lib/str.c ****         if ((c >= '0'  &&  c <= '9')  ||  (c >= 'A'  &&  c <= 'F')) {
 289:../Backend/gnu-efi-3.0.9/lib/str.c ****             u = (u << 4)  |  (c - (c >= 'A' ? 'A'-10 : '0'));
 760              		.loc 1 289 54 discriminator 2 view .LVU186
 761 02ea BF300000 		movl	$48, %edi
 761      00
 762              	.L69:
 763              		.loc 1 289 33 discriminator 4 view .LVU187
 764 02ef 29F9     		subl	%edi, %ecx
 765 02f1 4863D1   		movslq	%ecx, %rdx
 766              	.LVL67:
 767              		.loc 1 289 15 discriminator 4 view .LVU188
 768 02f4 4809D0   		orq	%rdx, %rax
 769              	.LVL68:
 283:../Backend/gnu-efi-3.0.9/lib/str.c ****     while ((c = *(str++))) {
 770              		.loc 1 283 22 view .LVU189
 771 02f7 4889F7   		movq	%rsi, %rdi
 772              	.LVL69:
 773              	.L66:
 283:../Backend/gnu-efi-3.0.9/lib/str.c ****     while ((c = *(str++))) {
 774              		.loc 1 283 12 is_stmt 1 view .LVU190
 283:../Backend/gnu-efi-3.0.9/lib/str.c ****     while ((c = *(str++))) {
 775              		.loc 1 283 22 is_stmt 0 view .LVU191
 776 02fa 488D7702 		leaq	2(%rdi), %rsi
 777              	.LVL70:
 283:../Backend/gnu-efi-3.0.9/lib/str.c ****     while ((c = *(str++))) {
 778              		.loc 1 283 15 view .LVU192
 779 02fe 0FB717   		movzwl	(%rdi), %edx
 780              	.LVL71:
 283:../Backend/gnu-efi-3.0.9/lib/str.c ****     while ((c = *(str++))) {
 781              		.loc 1 283 12 view .LVU193
 782 0301 6685D2   		testw	%dx, %dx
 783 0304 743A     		je	.L63
 284:../Backend/gnu-efi-3.0.9/lib/str.c ****             c -= 'a' - 'A';
 784              		.loc 1 284 9 is_stmt 1 view .LVU194
 284:../Backend/gnu-efi-3.0.9/lib/str.c ****             c -= 'a' - 'A';
 785              		.loc 1 284 23 is_stmt 0 view .LVU195
 786 0306 8D4A9F   		leal	-97(%rdx), %ecx
 284:../Backend/gnu-efi-3.0.9/lib/str.c ****             c -= 'a' - 'A';
 787              		.loc 1 284 12 view .LVU196
 788 0309 6683F905 		cmpw	$5, %cx
 789 030d 7703     		ja	.L67
 285:../Backend/gnu-efi-3.0.9/lib/str.c ****         }
 790              		.loc 1 285 13 is_stmt 1 view .LVU197
 285:../Backend/gnu-efi-3.0.9/lib/str.c ****         }
 791              		.loc 1 285 15 is_stmt 0 view .LVU198
 792 030f 83EA20   		subl	$32, %edx
 793              	.LVL72:
 794              	.L67:
 288:../Backend/gnu-efi-3.0.9/lib/str.c ****             u = (u << 4)  |  (c - (c >= 'A' ? 'A'-10 : '0'));
 795              		.loc 1 288 9 is_stmt 1 view .LVU199
 288:../Backend/gnu-efi-3.0.9/lib/str.c ****             u = (u << 4)  |  (c - (c >= 'A' ? 'A'-10 : '0'));
 796              		.loc 1 288 24 is_stmt 0 view .LVU200
 797 0312 8D4AD0   		leal	-48(%rdx), %ecx
 798 0315 6683F909 		cmpw	$9, %cx
 799 0319 0F96C1   		setbe	%cl
 288:../Backend/gnu-efi-3.0.9/lib/str.c ****             u = (u << 4)  |  (c - (c >= 'A' ? 'A'-10 : '0'));
 800              		.loc 1 288 54 view .LVU201
 801 031c 8D7ABF   		leal	-65(%rdx), %edi
 802 031f 6683FF05 		cmpw	$5, %di
 803 0323 400F96C7 		setbe	%dil
 288:../Backend/gnu-efi-3.0.9/lib/str.c ****             u = (u << 4)  |  (c - (c >= 'A' ? 'A'-10 : '0'));
 804              		.loc 1 288 12 view .LVU202
 805 0327 4008F9   		orb	%dil, %cl
 806 032a 7414     		je	.L63
 807              		.loc 1 289 13 is_stmt 1 view .LVU203
 808              		.loc 1 289 20 is_stmt 0 view .LVU204
 809 032c 48C1E004 		salq	$4, %rax
 810              	.LVL73:
 811              		.loc 1 289 33 view .LVU205
 812 0330 0FB7CA   		movzwl	%dx, %ecx
 813              		.loc 1 289 54 view .LVU206
 814 0333 6683FA40 		cmpw	$64, %dx
 815 0337 76B1     		jbe	.L71
 816              		.loc 1 289 54 discriminator 1 view .LVU207
 817 0339 BF370000 		movl	$55, %edi
 817      00
 818 033e EBAF     		jmp	.L69
 819              	.LVL74:
 820              	.L63:
 290:../Backend/gnu-efi-3.0.9/lib/str.c ****         } else {
 291:../Backend/gnu-efi-3.0.9/lib/str.c ****             break;
 292:../Backend/gnu-efi-3.0.9/lib/str.c ****         }
 293:../Backend/gnu-efi-3.0.9/lib/str.c ****     }
 294:../Backend/gnu-efi-3.0.9/lib/str.c **** 
 295:../Backend/gnu-efi-3.0.9/lib/str.c ****     return u;
 296:../Backend/gnu-efi-3.0.9/lib/str.c **** }
 821              		.loc 1 296 1 view .LVU208
 822 0340 C3       		ret
 823              		.cfi_endproc
 824              	.LFE20:
 826              		.globl	Atoi
 827              		.hidden	Atoi
 829              	Atoi:
 830              	.LVL75:
 831              	.LFB21:
 297:../Backend/gnu-efi-3.0.9/lib/str.c **** 
 298:../Backend/gnu-efi-3.0.9/lib/str.c **** UINTN
 299:../Backend/gnu-efi-3.0.9/lib/str.c **** Atoi (
 300:../Backend/gnu-efi-3.0.9/lib/str.c ****     CONST CHAR16  *str
 301:../Backend/gnu-efi-3.0.9/lib/str.c ****     )
 302:../Backend/gnu-efi-3.0.9/lib/str.c **** // convert hex string to uint
 303:../Backend/gnu-efi-3.0.9/lib/str.c **** {
 832              		.loc 1 303 1 is_stmt 1 view -0
 833              		.cfi_startproc
 834              		.loc 1 303 1 is_stmt 0 view .LVU210
 835 0341 F30F1EFA 		endbr64
 304:../Backend/gnu-efi-3.0.9/lib/str.c ****     UINTN       u;
 836              		.loc 1 304 5 is_stmt 1 view .LVU211
 305:../Backend/gnu-efi-3.0.9/lib/str.c ****     CHAR16      c;
 837              		.loc 1 305 5 view .LVU212
 306:../Backend/gnu-efi-3.0.9/lib/str.c **** 
 307:../Backend/gnu-efi-3.0.9/lib/str.c ****     // skip preceeding white space
 308:../Backend/gnu-efi-3.0.9/lib/str.c ****     while (*str && *str == ' ') {
 838              		.loc 1 308 5 view .LVU213
 839              		.loc 1 308 11 is_stmt 0 view .LVU214
 840 0345 EB04     		jmp	.L73
 841              	.L74:
 309:../Backend/gnu-efi-3.0.9/lib/str.c ****         str += 1;
 842              		.loc 1 309 9 is_stmt 1 view .LVU215
 843              		.loc 1 309 13 is_stmt 0 view .LVU216
 844 0347 4883C702 		addq	$2, %rdi
 845              	.LVL76:
 846              	.L73:
 308:../Backend/gnu-efi-3.0.9/lib/str.c ****         str += 1;
 847              		.loc 1 308 17 is_stmt 1 view .LVU217
 848 034b 66833F20 		cmpw	$32, (%rdi)
 849 034f 74F6     		je	.L74
 310:../Backend/gnu-efi-3.0.9/lib/str.c ****     }
 311:../Backend/gnu-efi-3.0.9/lib/str.c **** 
 312:../Backend/gnu-efi-3.0.9/lib/str.c ****     // convert digits
 313:../Backend/gnu-efi-3.0.9/lib/str.c ****     u = 0;
 850              		.loc 1 313 7 is_stmt 0 view .LVU218
 851 0351 BA000000 		movl	$0, %edx
 851      00
 852 0356 EB0F     		jmp	.L75
 853              	.LVL77:
 854              	.L78:
 314:../Backend/gnu-efi-3.0.9/lib/str.c ****     while ((c = *(str++))) {
 315:../Backend/gnu-efi-3.0.9/lib/str.c ****         if (c >= '0' && c <= '9') {
 316:../Backend/gnu-efi-3.0.9/lib/str.c ****             u = (u * 10) + c - '0';
 855              		.loc 1 316 13 is_stmt 1 view .LVU219
 856              		.loc 1 316 20 is_stmt 0 view .LVU220
 857 0358 488D1492 		leaq	(%rdx,%rdx,4), %rdx
 858              	.LVL78:
 859              		.loc 1 316 26 view .LVU221
 860 035c 0FB7C0   		movzwl	%ax, %eax
 861              	.LVL79:
 862              		.loc 1 316 15 view .LVU222
 863 035f 488D5450 		leaq	-48(%rax,%rdx,2), %rdx
 863      D0
 864              	.LVL80:
 314:../Backend/gnu-efi-3.0.9/lib/str.c ****     while ((c = *(str++))) {
 865              		.loc 1 314 22 view .LVU223
 866 0364 4889CF   		movq	%rcx, %rdi
 867              	.LVL81:
 868              	.L75:
 314:../Backend/gnu-efi-3.0.9/lib/str.c ****     while ((c = *(str++))) {
 869              		.loc 1 314 12 is_stmt 1 view .LVU224
 314:../Backend/gnu-efi-3.0.9/lib/str.c ****     while ((c = *(str++))) {
 870              		.loc 1 314 22 is_stmt 0 view .LVU225
 871 0367 488D4F02 		leaq	2(%rdi), %rcx
 872              	.LVL82:
 314:../Backend/gnu-efi-3.0.9/lib/str.c ****     while ((c = *(str++))) {
 873              		.loc 1 314 15 view .LVU226
 874 036b 0FB707   		movzwl	(%rdi), %eax
 875              	.LVL83:
 314:../Backend/gnu-efi-3.0.9/lib/str.c ****     while ((c = *(str++))) {
 876              		.loc 1 314 12 view .LVU227
 877 036e 6685C0   		testw	%ax, %ax
 878 0371 7409     		je	.L72
 315:../Backend/gnu-efi-3.0.9/lib/str.c ****             u = (u * 10) + c - '0';
 879              		.loc 1 315 9 is_stmt 1 view .LVU228
 315:../Backend/gnu-efi-3.0.9/lib/str.c ****             u = (u * 10) + c - '0';
 880              		.loc 1 315 22 is_stmt 0 view .LVU229
 881 0373 8D70D0   		leal	-48(%rax), %esi
 315:../Backend/gnu-efi-3.0.9/lib/str.c ****             u = (u * 10) + c - '0';
 882              		.loc 1 315 12 view .LVU230
 883 0376 6683FE09 		cmpw	$9, %si
 884 037a 76DC     		jbe	.L78
 885              	.L72:
 317:../Backend/gnu-efi-3.0.9/lib/str.c ****         } else {
 318:../Backend/gnu-efi-3.0.9/lib/str.c ****             break;
 319:../Backend/gnu-efi-3.0.9/lib/str.c ****         }
 320:../Backend/gnu-efi-3.0.9/lib/str.c ****     }
 321:../Backend/gnu-efi-3.0.9/lib/str.c **** 
 322:../Backend/gnu-efi-3.0.9/lib/str.c ****     return u;
 323:../Backend/gnu-efi-3.0.9/lib/str.c **** }
 886              		.loc 1 323 1 view .LVU231
 887 037c 4889D0   		movq	%rdx, %rax
 888              	.LVL84:
 889              		.loc 1 323 1 view .LVU232
 890 037f C3       		ret
 891              		.cfi_endproc
 892              	.LFE21:
 894              		.globl	MetaMatch
 895              		.hidden	MetaMatch
 897              	MetaMatch:
 898              	.LVL85:
 899              	.LFB22:
 324:../Backend/gnu-efi-3.0.9/lib/str.c **** 
 325:../Backend/gnu-efi-3.0.9/lib/str.c **** BOOLEAN
 326:../Backend/gnu-efi-3.0.9/lib/str.c **** MetaMatch (
 327:../Backend/gnu-efi-3.0.9/lib/str.c ****     IN CHAR16   *String,
 328:../Backend/gnu-efi-3.0.9/lib/str.c ****     IN CHAR16   *Pattern
 329:../Backend/gnu-efi-3.0.9/lib/str.c ****     )
 330:../Backend/gnu-efi-3.0.9/lib/str.c **** {
 900              		.loc 1 330 1 is_stmt 1 view -0
 901              		.cfi_startproc
 902              		.loc 1 330 1 is_stmt 0 view .LVU234
 903 0380 F30F1EFA 		endbr64
 904 0384 55       		pushq	%rbp
 905              		.cfi_def_cfa_offset 16
 906              		.cfi_offset 6, -16
 907 0385 53       		pushq	%rbx
 908              		.cfi_def_cfa_offset 24
 909              		.cfi_offset 3, -24
 910 0386 4883EC08 		subq	$8, %rsp
 911              		.cfi_def_cfa_offset 32
 912 038a 4889FD   		movq	%rdi, %rbp
 913 038d 4889F3   		movq	%rsi, %rbx
 914              	.LVL86:
 915              	.L80:
 331:../Backend/gnu-efi-3.0.9/lib/str.c ****     CHAR16  c, p, l;
 916              		.loc 1 331 5 is_stmt 1 view .LVU235
 332:../Backend/gnu-efi-3.0.9/lib/str.c **** 
 333:../Backend/gnu-efi-3.0.9/lib/str.c ****     for (; ;) {
 917              		.loc 1 333 5 view .LVU236
 334:../Backend/gnu-efi-3.0.9/lib/str.c ****         p = *Pattern;
 918              		.loc 1 334 9 view .LVU237
 919              		.loc 1 334 11 is_stmt 0 view .LVU238
 920 0390 0FB703   		movzwl	(%rbx), %eax
 921              	.LVL87:
 335:../Backend/gnu-efi-3.0.9/lib/str.c ****         Pattern += 1;
 922              		.loc 1 335 9 is_stmt 1 view .LVU239
 923              		.loc 1 335 17 is_stmt 0 view .LVU240
 924 0393 4883C302 		addq	$2, %rbx
 925              	.LVL88:
 336:../Backend/gnu-efi-3.0.9/lib/str.c **** 
 337:../Backend/gnu-efi-3.0.9/lib/str.c ****         switch (p) {
 926              		.loc 1 337 9 is_stmt 1 view .LVU241
 927 0397 6683F83F 		cmpw	$63, %ax
 928 039b 7477     		je	.L81
 929              		.loc 1 337 9 is_stmt 0 view .LVU242
 930 039d 771B     		ja	.L82
 931 039f 6685C0   		testw	%ax, %ax
 932 03a2 7433     		je	.L83
 933 03a4 6683F82A 		cmpw	$42, %ax
 934 03a8 7440     		je	.L84
 935              	.L85:
 338:../Backend/gnu-efi-3.0.9/lib/str.c ****         case 0:
 339:../Backend/gnu-efi-3.0.9/lib/str.c ****             // End of pattern.  If end of string, TRUE match
 340:../Backend/gnu-efi-3.0.9/lib/str.c ****             return *String ? FALSE : TRUE;
 341:../Backend/gnu-efi-3.0.9/lib/str.c **** 
 342:../Backend/gnu-efi-3.0.9/lib/str.c ****         case '*':
 343:../Backend/gnu-efi-3.0.9/lib/str.c ****             // Match zero or more chars
 344:../Backend/gnu-efi-3.0.9/lib/str.c ****             while (*String) {
 345:../Backend/gnu-efi-3.0.9/lib/str.c ****                 if (MetaMatch (String, Pattern)) {
 346:../Backend/gnu-efi-3.0.9/lib/str.c ****                     return TRUE;
 347:../Backend/gnu-efi-3.0.9/lib/str.c ****                 }
 348:../Backend/gnu-efi-3.0.9/lib/str.c ****                 String += 1;
 349:../Backend/gnu-efi-3.0.9/lib/str.c ****             }
 350:../Backend/gnu-efi-3.0.9/lib/str.c ****             return MetaMatch (String, Pattern);
 351:../Backend/gnu-efi-3.0.9/lib/str.c **** 
 352:../Backend/gnu-efi-3.0.9/lib/str.c ****         case '?':
 353:../Backend/gnu-efi-3.0.9/lib/str.c ****             // Match any one char
 354:../Backend/gnu-efi-3.0.9/lib/str.c ****             if (!*String) {
 355:../Backend/gnu-efi-3.0.9/lib/str.c ****                 return FALSE;
 356:../Backend/gnu-efi-3.0.9/lib/str.c ****             }
 357:../Backend/gnu-efi-3.0.9/lib/str.c ****             String += 1;
 358:../Backend/gnu-efi-3.0.9/lib/str.c ****             break;
 359:../Backend/gnu-efi-3.0.9/lib/str.c **** 
 360:../Backend/gnu-efi-3.0.9/lib/str.c ****         case '[':
 361:../Backend/gnu-efi-3.0.9/lib/str.c ****             // Match char set
 362:../Backend/gnu-efi-3.0.9/lib/str.c ****             c = *String;
 363:../Backend/gnu-efi-3.0.9/lib/str.c ****             if (!c) {
 364:../Backend/gnu-efi-3.0.9/lib/str.c ****                 return FALSE;                       // syntax problem
 365:../Backend/gnu-efi-3.0.9/lib/str.c ****             }
 366:../Backend/gnu-efi-3.0.9/lib/str.c **** 
 367:../Backend/gnu-efi-3.0.9/lib/str.c ****             l = 0;
 368:../Backend/gnu-efi-3.0.9/lib/str.c ****             while ((p = *Pattern++)) {
 369:../Backend/gnu-efi-3.0.9/lib/str.c ****                 if (p == ']') {
 370:../Backend/gnu-efi-3.0.9/lib/str.c ****                     return FALSE;
 371:../Backend/gnu-efi-3.0.9/lib/str.c ****                 }
 372:../Backend/gnu-efi-3.0.9/lib/str.c **** 
 373:../Backend/gnu-efi-3.0.9/lib/str.c ****                 if (p == '-') {                     // if range of chars,
 374:../Backend/gnu-efi-3.0.9/lib/str.c ****                     p = *Pattern;                   // get high range
 375:../Backend/gnu-efi-3.0.9/lib/str.c ****                     if (p == 0 || p == ']') {
 376:../Backend/gnu-efi-3.0.9/lib/str.c ****                         return FALSE;               // syntax problem
 377:../Backend/gnu-efi-3.0.9/lib/str.c ****                     }
 378:../Backend/gnu-efi-3.0.9/lib/str.c **** 
 379:../Backend/gnu-efi-3.0.9/lib/str.c ****                     if (c >= l && c <= p) {         // if in range,
 380:../Backend/gnu-efi-3.0.9/lib/str.c ****                         break;                      // it's a match
 381:../Backend/gnu-efi-3.0.9/lib/str.c ****                     }
 382:../Backend/gnu-efi-3.0.9/lib/str.c ****                 }
 383:../Backend/gnu-efi-3.0.9/lib/str.c **** 
 384:../Backend/gnu-efi-3.0.9/lib/str.c ****                 l = p;
 385:../Backend/gnu-efi-3.0.9/lib/str.c ****                 if (c == p) {                       // if char matches
 386:../Backend/gnu-efi-3.0.9/lib/str.c ****                     break;                          // move on
 387:../Backend/gnu-efi-3.0.9/lib/str.c ****                 }
 388:../Backend/gnu-efi-3.0.9/lib/str.c ****             }
 389:../Backend/gnu-efi-3.0.9/lib/str.c **** 
 390:../Backend/gnu-efi-3.0.9/lib/str.c ****             // skip to end of match char set
 391:../Backend/gnu-efi-3.0.9/lib/str.c ****             while (p && p != ']') {
 392:../Backend/gnu-efi-3.0.9/lib/str.c ****                 p = *Pattern;
 393:../Backend/gnu-efi-3.0.9/lib/str.c ****                 Pattern += 1;
 394:../Backend/gnu-efi-3.0.9/lib/str.c ****             }
 395:../Backend/gnu-efi-3.0.9/lib/str.c **** 
 396:../Backend/gnu-efi-3.0.9/lib/str.c ****             String += 1;
 397:../Backend/gnu-efi-3.0.9/lib/str.c ****             break;
 398:../Backend/gnu-efi-3.0.9/lib/str.c **** 
 399:../Backend/gnu-efi-3.0.9/lib/str.c ****         default:
 400:../Backend/gnu-efi-3.0.9/lib/str.c ****             c = *String;
 936              		.loc 1 400 13 is_stmt 1 view .LVU243
 937              	.LVL89:
 401:../Backend/gnu-efi-3.0.9/lib/str.c ****             if (c != p) {
 938              		.loc 1 401 13 view .LVU244
 939              		.loc 1 401 16 is_stmt 0 view .LVU245
 940 03aa 663B4500 		cmpw	0(%rbp), %ax
 941 03ae 0F851401 		jne	.L104
 941      0000
 402:../Backend/gnu-efi-3.0.9/lib/str.c ****                 return FALSE;
 403:../Backend/gnu-efi-3.0.9/lib/str.c ****             }
 404:../Backend/gnu-efi-3.0.9/lib/str.c **** 
 405:../Backend/gnu-efi-3.0.9/lib/str.c ****             String += 1;
 942              		.loc 1 405 13 is_stmt 1 view .LVU246
 943              		.loc 1 405 20 is_stmt 0 view .LVU247
 944 03b4 4883C502 		addq	$2, %rbp
 945              	.LVL90:
 406:../Backend/gnu-efi-3.0.9/lib/str.c ****             break;
 946              		.loc 1 406 13 is_stmt 1 view .LVU248
 947 03b8 EBD6     		jmp	.L80
 948              	.LVL91:
 949              	.L82:
 337:../Backend/gnu-efi-3.0.9/lib/str.c ****         case 0:
 950              		.loc 1 337 9 is_stmt 0 view .LVU249
 951 03ba 6683F85B 		cmpw	$91, %ax
 952 03be 75EA     		jne	.L85
 362:../Backend/gnu-efi-3.0.9/lib/str.c ****             if (!c) {
 953              		.loc 1 362 13 is_stmt 1 view .LVU250
 362:../Backend/gnu-efi-3.0.9/lib/str.c ****             if (!c) {
 954              		.loc 1 362 15 is_stmt 0 view .LVU251
 955 03c0 0FB74D00 		movzwl	0(%rbp), %ecx
 956              	.LVL92:
 363:../Backend/gnu-efi-3.0.9/lib/str.c ****                 return FALSE;                       // syntax problem
 957              		.loc 1 363 13 is_stmt 1 view .LVU252
 363:../Backend/gnu-efi-3.0.9/lib/str.c ****                 return FALSE;                       // syntax problem
 958              		.loc 1 363 16 is_stmt 0 view .LVU253
 959 03c4 6685C9   		testw	%cx, %cx
 960 03c7 0F84DD00 		je	.L99
 960      0000
 367:../Backend/gnu-efi-3.0.9/lib/str.c ****             while ((p = *Pattern++)) {
 961              		.loc 1 367 15 view .LVU254
 962 03cd BA000000 		movl	$0, %edx
 962      00
 963 03d2 E9810000 		jmp	.L90
 963      00
 964              	.LVL93:
 965              	.L83:
 340:../Backend/gnu-efi-3.0.9/lib/str.c **** 
 966              		.loc 1 340 13 is_stmt 1 view .LVU255
 340:../Backend/gnu-efi-3.0.9/lib/str.c **** 
 967              		.loc 1 340 36 is_stmt 0 view .LVU256
 968 03d7 66837D00 		cmpw	$0, 0(%rbp)
 968      00
 969 03dc 0F94C0   		sete	%al
 970              	.LVL94:
 971              	.L79:
 407:../Backend/gnu-efi-3.0.9/lib/str.c ****         }
 408:../Backend/gnu-efi-3.0.9/lib/str.c ****     }
 409:../Backend/gnu-efi-3.0.9/lib/str.c **** }
 972              		.loc 1 409 1 view .LVU257
 973 03df 4883C408 		addq	$8, %rsp
 974              		.cfi_remember_state
 975              		.cfi_def_cfa_offset 24
 976 03e3 5B       		popq	%rbx
 977              		.cfi_restore 3
 978              		.cfi_def_cfa_offset 16
 979              	.LVL95:
 980              		.loc 1 409 1 view .LVU258
 981 03e4 5D       		popq	%rbp
 982              		.cfi_restore 6
 983              		.cfi_def_cfa_offset 8
 984              	.LVL96:
 985              		.loc 1 409 1 view .LVU259
 986 03e5 C3       		ret
 987              	.LVL97:
 988              	.L108:
 989              		.cfi_restore_state
 348:../Backend/gnu-efi-3.0.9/lib/str.c ****             }
 990              		.loc 1 348 17 is_stmt 1 view .LVU260
 348:../Backend/gnu-efi-3.0.9/lib/str.c ****             }
 991              		.loc 1 348 24 is_stmt 0 view .LVU261
 992 03e6 4883C502 		addq	$2, %rbp
 993              	.LVL98:
 994              	.L84:
 344:../Backend/gnu-efi-3.0.9/lib/str.c ****                 if (MetaMatch (String, Pattern)) {
 995              		.loc 1 344 20 is_stmt 1 view .LVU262
 996 03ea 66837D00 		cmpw	$0, 0(%rbp)
 996      00
 997 03ef 7416     		je	.L107
 345:../Backend/gnu-efi-3.0.9/lib/str.c ****                     return TRUE;
 998              		.loc 1 345 17 view .LVU263
 345:../Backend/gnu-efi-3.0.9/lib/str.c ****                     return TRUE;
 999              		.loc 1 345 21 is_stmt 0 view .LVU264
 1000 03f1 4889DE   		movq	%rbx, %rsi
 1001 03f4 4889EF   		movq	%rbp, %rdi
 1002 03f7 E8000000 		call	MetaMatch
 1002      00
 1003              	.LVL99:
 345:../Backend/gnu-efi-3.0.9/lib/str.c ****                     return TRUE;
 1004              		.loc 1 345 20 discriminator 1 view .LVU265
 1005 03fc 84C0     		testb	%al, %al
 1006 03fe 74E6     		je	.L108
 346:../Backend/gnu-efi-3.0.9/lib/str.c ****                 }
 1007              		.loc 1 346 28 view .LVU266
 1008 0400 B8010000 		movl	$1, %eax
 1008      00
 1009 0405 EBD8     		jmp	.L79
 1010              	.L107:
 350:../Backend/gnu-efi-3.0.9/lib/str.c **** 
 1011              		.loc 1 350 13 is_stmt 1 view .LVU267
 350:../Backend/gnu-efi-3.0.9/lib/str.c **** 
 1012              		.loc 1 350 20 is_stmt 0 view .LVU268
 1013 0407 4889DE   		movq	%rbx, %rsi
 1014 040a 4889EF   		movq	%rbp, %rdi
 1015 040d E8000000 		call	MetaMatch
 1015      00
 1016              	.LVL100:
 1017 0412 EBCB     		jmp	.L79
 1018              	.LVL101:
 1019              	.L81:
 354:../Backend/gnu-efi-3.0.9/lib/str.c ****                 return FALSE;
 1020              		.loc 1 354 13 is_stmt 1 view .LVU269
 354:../Backend/gnu-efi-3.0.9/lib/str.c ****                 return FALSE;
 1021              		.loc 1 354 16 is_stmt 0 view .LVU270
 1022 0414 66837D00 		cmpw	$0, 0(%rbp)
 1022      00
 1023 0419 0F848100 		je	.L98
 1023      0000
 357:../Backend/gnu-efi-3.0.9/lib/str.c ****             break;
 1024              		.loc 1 357 13 is_stmt 1 view .LVU271
 357:../Backend/gnu-efi-3.0.9/lib/str.c ****             break;
 1025              		.loc 1 357 20 is_stmt 0 view .LVU272
 1026 041f 4883C502 		addq	$2, %rbp
 1027              	.LVL102:
 358:../Backend/gnu-efi-3.0.9/lib/str.c **** 
 1028              		.loc 1 358 13 is_stmt 1 view .LVU273
 1029 0423 E968FFFF 		jmp	.L80
 1029      FF
 1030              	.LVL103:
 1031              	.L109:
 374:../Backend/gnu-efi-3.0.9/lib/str.c ****                     if (p == 0 || p == ']') {
 1032              		.loc 1 374 21 view .LVU274
 374:../Backend/gnu-efi-3.0.9/lib/str.c ****                     if (p == 0 || p == ']') {
 1033              		.loc 1 374 23 is_stmt 0 view .LVU275
 1034 0428 0FB703   		movzwl	(%rbx), %eax
 1035              	.LVL104:
 375:../Backend/gnu-efi-3.0.9/lib/str.c ****                         return FALSE;               // syntax problem
 1036              		.loc 1 375 21 is_stmt 1 view .LVU276
 375:../Backend/gnu-efi-3.0.9/lib/str.c ****                         return FALSE;               // syntax problem
 1037              		.loc 1 375 27 is_stmt 0 view .LVU277
 1038 042b 6685C0   		testw	%ax, %ax
 1039 042e 400F94C6 		sete	%sil
 375:../Backend/gnu-efi-3.0.9/lib/str.c ****                         return FALSE;               // syntax problem
 1040              		.loc 1 375 37 view .LVU278
 1041 0432 6683F85D 		cmpw	$93, %ax
 1042 0436 400F94C7 		sete	%dil
 375:../Backend/gnu-efi-3.0.9/lib/str.c ****                         return FALSE;               // syntax problem
 1043              		.loc 1 375 24 view .LVU279
 1044 043a 4008FE   		orb	%dil, %sil
 1045 043d 757F     		jne	.L102
 379:../Backend/gnu-efi-3.0.9/lib/str.c ****                         break;                      // it's a match
 1046              		.loc 1 379 21 is_stmt 1 view .LVU280
 379:../Backend/gnu-efi-3.0.9/lib/str.c ****                         break;                      // it's a match
 1047              		.loc 1 379 27 is_stmt 0 view .LVU281
 1048 043f 6639D1   		cmpw	%dx, %cx
 1049 0442 400F93C6 		setnb	%sil
 379:../Backend/gnu-efi-3.0.9/lib/str.c ****                         break;                      // it's a match
 1050              		.loc 1 379 37 view .LVU282
 1051 0446 6639C8   		cmpw	%cx, %ax
 1052 0449 0F93C2   		setnb	%dl
 1053              	.LVL105:
 379:../Backend/gnu-efi-3.0.9/lib/str.c ****                         break;                      // it's a match
 1054              		.loc 1 379 24 view .LVU283
 1055 044c 4084D6   		testb	%dl, %sil
 1056 044f 752D     		jne	.L94
 374:../Backend/gnu-efi-3.0.9/lib/str.c ****                     if (p == 0 || p == ']') {
 1057              		.loc 1 374 23 view .LVU284
 1058 0451 89C2     		movl	%eax, %edx
 1059              	.L91:
 384:../Backend/gnu-efi-3.0.9/lib/str.c ****                 if (c == p) {                       // if char matches
 1060              		.loc 1 384 17 is_stmt 1 view .LVU285
 1061              	.LVL106:
 385:../Backend/gnu-efi-3.0.9/lib/str.c ****                     break;                          // move on
 1062              		.loc 1 385 17 view .LVU286
 385:../Backend/gnu-efi-3.0.9/lib/str.c ****                     break;                          // move on
 1063              		.loc 1 385 20 is_stmt 0 view .LVU287
 1064 0453 6639CA   		cmpw	%cx, %dx
 1065 0456 7444     		je	.L103
 1066              	.LVL107:
 1067              	.L90:
 368:../Backend/gnu-efi-3.0.9/lib/str.c ****                 if (p == ']') {
 1068              		.loc 1 368 20 is_stmt 1 view .LVU288
 1069 0458 4889D8   		movq	%rbx, %rax
 1070              	.LVL108:
 368:../Backend/gnu-efi-3.0.9/lib/str.c ****                 if (p == ']') {
 1071              		.loc 1 368 33 is_stmt 0 view .LVU289
 1072 045b 4883C302 		addq	$2, %rbx
 1073              	.LVL109:
 368:../Backend/gnu-efi-3.0.9/lib/str.c ****                 if (p == ']') {
 1074              		.loc 1 368 23 view .LVU290
 1075 045f 0FB700   		movzwl	(%rax), %eax
 1076              	.LVL110:
 368:../Backend/gnu-efi-3.0.9/lib/str.c ****                 if (p == ']') {
 1077              		.loc 1 368 20 view .LVU291
 1078 0462 6685C0   		testw	%ax, %ax
 1079 0465 7417     		je	.L94
 369:../Backend/gnu-efi-3.0.9/lib/str.c ****                     return FALSE;
 1080              		.loc 1 369 17 is_stmt 1 view .LVU292
 369:../Backend/gnu-efi-3.0.9/lib/str.c ****                     return FALSE;
 1081              		.loc 1 369 20 is_stmt 0 view .LVU293
 1082 0467 6683F85D 		cmpw	$93, %ax
 1083 046b 7447     		je	.L100
 373:../Backend/gnu-efi-3.0.9/lib/str.c ****                     p = *Pattern;                   // get high range
 1084              		.loc 1 373 17 is_stmt 1 view .LVU294
 373:../Backend/gnu-efi-3.0.9/lib/str.c ****                     p = *Pattern;                   // get high range
 1085              		.loc 1 373 20 is_stmt 0 view .LVU295
 1086 046d 6683F82D 		cmpw	$45, %ax
 1087 0471 74B5     		je	.L109
 368:../Backend/gnu-efi-3.0.9/lib/str.c ****                 if (p == ']') {
 1088              		.loc 1 368 23 view .LVU296
 1089 0473 89C2     		movl	%eax, %edx
 1090              	.LVL111:
 368:../Backend/gnu-efi-3.0.9/lib/str.c ****                 if (p == ']') {
 1091              		.loc 1 368 23 view .LVU297
 1092 0475 EBDC     		jmp	.L91
 1093              	.LVL112:
 1094              	.L95:
 392:../Backend/gnu-efi-3.0.9/lib/str.c ****                 Pattern += 1;
 1095              		.loc 1 392 17 is_stmt 1 view .LVU298
 392:../Backend/gnu-efi-3.0.9/lib/str.c ****                 Pattern += 1;
 1096              		.loc 1 392 19 is_stmt 0 view .LVU299
 1097 0477 0FB703   		movzwl	(%rbx), %eax
 1098              	.LVL113:
 393:../Backend/gnu-efi-3.0.9/lib/str.c ****             }
 1099              		.loc 1 393 17 is_stmt 1 view .LVU300
 393:../Backend/gnu-efi-3.0.9/lib/str.c ****             }
 1100              		.loc 1 393 25 is_stmt 0 view .LVU301
 1101 047a 4883C302 		addq	$2, %rbx
 1102              	.LVL114:
 1103              	.L94:
 391:../Backend/gnu-efi-3.0.9/lib/str.c ****                 p = *Pattern;
 1104              		.loc 1 391 22 is_stmt 1 view .LVU302
 391:../Backend/gnu-efi-3.0.9/lib/str.c ****                 p = *Pattern;
 1105              		.loc 1 391 20 is_stmt 0 view .LVU303
 1106 047e 6685C0   		testw	%ax, %ax
 1107 0481 0F95C2   		setne	%dl
 391:../Backend/gnu-efi-3.0.9/lib/str.c ****                 p = *Pattern;
 1108              		.loc 1 391 27 view .LVU304
 1109 0484 6683F85D 		cmpw	$93, %ax
 1110 0488 0F95C0   		setne	%al
 1111              	.LVL115:
 391:../Backend/gnu-efi-3.0.9/lib/str.c ****                 p = *Pattern;
 1112              		.loc 1 391 22 view .LVU305
 1113 048b 84D2     		testb	%dl, %dl
 1114 048d 7404     		je	.L105
 391:../Backend/gnu-efi-3.0.9/lib/str.c ****                 p = *Pattern;
 1115              		.loc 1 391 22 view .LVU306
 1116 048f 84C0     		testb	%al, %al
 1117 0491 75E4     		jne	.L95
 1118              	.L105:
 396:../Backend/gnu-efi-3.0.9/lib/str.c ****             break;
 1119              		.loc 1 396 13 is_stmt 1 view .LVU307
 396:../Backend/gnu-efi-3.0.9/lib/str.c ****             break;
 1120              		.loc 1 396 20 is_stmt 0 view .LVU308
 1121 0493 4883C502 		addq	$2, %rbp
 1122              	.LVL116:
 397:../Backend/gnu-efi-3.0.9/lib/str.c **** 
 1123              		.loc 1 397 13 is_stmt 1 view .LVU309
 1124 0497 E9F4FEFF 		jmp	.L80
 1124      FF
 1125              	.LVL117:
 1126              	.L103:
 397:../Backend/gnu-efi-3.0.9/lib/str.c **** 
 1127              		.loc 1 397 13 is_stmt 0 view .LVU310
 1128 049c 89D0     		movl	%edx, %eax
 1129              	.LVL118:
 397:../Backend/gnu-efi-3.0.9/lib/str.c **** 
 1130              		.loc 1 397 13 view .LVU311
 1131 049e EBDE     		jmp	.L94
 1132              	.LVL119:
 1133              	.L98:
 355:../Backend/gnu-efi-3.0.9/lib/str.c ****             }
 1134              		.loc 1 355 24 view .LVU312
 1135 04a0 B8000000 		movl	$0, %eax
 1135      00
 1136              	.LVL120:
 355:../Backend/gnu-efi-3.0.9/lib/str.c ****             }
 1137              		.loc 1 355 24 view .LVU313
 1138 04a5 E935FFFF 		jmp	.L79
 1138      FF
 1139              	.LVL121:
 1140              	.L99:
 364:../Backend/gnu-efi-3.0.9/lib/str.c ****             }
 1141              		.loc 1 364 24 view .LVU314
 1142 04aa B8000000 		movl	$0, %eax
 1142      00
 1143              	.LVL122:
 364:../Backend/gnu-efi-3.0.9/lib/str.c ****             }
 1144              		.loc 1 364 24 view .LVU315
 1145 04af E92BFFFF 		jmp	.L79
 1145      FF
 1146              	.LVL123:
 1147              	.L100:
 370:../Backend/gnu-efi-3.0.9/lib/str.c ****                 }
 1148              		.loc 1 370 28 view .LVU316
 1149 04b4 B8000000 		movl	$0, %eax
 1149      00
 1150              	.LVL124:
 370:../Backend/gnu-efi-3.0.9/lib/str.c ****                 }
 1151              		.loc 1 370 28 view .LVU317
 1152 04b9 E921FFFF 		jmp	.L79
 1152      FF
 1153              	.LVL125:
 1154              	.L102:
 376:../Backend/gnu-efi-3.0.9/lib/str.c ****                     }
 1155              		.loc 1 376 32 view .LVU318
 1156 04be B8000000 		movl	$0, %eax
 1156      00
 1157              	.LVL126:
 376:../Backend/gnu-efi-3.0.9/lib/str.c ****                     }
 1158              		.loc 1 376 32 view .LVU319
 1159 04c3 E917FFFF 		jmp	.L79
 1159      FF
 1160              	.LVL127:
 1161              	.L104:
 402:../Backend/gnu-efi-3.0.9/lib/str.c ****             }
 1162              		.loc 1 402 24 view .LVU320
 1163 04c8 B8000000 		movl	$0, %eax
 1163      00
 1164              	.LVL128:
 402:../Backend/gnu-efi-3.0.9/lib/str.c ****             }
 1165              		.loc 1 402 24 view .LVU321
 1166 04cd E90DFFFF 		jmp	.L79
 1166      FF
 1167              		.cfi_endproc
 1168              	.LFE22:
 1170              		.globl	LibStubMetaiMatch
 1171              		.hidden	LibStubMetaiMatch
 1173              	LibStubMetaiMatch:
 1174              	.LVL129:
 1175              	.LFB23:
 410:../Backend/gnu-efi-3.0.9/lib/str.c **** 
 411:../Backend/gnu-efi-3.0.9/lib/str.c **** 
 412:../Backend/gnu-efi-3.0.9/lib/str.c **** BOOLEAN EFIAPI
 413:../Backend/gnu-efi-3.0.9/lib/str.c **** LibStubMetaiMatch (
 414:../Backend/gnu-efi-3.0.9/lib/str.c ****     IN EFI_UNICODE_COLLATION_INTERFACE  *This EFI_UNUSED,
 415:../Backend/gnu-efi-3.0.9/lib/str.c ****     IN CHAR16                           *String,
 416:../Backend/gnu-efi-3.0.9/lib/str.c ****     IN CHAR16                           *Pattern
 417:../Backend/gnu-efi-3.0.9/lib/str.c ****     )
 418:../Backend/gnu-efi-3.0.9/lib/str.c **** {
 1176              		.loc 1 418 1 is_stmt 1 view -0
 1177              		.cfi_startproc
 1178              		.loc 1 418 1 is_stmt 0 view .LVU323
 1179 04d2 F30F1EFA 		endbr64
 1180 04d6 57       		pushq	%rdi
 1181              		.cfi_def_cfa_offset 16
 1182              		.cfi_offset 5, -16
 1183 04d7 56       		pushq	%rsi
 1184              		.cfi_def_cfa_offset 24
 1185              		.cfi_offset 4, -24
 1186 04d8 4881ECA8 		subq	$168, %rsp
 1186      000000
 1187              		.cfi_def_cfa_offset 192
 1188 04df 0F293424 		movaps	%xmm6, (%rsp)
 1189 04e3 0F297C24 		movaps	%xmm7, 16(%rsp)
 1189      10
 1190 04e8 440F2944 		movaps	%xmm8, 32(%rsp)
 1190      2420
 1191 04ee 440F294C 		movaps	%xmm9, 48(%rsp)
 1191      2430
 1192 04f4 440F2954 		movaps	%xmm10, 64(%rsp)
 1192      2440
 1193 04fa 440F295C 		movaps	%xmm11, 80(%rsp)
 1193      2450
 1194 0500 440F2964 		movaps	%xmm12, 96(%rsp)
 1194      2460
 1195 0506 440F296C 		movaps	%xmm13, 112(%rsp)
 1195      2470
 1196 050c 440F29B4 		movaps	%xmm14, 128(%rsp)
 1196      24800000 
 1196      00
 1197 0515 440F29BC 		movaps	%xmm15, 144(%rsp)
 1197      24900000 
 1197      00
 1198              		.cfi_offset 23, -192
 1199              		.cfi_offset 24, -176
 1200              		.cfi_offset 25, -160
 1201              		.cfi_offset 26, -144
 1202              		.cfi_offset 27, -128
 1203              		.cfi_offset 28, -112
 1204              		.cfi_offset 29, -96
 1205              		.cfi_offset 30, -80
 1206              		.cfi_offset 31, -64
 1207              		.cfi_offset 32, -48
 1208 051e 4889D7   		movq	%rdx, %rdi
 1209 0521 4C89C6   		movq	%r8, %rsi
 419:../Backend/gnu-efi-3.0.9/lib/str.c ****     return MetaMatch (String, Pattern);
 1210              		.loc 1 419 5 is_stmt 1 view .LVU324
 1211              		.loc 1 419 12 is_stmt 0 view .LVU325
 1212 0524 E8000000 		call	MetaMatch
 1212      00
 1213              	.LVL130:
 420:../Backend/gnu-efi-3.0.9/lib/str.c **** }
 1214              		.loc 1 420 1 view .LVU326
 1215 0529 0F283424 		movaps	(%rsp), %xmm6
 1216 052d 0F287C24 		movaps	16(%rsp), %xmm7
 1216      10
 1217 0532 440F2844 		movaps	32(%rsp), %xmm8
 1217      2420
 1218 0538 440F284C 		movaps	48(%rsp), %xmm9
 1218      2430
 1219 053e 440F2854 		movaps	64(%rsp), %xmm10
 1219      2440
 1220 0544 440F285C 		movaps	80(%rsp), %xmm11
 1220      2450
 1221 054a 440F2864 		movaps	96(%rsp), %xmm12
 1221      2460
 1222 0550 440F286C 		movaps	112(%rsp), %xmm13
 1222      2470
 1223 0556 440F28B4 		movaps	128(%rsp), %xmm14
 1223      24800000 
 1223      00
 1224 055f 440F28BC 		movaps	144(%rsp), %xmm15
 1224      24900000 
 1224      00
 1225 0568 4881C4A8 		addq	$168, %rsp
 1225      000000
 1226              		.cfi_restore 32
 1227              		.cfi_restore 31
 1228              		.cfi_restore 30
 1229              		.cfi_restore 29
 1230              		.cfi_restore 28
 1231              		.cfi_restore 27
 1232              		.cfi_restore 26
 1233              		.cfi_restore 25
 1234              		.cfi_restore 24
 1235              		.cfi_restore 23
 1236              		.cfi_def_cfa_offset 24
 1237 056f 5E       		popq	%rsi
 1238              		.cfi_restore 4
 1239              		.cfi_def_cfa_offset 16
 1240 0570 5F       		popq	%rdi
 1241              		.cfi_restore 5
 1242              		.cfi_def_cfa_offset 8
 1243 0571 C3       		ret
 1244              		.cfi_endproc
 1245              	.LFE23:
 1247              		.globl	MetaiMatch
 1248              		.hidden	MetaiMatch
 1250              	MetaiMatch:
 1251              	.LVL131:
 1252              	.LFB24:
 421:../Backend/gnu-efi-3.0.9/lib/str.c **** 
 422:../Backend/gnu-efi-3.0.9/lib/str.c **** 
 423:../Backend/gnu-efi-3.0.9/lib/str.c **** BOOLEAN
 424:../Backend/gnu-efi-3.0.9/lib/str.c **** MetaiMatch (
 425:../Backend/gnu-efi-3.0.9/lib/str.c ****     IN CHAR16   *String,
 426:../Backend/gnu-efi-3.0.9/lib/str.c ****     IN CHAR16   *Pattern
 427:../Backend/gnu-efi-3.0.9/lib/str.c ****     )
 428:../Backend/gnu-efi-3.0.9/lib/str.c **** {
 1253              		.loc 1 428 1 is_stmt 1 view -0
 1254              		.cfi_startproc
 1255              		.loc 1 428 1 is_stmt 0 view .LVU328
 1256 0572 F30F1EFA 		endbr64
 1257 0576 4883EC28 		subq	$40, %rsp
 1258              		.cfi_def_cfa_offset 48
 1259 057a 4889FA   		movq	%rdi, %rdx
 1260 057d 4989F0   		movq	%rsi, %r8
 429:../Backend/gnu-efi-3.0.9/lib/str.c ****     if (UnicodeInterface == &LibStubUnicodeInterface)
 1261              		.loc 1 429 5 is_stmt 1 view .LVU329
 1262              		.loc 1 429 26 is_stmt 0 view .LVU330
 1263 0580 488B0500 		movq	UnicodeInterface(%rip), %rax
 1263      000000
 1264              		.loc 1 429 8 view .LVU331
 1265 0587 488D0D00 		leaq	LibStubUnicodeInterface(%rip), %rcx
 1265      000000
 1266 058e 4839C8   		cmpq	%rcx, %rax
 1267 0591 740B     		je	.L116
 430:../Backend/gnu-efi-3.0.9/lib/str.c ****     	return UnicodeInterface->MetaiMatch(UnicodeInterface, String, Pattern);
 431:../Backend/gnu-efi-3.0.9/lib/str.c ****     else return uefi_call_wrapper(UnicodeInterface->MetaiMatch, 3, UnicodeInterface, String, Patter
 1268              		.loc 1 431 10 is_stmt 1 view .LVU332
 1269              		.loc 1 431 17 is_stmt 0 view .LVU333
 1270 0593 4889C1   		movq	%rax, %rcx
 1271 0596 FF5008   		call	*8(%rax)
 1272              	.LVL132:
 1273              	.L112:
 432:../Backend/gnu-efi-3.0.9/lib/str.c **** }
 1274              		.loc 1 432 1 view .LVU334
 1275 0599 4883C428 		addq	$40, %rsp
 1276              		.cfi_remember_state
 1277              		.cfi_def_cfa_offset 8
 1278 059d C3       		ret
 1279              	.LVL133:
 1280              	.L116:
 1281              		.cfi_restore_state
 430:../Backend/gnu-efi-3.0.9/lib/str.c ****     	return UnicodeInterface->MetaiMatch(UnicodeInterface, String, Pattern);
 1282              		.loc 1 430 6 is_stmt 1 view .LVU335
 430:../Backend/gnu-efi-3.0.9/lib/str.c ****     	return UnicodeInterface->MetaiMatch(UnicodeInterface, String, Pattern);
 1283              		.loc 1 430 13 is_stmt 0 view .LVU336
 1284 059e 4889C1   		movq	%rax, %rcx
 1285 05a1 FF5008   		call	*8(%rax)
 1286              	.LVL134:
 430:../Backend/gnu-efi-3.0.9/lib/str.c ****     	return UnicodeInterface->MetaiMatch(UnicodeInterface, String, Pattern);
 1287              		.loc 1 430 13 view .LVU337
 1288 05a4 EBF3     		jmp	.L112
 1289              		.cfi_endproc
 1290              	.LFE24:
 1292              	.Letext0:
 1293              		.file 2 "/usr/lib/gcc/x86_64-linux-gnu/13/include/stdint-gcc.h"
 1294              		.file 3 "../Backend/gnu-efi-3.0.9/inc/x86_64/efibind.h"
 1295              		.file 4 "../Backend/gnu-efi-3.0.9/inc/efidef.h"
 1296              		.file 5 "../Backend/gnu-efi-3.0.9/inc/efiprot.h"
 1297              		.file 6 "../Backend/gnu-efi-3.0.9/lib/lib.h"
 1298              		.file 7 "../Backend/gnu-efi-3.0.9/inc/efilib.h"
 1299              		.file 8 "../Backend/gnu-efi-3.0.9/inc/efirtlib.h"
 13125              		.section	.note.gnu.property,"a"
 13126              		.align 8
 13127 0000 04000000 		.long	1f - 0f
 13128 0004 10000000 		.long	4f - 1f
 13129 0008 05000000 		.long	5
 13130              	0:
 13131 000c 474E5500 		.string	"GNU"
 13132              	1:
 13133              		.align 8
 13134 0010 020000C0 		.long	0xc0000002
 13135 0014 04000000 		.long	3f - 2f
 13136              	2:
 13137 0018 03000000 		.long	0x3
 13138              	3:
 13139 001c 00000000 		.align 8
 13140              	4:
